 steam_api

 Timestamp is 54b6ae2b (Wed Jan 14 18:58:03 2015)

 Preferred load address is 10000000

 Start         Length     Name                   Class
 0001:00000000 000ba0ceH .text                   CODE
 0001:000ba0d0 0000212fH .text$x                 CODE
 0001:000bc200 000009e0H .text$yc                CODE
 0001:000bcbe0 00000306H .text$yd                CODE
 0002:00000000 00000458H .idata$5                DATA
 0002:00000458 00000004H .CRT$XCA                DATA
 0002:0000045c 0000000cH .CRT$XCC                DATA
 0002:00000468 00000008H .CRT$XCL                DATA
 0002:00000470 000000f0H .CRT$XCU                DATA
 0002:00000560 00000004H .CRT$XCZ                DATA
 0002:00000564 00000004H .CRT$XIA                DATA
 0002:00000568 00000010H .CRT$XIC                DATA
 0002:00000578 00000004H .CRT$XID                DATA
 0002:0000057c 00000004H .CRT$XIZ                DATA
 0002:00000580 00000004H .CRT$XPA                DATA
 0002:00000584 00000004H .CRT$XPX                DATA
 0002:00000588 00000004H .CRT$XPXA               DATA
 0002:0000058c 00000004H .CRT$XPZ                DATA
 0002:00000590 00000004H .CRT$XTA                DATA
 0002:00000594 00000004H .CRT$XTZ                DATA
 0002:000005a0 0003c120H .rdata                  DATA
 0002:0003c6c0 0000005aH .rdata$debug            DATA
 0002:0003c71c 000014c0H .rdata$r                DATA
 0002:0003dbdc 00000004H .rtc$IAA                DATA
 0002:0003dbe0 00000004H .rtc$IZZ                DATA
 0002:0003dbe4 00000004H .rtc$TAA                DATA
 0002:0003dbe8 00000004H .rtc$TZZ                DATA
 0002:0003dbf0 000043acH .xdata$x                DATA
 0002:00041f9c 00000104H .idata$2                DATA
 0002:000420a0 00000014H .idata$3                DATA
 0002:000420b4 00000458H .idata$4                DATA
 0002:0004250c 00001100H .idata$6                DATA
 0002:00043610 000008b2H .edata                  DATA
 0003:00000000 0000b4ecH .data                   DATA
 0003:0000b500 0562caf8H .bss                    DATA

  Address         Publics by Value              Rva+Base       Lib:Object

 0000:00000000       __except_list              00000000     <absolute>
 0000:00000000       ___ImageBase               10000000     <linker-defined>
 0001:00000000       ??0MD5@@QAE@XZ             10001000 f   Auth.obj
 0001:00000020       ??0MD5@@QAE@ABV?$basic_string@DU?$char_traits@D@std@@V?$allocator@D@2@@std@@@Z 10001020 f   Auth.obj
 0001:00000060       ?init@MD5@@AAEXXZ          10001060 f   Auth.obj
 0001:000000b0       ?decode@MD5@@CAXQAIQBEI@Z  100010b0 f   Auth.obj
 0001:00000130       ?encode@MD5@@CAXQAEQBII@Z  10001130 f   Auth.obj
 0001:000001d0       ?transform@MD5@@AAEXQBE@Z  100011d0 f   Auth.obj
 0001:00000b30       ?update@MD5@@QAEXPBEI@Z    10001b30 f   Auth.obj
 0001:00000c40       ?update@MD5@@QAEXPBDI@Z    10001c40 f   Auth.obj
 0001:00000c60       ?finalize@MD5@@QAEAAV1@XZ  10001c60 f   Auth.obj
 0001:00000d30       ?hexdigest@MD5@@QBE?AV?$basic_string@DU?$char_traits@D@std@@V?$allocator@D@2@@std@@XZ 10001d30 f   Auth.obj
 0001:00000dd0       ??6@YAAAV?$basic_ostream@DU?$char_traits@D@std@@@std@@AAV01@VMD5@@@Z 10001dd0 f   Auth.obj
 0001:00000e40       ?md5@@YA?AV?$basic_string@DU?$char_traits@D@std@@V?$allocator@D@2@@std@@V12@@Z 10001e40 f   Auth.obj
 0001:00000eb0       ?get_volume_serial@@YA?AV?$basic_string@DU?$char_traits@D@std@@V?$allocator@D@2@@std@@XZ 10001eb0 f   Auth.obj
 0001:00000fb0       ?getHWID@@YA?AV?$basic_string@DU?$char_traits@D@std@@V?$allocator@D@2@@std@@XZ 10001fb0 f   Auth.obj
 0001:00000ff0       ?Auth_DisplayLoginDialogDownLevel@@YA_NPAPB_W0PAU_CREDUI_INFOW@@@Z 10001ff0 f   Auth.obj
 0001:00001060       ?Auth_DisplayLoginDialog@@YA_NPAPB_W0@Z 10002060 f   Auth.obj
 0001:00001320       ?Auth_Error@@YAXPBD@Z      10002320 f   Auth.obj
 0001:00001360       ?AuthDataReceived@@YAIPAXII0@Z 10002360 f   Auth.obj
 0001:000013b0       ?Auth_GetUsername@@YAPADXZ 100023b0 f   Auth.obj
 0001:000013c0       ?Auth_GetSessionID@@YAPADXZ 100023c0 f   Auth.obj
 0001:000013d0       ?Auth_GetUserID@@YAHXZ     100023d0 f   Auth.obj
 0001:000013e0       ?Auth_ParseResultBuffer@@YA_NPBD@Z 100023e0 f   Auth.obj
 0001:000014c0       ?Auth_PerformSessionLogin@@YA_NPBD0@Z 100024c0 f   Auth.obj
 0001:000017b0       ?Auth_VerifyIdentity@@YAXXZ 100027b0 f   Auth.obj
 0001:00001880       ?DLCDataReceived@@YAIPAXII0@Z 10002880 f   Auth.obj
 0001:000018c0       ?Auth_OpenDLCStore@@YAXXZ  100028c0 f   Auth.obj
 0001:00001990       ?FF@MD5@@CAXAAIIIIIII@Z    10002990 f i Auth.obj
 0001:000019d0       ?F@MD5@@CAIIII@Z           100029d0 f i Auth.obj
 0001:000019f0       ?rotate_left@MD5@@CAIIH@Z  100029f0 f i Auth.obj
 0001:00001a10       ?GG@MD5@@CAXAAIIIIIII@Z    10002a10 f i Auth.obj
 0001:00001a50       ?G@MD5@@CAIIII@Z           10002a50 f i Auth.obj
 0001:00001a70       ?HH@MD5@@CAXAAIIIIIII@Z    10002a70 f i Auth.obj
 0001:00001ab0       ?H@MD5@@CAIIII@Z           10002ab0 f i Auth.obj
 0001:00001ac0       ?II@MD5@@CAXAAIIIIIII@Z    10002ac0 f i Auth.obj
 0001:00001b00       ?I@MD5@@CAIIII@Z           10002b00 f i Auth.obj
 0001:00001b10       ??_D?$basic_stringstream@DU?$char_traits@D@std@@V?$allocator@D@2@@std@@QAEXXZ 10002b10 f i Auth.obj
 0001:00001b40       ?size@?$deque@U?$pair@PAEPAE@std@@V?$allocator@U?$pair@PAEPAE@std@@@2@@std@@QBEIXZ 10002b40 f i PatchMW2StringTable.obj
 0001:00001b40       ?size@?$basic_string@DU?$char_traits@D@std@@V?$allocator@D@2@@std@@QBEIXZ 10002b40 f i Auth.obj
 0001:00001b40       ?size@?$deque@V?$deque@U?$pair@PAEPAE@std@@V?$allocator@U?$pair@PAEPAE@std@@@2@@std@@V?$allocator@V?$deque@U?$pair@PAEPAE@std@@V?$allocator@U?$pair@PAEPAE@std@@@2@@std@@@2@@std@@QBEIXZ 10002b40 f i PatchMW2StringTable.obj
 0001:00001b40       ?size@?$deque@Udownload_s@@V?$allocator@Udownload_s@@@std@@@std@@QBEIXZ 10002b40 f i PatchMW2DownloadCL.obj
 0001:00001b40       ?state@?$fpos@H@std@@QBEHXZ 10002b40 f i PatchMW2LocalizedStrings.obj
 0001:00001b40       ?length@?$basic_string@DU?$char_traits@D@std@@V?$allocator@D@2@@std@@QBEIXZ 10002b40 f i Auth.obj
 0001:00001b60       ??6?$basic_ostream@DU?$char_traits@D@std@@@std@@QAEAAV01@K@Z 10002b60 f i Auth.obj
 0001:00001cf0       ??0?$basic_stringstream@DU?$char_traits@D@std@@V?$allocator@D@2@@std@@QAE@H@Z 10002cf0 f i Auth.obj
 0001:00001da0       ??1?$basic_stringstream@DU?$char_traits@D@std@@V?$allocator@D@2@@std@@UAE@XZ 10002da0 f i Auth.obj
 0001:00001e10       ?str@?$basic_stringstream@DU?$char_traits@D@std@@V?$allocator@D@2@@std@@QBE?AV?$basic_string@DU?$char_traits@D@std@@V?$allocator@D@2@@2@XZ 10002e10 f i Auth.obj
 0001:00001e50       ??1?$basic_iostream@DU?$char_traits@D@std@@@std@@UAE@XZ 10002e50 f i Auth.obj
 0001:00001eb0       ??1?$basic_stringbuf@DU?$char_traits@D@std@@V?$allocator@D@2@@std@@UAE@XZ 10002eb0 f i Auth.obj
 0001:00001f10       ?overflow@?$basic_stringbuf@DU?$char_traits@D@std@@V?$allocator@D@2@@std@@MAEHH@Z 10002f10 f i Auth.obj
 0001:00002200       ?copy@?$char_traits@D@std@@SAPADPADPBDI@Z 10003200 f i Auth.obj
 0001:00002220       ?to_char_type@?$char_traits@D@std@@SADABH@Z 10003220 f i Auth.obj
 0001:00002230       ?eq_int_type@?$char_traits@D@std@@SA_NABH0@Z 10003230 f i Auth.obj
 0001:00002250       ?not_eof@?$char_traits@D@std@@SAHABH@Z 10003250 f i Auth.obj
 0001:00002280       ?pbackfail@?$basic_stringbuf@DU?$char_traits@D@std@@V?$allocator@D@2@@std@@MAEHH@Z 10003280 f i Auth.obj
 0001:00002370       ?eq@?$char_traits@D@std@@SA_NABD0@Z 10003370 f i Auth.obj
 0001:00002390       ?underflow@?$basic_stringbuf@DU?$char_traits@D@std@@V?$allocator@D@2@@std@@MAEHXZ 10003390 f i Auth.obj
 0001:00002480       ?to_int_type@?$char_traits@D@std@@SAHABD@Z 10003480 f i Auth.obj
 0001:00002490       ?seekoff@?$basic_stringbuf@DU?$char_traits@D@std@@V?$allocator@D@2@@std@@MAE?AV?$fpos@H@2@_JHH@Z 10003490 f i Auth.obj
 0001:00002740       ?seekpos@?$basic_stringbuf@DU?$char_traits@D@std@@V?$allocator@D@2@@std@@MAE?AV?$fpos@H@2@V32@H@Z 10003740 f i Auth.obj
 0001:00002930       ??_G?$basic_stringstream@DU?$char_traits@D@std@@V?$allocator@D@2@@std@@UAEPAXI@Z 10003930 f i Auth.obj
 0001:00002930       ??_E?$basic_stringstream@DU?$char_traits@D@std@@V?$allocator@D@2@@std@@UAEPAXI@Z 10003930 f i Auth.obj
 0001:00002970       ??_E?$basic_iostream@DU?$char_traits@D@std@@@std@@UAEPAXI@Z 10003970 f i Auth.obj
 0001:00002970       ??_G?$basic_iostream@DU?$char_traits@D@std@@@std@@UAEPAXI@Z 10003970 f i Auth.obj
 0001:000029b0       ??_G?$basic_stringbuf@DU?$char_traits@D@std@@V?$allocator@D@2@@std@@UAEPAXI@Z 100039b0 f i Auth.obj
 0001:000029b0       ??_E?$basic_stringbuf@DU?$char_traits@D@std@@V?$allocator@D@2@@std@@UAEPAXI@Z 100039b0 f i Auth.obj
 0001:000029e0       ??_D?$basic_iostream@DU?$char_traits@D@std@@@std@@QAEXXZ 100039e0 f i Auth.obj
 0001:00002a10       ??0?$basic_ios@DU?$char_traits@D@std@@@std@@IAE@XZ 10003a10 f i Auth.obj
 0001:00002a30       ?eback@?$basic_streambuf@DU?$char_traits@D@std@@@std@@IBEPADXZ 10003a30 f i Auth.obj
 0001:00002a50       ?pbase@?$basic_streambuf@DU?$char_traits@D@std@@@std@@IBEPADXZ 10003a50 f i Auth.obj
 0001:00002a70       ?egptr@?$basic_streambuf@DU?$char_traits@D@std@@@std@@IBEPADXZ 10003a70 f i Auth.obj
 0001:00002a90       ?setg@?$basic_streambuf@DU?$char_traits@D@std@@@std@@IAEXPAD00@Z 10003a90 f i Auth.obj
 0001:00002ad0       ?epptr@?$basic_streambuf@DU?$char_traits@D@std@@@std@@IBEPADXZ 10003ad0 f i Auth.obj
 0001:00002af0       ?setp@?$basic_streambuf@DU?$char_traits@D@std@@@std@@IAEXPAD0@Z 10003af0 f i Auth.obj
 0001:00002b30       ?setp@?$basic_streambuf@DU?$char_traits@D@std@@@std@@IAEXPAD00@Z 10003b30 f i Auth.obj
 0001:00002b70       ??B?$fpos@H@std@@QBE_JXZ   10003b70 f i Auth.obj
 0001:00002b90       ??0?$basic_iostream@DU?$char_traits@D@std@@@std@@QAE@PAV?$basic_streambuf@DU?$char_traits@D@std@@@1@@Z 10003b90 f i Auth.obj
 0001:00002c40       ??0?$basic_stringbuf@DU?$char_traits@D@std@@V?$allocator@D@2@@std@@QAE@H@Z 10003c40 f i Auth.obj
 0001:00002cc0       ?str@?$basic_stringbuf@DU?$char_traits@D@std@@V?$allocator@D@2@@std@@QBE?AV?$basic_string@DU?$char_traits@D@std@@V?$allocator@D@2@@2@XZ 10003cc0 f i Auth.obj
 0001:00002e30       ?_Tidy@?$basic_stringbuf@DU?$char_traits@D@std@@V?$allocator@D@2@@std@@IAEXXZ 10003e30 f i Auth.obj
 0001:00002ed0       ?put@?$num_put@DV?$ostreambuf_iterator@DU?$char_traits@D@std@@@std@@@std@@QBE?AV?$ostreambuf_iterator@DU?$char_traits@D@std@@@2@V32@AAVios_base@2@DK@Z 10003ed0 f i Auth.obj
 0001:00002f10       ??0?$ostreambuf_iterator@DU?$char_traits@D@std@@@std@@QAE@PAV?$basic_streambuf@DU?$char_traits@D@std@@@1@@Z 10003f10 f i Auth.obj
 0001:00002f30       ?failed@?$ostreambuf_iterator@DU?$char_traits@D@std@@@std@@QBE_NXZ 10003f30 f i Auth.obj
 0001:00002f40       ??0?$basic_string@DU?$char_traits@D@std@@V?$allocator@D@2@@std@@QAE@PBDI@Z 10003f40 f i Auth.obj
 0001:00002fb0       ??0?$basic_ostream@DU?$char_traits@D@std@@@std@@QAE@W4_Uninitialized@1@_N@Z 10003fb0 f i Auth.obj
 0001:00003060       ??0?$basic_istream@DU?$char_traits@D@std@@@std@@QAE@PAV?$basic_streambuf@DU?$char_traits@D@std@@@1@_N@Z 10004060 f i Auth.obj
 0001:00003110       ??0?$basic_streambuf@DU?$char_traits@D@std@@@std@@IAE@XZ 10004110 f i Auth.obj
 0001:000031a0       ?_Init@?$basic_stringbuf@DU?$char_traits@D@std@@V?$allocator@D@2@@std@@IAEXPBDIH@Z 100041a0 f i Auth.obj
 0001:000032a0       ?_Getstate@?$basic_stringbuf@DU?$char_traits@D@std@@V?$allocator@D@2@@std@@AAEHH@Z 100042a0 f i Auth.obj
 0001:00003300       ?init@?$basic_ios@DU?$char_traits@D@std@@@std@@IAEXPAV?$basic_streambuf@DU?$char_traits@D@std@@@2@_N@Z 10004300 f i Auth.obj
 0001:00003370       ?_Init@?$basic_streambuf@DU?$char_traits@D@std@@@std@@IAEXXZ 10004370 f i Auth.obj
 0001:000033e0       ?widen@?$basic_ios@DU?$char_traits@D@std@@@std@@QBEDD@Z 100043e0 f i Auth.obj
 0001:00003460       ??$?6DU?$char_traits@D@std@@V?$allocator@D@1@@std@@YAAAV?$basic_ostream@DU?$char_traits@D@std@@@0@AAV10@ABV?$basic_string@DU?$char_traits@D@std@@V?$allocator@D@2@@0@@Z 10004460 f i Auth.obj
 0001:00003760       ??$use_facet@V?$num_put@DV?$ostreambuf_iterator@DU?$char_traits@D@std@@@std@@@std@@@std@@YAABV?$num_put@DV?$ostreambuf_iterator@DU?$char_traits@D@std@@@std@@@0@ABVlocale@0@@Z 10004760 f i Auth.obj
 0001:00003850       ?_Getcat@?$num_put@DV?$ostreambuf_iterator@DU?$char_traits@D@std@@@std@@@std@@SAIPAPBVfacet@locale@2@PBV42@@Z 10004850 f i Auth.obj
 0001:00003930       ??0_Locinfo@std@@QAE@PBD@Z 10004930 f i Auth.obj
 0001:000039f0       ??0runtime_error@std@@QAE@PBD@Z 100049f0 f i Auth.obj
 0001:00003a20       ??_Glogic_error@std@@UAEPAXI@Z 10004a20 f i PatchMW2CModels.obj
 0001:00003a20       ??_Gruntime_error@std@@UAEPAXI@Z 10004a20 f i Auth.obj
 0001:00003a20       ??_Eruntime_error@std@@UAEPAXI@Z 10004a20 f i Auth.obj
 0001:00003a20       ??_Elogic_error@std@@UAEPAXI@Z 10004a20 f i PatchMW2CModels.obj
 0001:00003a50       ??1_Locinfo@std@@QAE@XZ    10004a50 f i Auth.obj
 0001:00003ae0       ??0runtime_error@std@@QAE@ABV01@@Z 10004ae0 f i Auth.obj
 0001:00003b10       ??Bid@locale@std@@QAEIXZ   10004b10 f i Auth.obj
 0001:00003b60       ?_Incref@facet@locale@std@@QAEXXZ 10004b60 f i Auth.obj
 0001:00003ba0       ??0?$num_put@DV?$ostreambuf_iterator@DU?$char_traits@D@std@@@std@@@std@@QAE@ABV_Locinfo@1@I@Z 10004ba0 f i Auth.obj
 0001:00003c00       ?do_put@?$num_put@DV?$ostreambuf_iterator@DU?$char_traits@D@std@@@std@@@std@@MBE?AV?$ostreambuf_iterator@DU?$char_traits@D@std@@@2@V32@AAVios_base@2@D_N@Z 10004c00 f i Auth.obj
 0001:00003e80       ?do_put@?$num_put@DV?$ostreambuf_iterator@DU?$char_traits@D@std@@@std@@@std@@MBE?AV?$ostreambuf_iterator@DU?$char_traits@D@std@@@2@V32@AAVios_base@2@DJ@Z 10004e80 f i Auth.obj
 0001:00003ef0       ?do_put@?$num_put@DV?$ostreambuf_iterator@DU?$char_traits@D@std@@@std@@@std@@MBE?AV?$ostreambuf_iterator@DU?$char_traits@D@std@@@2@V32@AAVios_base@2@DK@Z 10004ef0 f i Auth.obj
 0001:00003f60       ?do_put@?$num_put@DV?$ostreambuf_iterator@DU?$char_traits@D@std@@@std@@@std@@MBE?AV?$ostreambuf_iterator@DU?$char_traits@D@std@@@2@V32@AAVios_base@2@D_J@Z 10004f60 f i Auth.obj
 0001:00003fd0       ?do_put@?$num_put@DV?$ostreambuf_iterator@DU?$char_traits@D@std@@@std@@@std@@MBE?AV?$ostreambuf_iterator@DU?$char_traits@D@std@@@2@V32@AAVios_base@2@D_K@Z 10004fd0 f i Auth.obj
 0001:00004040       ?do_put@?$num_put@DV?$ostreambuf_iterator@DU?$char_traits@D@std@@@std@@@std@@MBE?AV?$ostreambuf_iterator@DU?$char_traits@D@std@@@2@V32@AAVios_base@2@DN@Z 10005040 f i Auth.obj
 0001:000042b0       ?do_put@?$num_put@DV?$ostreambuf_iterator@DU?$char_traits@D@std@@@std@@@std@@MBE?AV?$ostreambuf_iterator@DU?$char_traits@D@std@@@2@V32@AAVios_base@2@DO@Z 100052b0 f i Auth.obj
 0001:00004510       ?do_put@?$num_put@DV?$ostreambuf_iterator@DU?$char_traits@D@std@@@std@@@std@@MBE?AV?$ostreambuf_iterator@DU?$char_traits@D@std@@@2@V32@AAVios_base@2@DPBX@Z 10005510 f i Auth.obj
 0001:00004560       ??_G?$num_put@DV?$ostreambuf_iterator@DU?$char_traits@D@std@@@std@@@std@@MAEPAXI@Z 10005560 f i Auth.obj
 0001:00004560       ??_E?$num_put@DV?$ostreambuf_iterator@DU?$char_traits@D@std@@@std@@@std@@MAEPAXI@Z 10005560 f i Auth.obj
 0001:00004590       ??1?$num_put@DV?$ostreambuf_iterator@DU?$char_traits@D@std@@@std@@@std@@MAE@XZ 10005590 f i Auth.obj
 0001:000045b0       ?_Ffmt@?$num_put@DV?$ostreambuf_iterator@DU?$char_traits@D@std@@@std@@@std@@ABAPADPADDH@Z 100055b0 f i Auth.obj
 0001:00004690       ?_Fput@?$num_put@DV?$ostreambuf_iterator@DU?$char_traits@D@std@@@std@@@std@@ABA?AV?$ostreambuf_iterator@DU?$char_traits@D@std@@@2@V32@AAVios_base@2@DPBDIIII@Z 10005690 f i Auth.obj
 0001:00004d30       ?_Ifmt@?$num_put@DV?$ostreambuf_iterator@DU?$char_traits@D@std@@@std@@@std@@ABAPADPADPBDH@Z 10005d30 f i Auth.obj
 0001:00004e30       ?_Iput@?$num_put@DV?$ostreambuf_iterator@DU?$char_traits@D@std@@@std@@@std@@ABA?AV?$ostreambuf_iterator@DU?$char_traits@D@std@@@2@V32@AAVios_base@2@DPADI@Z 10005e30 f i Auth.obj
 0001:00005160       ?_Put@?$num_put@DV?$ostreambuf_iterator@DU?$char_traits@D@std@@@std@@@std@@ABA?AV?$ostreambuf_iterator@DU?$char_traits@D@std@@@2@V32@PBDI@Z 10006160 f i Auth.obj
 0001:000051b0       ?_Rep@?$num_put@DV?$ostreambuf_iterator@DU?$char_traits@D@std@@@std@@@std@@ABA?AV?$ostreambuf_iterator@DU?$char_traits@D@std@@@2@V32@DI@Z 100061b0 f i Auth.obj
 0001:00005200       ?falsename@?$numpunct@D@std@@QBE?AV?$basic_string@DU?$char_traits@D@std@@V?$allocator@D@2@@2@XZ 10006200 f i Auth.obj
 0001:00005240       ?truename@?$numpunct@D@std@@QBE?AV?$basic_string@DU?$char_traits@D@std@@V?$allocator@D@2@@2@XZ 10006240 f i Auth.obj
 0001:00005280       ?append@?$basic_string@DU?$char_traits@D@std@@V?$allocator@D@2@@std@@QAEAAV12@PBDI@Z 10006280 f i Auth.obj
 0001:00005330       ?append@?$basic_string@DU?$char_traits@D@std@@V?$allocator@D@2@@std@@QAEAAV12@ID@Z 10006330 f i Auth.obj
 0001:000053b0       ?_Putc@?$num_put@DV?$ostreambuf_iterator@DU?$char_traits@D@std@@@std@@@std@@ABA?AV?$ostreambuf_iterator@DU?$char_traits@D@std@@@2@V32@PBDI@Z 100063b0 f i Auth.obj
 0001:00005420       ?_Putgrouped@?$num_put@DV?$ostreambuf_iterator@DU?$char_traits@D@std@@@std@@@std@@ABA?AV?$ostreambuf_iterator@DU?$char_traits@D@std@@@2@V32@PBDID@Z 10006420 f i Auth.obj
 0001:00005500       ??4?$ostreambuf_iterator@DU?$char_traits@D@std@@@std@@QAEAAV01@D@Z 10006500 f i Auth.obj
 0001:00005560       ?always_noconv@codecvt_base@std@@QBE_NXZ 10006560 f i PatchMW2LocalizedStrings.obj
 0001:00005560       ?decimal_point@?$numpunct@D@std@@QBEDXZ 10006560 f i Auth.obj
 0001:00005580       ?thousands_sep@?$numpunct@D@std@@QBEDXZ 10006580 f i Auth.obj
 0001:000055a0       ?grouping@?$numpunct@D@std@@QBE?AV?$basic_string@DU?$char_traits@D@std@@V?$allocator@D@2@@2@XZ 100065a0 f i Auth.obj
 0001:000055e0       ?append@?$basic_string@DU?$char_traits@D@std@@V?$allocator@D@2@@std@@QAEAAV12@ABV12@II@Z 100065e0 f i Auth.obj
 0001:000056a0       ??$use_facet@V?$numpunct@D@std@@@std@@YAABV?$numpunct@D@0@ABVlocale@0@@Z 100066a0 f i Auth.obj
 0001:00005790       ??$_Maklocchr@D@std@@YADDPADABU_Cvtvec@@@Z 10006790 f i Auth.obj
 0001:000057a0       ?_Getcat@?$numpunct@D@std@@SAIPAPBVfacet@locale@2@PBV42@@Z 100067a0 f i Auth.obj
 0001:00005880       ?_Register@facet@locale@std@@QAEXXZ 10006880 f i Auth.obj
 0001:000058a0       ??0?$numpunct@D@std@@QAE@ABV_Locinfo@1@I_N@Z 100068a0 f i Auth.obj
 0001:00005910       ?do_decimal_point@?$numpunct@D@std@@MBEDXZ 10006910 f i Auth.obj
 0001:00005930       ?do_thousands_sep@?$numpunct@D@std@@MBEDXZ 10006930 f i Auth.obj
 0001:00005950       ?do_grouping@?$numpunct@D@std@@MBE?AV?$basic_string@DU?$char_traits@D@std@@V?$allocator@D@2@@2@XZ 10006950 f i Auth.obj
 0001:00005990       ?do_falsename@?$numpunct@D@std@@MBE?AV?$basic_string@DU?$char_traits@D@std@@V?$allocator@D@2@@2@XZ 10006990 f i Auth.obj
 0001:000059d0       ?do_truename@?$numpunct@D@std@@MBE?AV?$basic_string@DU?$char_traits@D@std@@V?$allocator@D@2@@2@XZ 100069d0 f i Auth.obj
 0001:00005a10       ??_E?$numpunct@D@std@@MAEPAXI@Z 10006a10 f i Auth.obj
 0001:00005a10       ??_G?$numpunct@D@std@@MAEPAXI@Z 10006a10 f i Auth.obj
 0001:00005a40       ??1?$numpunct@D@std@@MAE@XZ 10006a40 f i Auth.obj
 0001:00005aa0       ?_Tidy@?$numpunct@D@std@@AAEXXZ 10006aa0 f i Auth.obj
 0001:00005af0       ??1facet@locale@std@@UAE@XZ 10006af0 f i Auth.obj
 0001:00005b10       ??0facet@locale@std@@IAE@I@Z 10006b10 f i Auth.obj
 0001:00005b40       ?_Init@?$num_put@DV?$ostreambuf_iterator@DU?$char_traits@D@std@@@std@@@std@@IAEXABV_Locinfo@2@@Z 10006b40 f i Auth.obj
 0001:00005b70       ?_Getcvt@_Locinfo@std@@QBE?AU_Cvtvec@@XZ 10006b70 f i Auth.obj
 0001:00005ba0       ?_Init@?$numpunct@D@std@@IAEXABV_Locinfo@2@_N@Z 10006ba0 f i Auth.obj
 0001:00005d80       ?_Getlconv@_Locinfo@std@@QBEPBUlconv@@XZ 10006d80 f i Auth.obj
 0001:00005d90       ?_Getfalse@_Locinfo@std@@QBEPBDXZ 10006d90 f i Auth.obj
 0001:00005da0       ?_Gettrue@_Locinfo@std@@QBEPBDXZ 10006da0 f i Auth.obj
 0001:00005db0       ??$_Maklocstr@D@std@@YAPADPBDPADABU_Cvtvec@@@Z 10006db0 f i Auth.obj
 0001:00005e20       ??0locale@std@@QAE@XZ      10006e20 f i Auth.obj
 0001:00005e50       ??1locale@std@@QAE@XZ      10006e50 f i Auth.obj
 0001:00005ea0       ?_Decref@facet@locale@std@@QAEPAV123@XZ 10006ea0 f i Auth.obj
 0001:00005f00       ?c_str@locale@std@@QBEPBDXZ 10006f00 f i Auth.obj
 0001:00005f20       ?_Getfacet@locale@std@@QBEPBVfacet@12@I@Z 10006f20 f i Auth.obj
 0001:00005fb0       ??_Gfacet@locale@std@@UAEPAXI@Z 10006fb0 f i Auth.obj
 0001:00005fb0       ??_Efacet@locale@std@@UAEPAXI@Z 10006fb0 f i Auth.obj
 0001:00005fe0       ?widen@?$ctype@D@std@@QBEDD@Z 10006fe0 f i Auth.obj
 0001:00006000       ?flags@ios_base@std@@QBEHXZ 10007000 f i Auth.obj
 0001:00006020       ?precision@ios_base@std@@QBE_JXZ 10007020 f i Auth.obj
 0001:00006040       ?width@ios_base@std@@QBE_JXZ 10007040 f i Auth.obj
 0001:00006060       ?width@ios_base@std@@QAE_J_J@Z 10007060 f i Auth.obj
 0001:000060a0       ?getloc@ios_base@std@@QBE?AVlocale@2@XZ 100070a0 f i Auth.obj
 0001:000060e0       ??0locale@std@@QAE@ABV01@@Z 100070e0 f i Auth.obj
 0001:00006110       ??0ios_base@std@@IAE@XZ    10007110 f i Auth.obj
 0001:00006130       ?_Init@ios_base@std@@IAEXXZ 10007130 f i Auth.obj
 0001:000061e0       ?clear@ios_base@std@@QAEXH@Z 100071e0 f i Auth.obj
 0001:00006200       ?clear@ios_base@std@@QAEXH_N@Z 10007200 f i Auth.obj
 0001:000062f0       ?make_error_code@std@@YA?AVerror_code@1@W4io_errc@31@@Z 100072f0 f i Auth.obj
 0001:00006310       ??0error_code@std@@QAE@HABVerror_category@1@@Z 10007310 f i Auth.obj
 0001:00006340       ??0failure@ios_base@std@@QAE@PBDABVerror_code@2@@Z 10007340 f i Auth.obj
 0001:00006370       ??0system_error@std@@QAE@Verror_code@1@PBD@Z 10007370 f i Auth.obj
 0001:000063e0       ??_Elength_error@std@@UAEPAXI@Z 100073e0 f i PatchMW2CModels.obj
 0001:000063e0       ??_Gsystem_error@std@@UAEPAXI@Z 100073e0 f i Auth.obj
 0001:000063e0       ??_Glength_error@std@@UAEPAXI@Z 100073e0 f i PatchMW2CModels.obj
 0001:000063e0       ??_Esystem_error@std@@UAEPAXI@Z 100073e0 f i Auth.obj
 0001:00006410       ??_Gfailure@ios_base@std@@UAEPAXI@Z 10007410 f i Auth.obj
 0001:00006410       ??_Efailure@ios_base@std@@UAEPAXI@Z 10007410 f i Auth.obj
 0001:00006440       ??1failure@ios_base@std@@UAE@XZ 10007440 f i Auth.obj
 0001:00006460       ??0failure@ios_base@std@@QAE@ABV012@@Z 10007460 f i Auth.obj
 0001:00006490       ??0system_error@std@@QAE@ABV01@@Z 10007490 f i Auth.obj
 0001:000064d0       ??_Gios_base@std@@UAEPAXI@Z 100074d0 f i Auth.obj
 0001:000064d0       ??_Eios_base@std@@UAEPAXI@Z 100074d0 f i Auth.obj
 0001:00006500       ??1ios_base@std@@UAE@XZ    10007500 f i Auth.obj
 0001:00006520       ??0?$basic_string@DU?$char_traits@D@std@@V?$allocator@D@2@@std@@QAE@XZ 10007520 f i Auth.obj
 0001:00006580       ??0?$basic_string@DU?$char_traits@D@std@@V?$allocator@D@2@@std@@QAE@PBD@Z 10007580 f i Auth.obj
 0001:000065f0       ??0?$basic_string@DU?$char_traits@D@std@@V?$allocator@D@2@@std@@QAE@$$QAV01@@Z 100075f0 f i Auth.obj
 0001:00006670       ??1?$basic_string@DU?$char_traits@D@std@@V?$allocator@D@2@@std@@QAE@XZ 10007670 f i Auth.obj
 0001:000066c0       ?c_str@?$basic_string@DU?$char_traits@D@std@@V?$allocator@D@2@@std@@QBEPBDXZ 100076c0 f i Auth.obj
 0001:000066e0       ??0?$_Yarn@D@std@@QAE@XZ   100076e0 f i Auth.obj
 0001:00006700       ??1?$_Yarn@D@std@@QAE@XZ   10007700 f i Auth.obj
 0001:00006720       ?c_str@?$_Yarn@D@std@@QBEPBDXZ 10007720 f i Auth.obj
 0001:00006750       ??1?$basic_ostream@DU?$char_traits@D@std@@@std@@UAE@XZ 10007750 f i Auth.obj
 0001:00006770       ??1?$basic_ios@DU?$char_traits@D@std@@@std@@UAE@XZ 10007770 f i Auth.obj
 0001:00006790       ?setstate@?$basic_ios@DU?$char_traits@D@std@@@std@@QAEXH_N@Z 10007790 f i Auth.obj
 0001:000067c0       ?rdstate@ios_base@std@@QBEHXZ 100077c0 f i Auth.obj
 0001:000067e0       ?rdbuf@?$basic_ios@DU?$char_traits@D@std@@@std@@QBEPAV?$basic_streambuf@DU?$char_traits@D@std@@@2@XZ 100077e0 f i Auth.obj
 0001:00006800       ??1?$basic_istream@DU?$char_traits@D@std@@@std@@UAE@XZ 10007800 f i Auth.obj
 0001:00006820       ??1?$basic_streambuf@DU?$char_traits@D@std@@@std@@UAE@XZ 10007820 f i Auth.obj
 0001:00006870       ?_Lock@?$basic_streambuf@DU?$char_traits@D@std@@@std@@UAEXXZ 10007870 f i Auth.obj
 0001:00006890       ?_Unlock@?$basic_streambuf@DU?$char_traits@D@std@@@std@@UAEXXZ 10007890 f i Auth.obj
 0001:000068b0       ?pbackfail@?$basic_streambuf@DU?$char_traits@D@std@@@std@@MAEHH@Z 100078b0 f i Auth.obj
 0001:000068b0       ?overflow@?$basic_streambuf@DU?$char_traits@D@std@@@std@@MAEHH@Z 100078b0 f i Auth.obj
 0001:000068d0       ?showmanyc@?$basic_streambuf@DU?$char_traits@D@std@@@std@@MAE_JXZ 100078d0 f i Auth.obj
 0001:000068e0       ?underflow@?$basic_streambuf@DU?$char_traits@D@std@@@std@@MAEHXZ 100078e0 f i Auth.obj
 0001:000068f0       ?uflow@?$basic_streambuf@DU?$char_traits@D@std@@@std@@MAEHXZ 100078f0 f i Auth.obj
 0001:00006950       ?xsgetn@?$basic_streambuf@DU?$char_traits@D@std@@@std@@MAE_JPAD_J@Z 10007950 f i Auth.obj
 0001:00006a90       ?xsputn@?$basic_streambuf@DU?$char_traits@D@std@@@std@@MAE_JPBD_J@Z 10007a90 f i Auth.obj
 0001:00006bd0       ?seekoff@?$basic_streambuf@DU?$char_traits@D@std@@@std@@MAE?AV?$fpos@H@2@_JHH@Z 10007bd0 f i Auth.obj
 0001:00006c00       ?seekpos@?$basic_streambuf@DU?$char_traits@D@std@@@std@@MAE?AV?$fpos@H@2@V32@H@Z 10007c00 f i Auth.obj
 0001:00006c30       ?setbuf@?$basic_streambuf@DU?$char_traits@D@std@@@std@@MAEPAV12@PAD_J@Z 10007c30 f i Auth.obj
 0001:00006c30       ??0KeyInfo@?$dense_hashtable@U?$pair@$$CBKPAX@std@@KV?$hash_compare@KU?$less@K@std@@@stdext@@USelectKey@?$dense_hash_map@KPAXV?$hash_compare@KU?$less@K@std@@@stdext@@U?$equal_to@K@std@@V?$libc_allocator_with_realloc@U?$pair@$$CBKPAX@std@@@google@@@google@@USetKey@67@U?$equal_to@K@2@V?$libc_allocator_with_realloc@U?$pair@$$CBKPAX@std@@@7@@google@@QAE@ABUSelectKey@?$dense_hash_map@KPAXV?$hash_compare@KU?$less@K@std@@@stdext@@U?$equal_to@K@std@@V?$libc_allocator_with_realloc@U?$pair@$$CBKPAX@std@@@google@@@2@ABUSetKey@42@ABU?$equal_to@K@std@@@Z 10007c30 f i PatchMW2CModels.obj
 0001:00006c30       ??0KeyInfo@?$dense_hashtable@U?$pair@$$CBKPAUCModelAllocData@@@std@@KV?$hash_compare@KU?$less@K@std@@@stdext@@USelectKey@?$dense_hash_map@KPAUCModelAllocData@@V?$hash_compare@KU?$less@K@std@@@stdext@@U?$equal_to@K@std@@V?$libc_allocator_with_realloc@U?$pair@$$CBKPAUCModelAllocData@@@std@@@google@@@google@@USetKey@67@U?$equal_to@K@2@V?$libc_allocator_with_realloc@U?$pair@$$CBKPAUCModelAllocData@@@std@@@7@@google@@QAE@ABUSelectKey@?$dense_hash_map@KPAUCModelAllocData@@V?$hash_compare@KU?$less@K@std@@@stdext@@U?$equal_to@K@std@@V?$libc_allocator_with_realloc@U?$pair@$$CBKPAUCModelAllocData@@@std@@@google@@@2@ABUSetKey@42@ABU?$equal_to@K@std@@@Z 10007c30 f i PatchMW2CModels.obj
 0001:00006c40       ??_G?$basic_ostream@DU?$char_traits@D@std@@@std@@UAEPAXI@Z 10007c40 f i Auth.obj
 0001:00006c40       ??_E?$basic_ostream@DU?$char_traits@D@std@@@std@@UAEPAXI@Z 10007c40 f i Auth.obj
 0001:00006c80       ??_E?$basic_ios@DU?$char_traits@D@std@@@std@@UAEPAXI@Z 10007c80 f i Auth.obj
 0001:00006c80       ??_G?$basic_ios@DU?$char_traits@D@std@@@std@@UAEPAXI@Z 10007c80 f i Auth.obj
 0001:00006cb0       ??_E?$basic_istream@DU?$char_traits@D@std@@@std@@UAEPAXI@Z 10007cb0 f i Auth.obj
 0001:00006cb0       ??_G?$basic_istream@DU?$char_traits@D@std@@@std@@UAEPAXI@Z 10007cb0 f i Auth.obj
 0001:00006cf0       ??_G?$basic_streambuf@DU?$char_traits@D@std@@@std@@UAEPAXI@Z 10007cf0 f i Auth.obj
 0001:00006cf0       ??_E?$basic_streambuf@DU?$char_traits@D@std@@@std@@UAEPAXI@Z 10007cf0 f i Auth.obj
 0001:00006d20       ??_Glocale@std@@QAEPAXI@Z  10007d20 f i Auth.obj
 0001:00006d50       ??_D?$basic_ostream@DU?$char_traits@D@std@@@std@@QAEXXZ 10007d50 f i Auth.obj
 0001:00006d80       ??_D?$basic_istream@DU?$char_traits@D@std@@@std@@QAEXXZ 10007d80 f i Auth.obj
 0001:00006db0       ?assign@?$basic_string@DU?$char_traits@D@std@@V?$allocator@D@2@@std@@QAEAAV12@$$QAV12@@Z 10007db0 f i Auth.obj
 0001:00006e80       ?move@?$char_traits@D@std@@SAPADPADPBDI@Z 10007e80 f i Auth.obj
 0001:00006ea0       ?assign@?$basic_string@DU?$char_traits@D@std@@V?$allocator@D@2@@std@@QAEAAV12@PBD@Z 10007ea0 f i Auth.obj
 0001:00006ed0       ?length@?$char_traits@D@std@@SAIPBD@Z 10007ed0 f i Auth.obj
 0001:00006ef0       ?_Tidy@?$basic_string@DU?$char_traits@D@std@@V?$allocator@D@2@@std@@QAEX_NI@Z 10007ef0 f i Auth.obj
 0001:00006f70       ??0?$_String_val@DV?$allocator@D@std@@@std@@QAE@V?$allocator@D@1@@Z 10007f70 f i Auth.obj
 0001:00006f90       ?_Tidy@?$_Yarn@D@std@@AAEXXZ 10007f90 f i Auth.obj
 0001:00006fc0       ?clear@?$basic_ios@DU?$char_traits@D@std@@@std@@QAEXH_N@Z 10007fc0 f i Auth.obj
 0001:00007000       ?sputc@?$basic_streambuf@DU?$char_traits@D@std@@@std@@QAEHD@Z 10008000 f i Auth.obj
 0001:00007070       ?gptr@?$basic_streambuf@DU?$char_traits@D@std@@@std@@IBEPADXZ 10008070 f i Auth.obj
 0001:00007090       ?pptr@?$basic_streambuf@DU?$char_traits@D@std@@@std@@IBEPADXZ 10008090 f i Auth.obj
 0001:000070b0       ?gbump@?$basic_streambuf@DU?$char_traits@D@std@@@std@@IAEXH@Z 100080b0 f i Auth.obj
 0001:000070f0       ?_Gninc@?$basic_streambuf@DU?$char_traits@D@std@@@std@@IAEPADXZ 100080f0 f i Auth.obj
 0001:00007140       ?_Gnavail@?$basic_streambuf@DU?$char_traits@D@std@@@std@@IBE_JXZ 10008140 f i Auth.obj
 0001:00007170       ?pbump@?$basic_streambuf@DU?$char_traits@D@std@@@std@@IAEXH@Z 10008170 f i Auth.obj
 0001:000071b0       ?_Pnavail@?$basic_streambuf@DU?$char_traits@D@std@@@std@@IBE_JXZ 100081b0 f i Auth.obj
 0001:000071e0       ??0sentry@?$basic_ostream@DU?$char_traits@D@std@@@std@@QAE@AAV12@@Z 100081e0 f i Auth.obj
 0001:00007290       ?good@ios_base@std@@QBE_NXZ 10008290 f i Auth.obj
 0001:000072b0       ?flush@?$basic_ostream@DU?$char_traits@D@std@@@std@@QAEAAV12@XZ 100082b0 f i Auth.obj
 0001:00007320       ?fail@ios_base@std@@QBE_NXZ 10008320 f i Auth.obj
 0001:00007340       ?pubsync@?$basic_streambuf@DU?$char_traits@D@std@@@std@@QAEHXZ 10008340 f i Auth.obj
 0001:00007360       ??1sentry@?$basic_ostream@DU?$char_traits@D@std@@@std@@QAE@XZ 10008360 f i Auth.obj
 0001:000073c0       ??0?$fpos@H@std@@QAE@_J@Z  100083c0 f i Auth.obj
 0001:00007400       ??4?$basic_string@DU?$char_traits@D@std@@V?$allocator@D@2@@std@@QAEAAV01@ABV01@@Z 10008400 f i Auth.obj
 0001:00007420       ?assign@?$basic_string@DU?$char_traits@D@std@@V?$allocator@D@2@@std@@QAEAAV12@PBDI@Z 10008420 f i Auth.obj
 0001:000074a0       ?insert@?$basic_string@DU?$char_traits@D@std@@V?$allocator@D@2@@std@@QAEAAV12@IID@Z 100084a0 f i Auth.obj
 0001:00007560       ?get_allocator@?$basic_string@DU?$char_traits@D@std@@V?$allocator@D@2@@std@@QBE?AV?$allocator@D@2@XZ 10008560 f i Auth.obj
 0001:00007580       ?_Eos@?$basic_string@DU?$char_traits@D@std@@V?$allocator@D@2@@std@@QAEXI@Z 10008580 f i Auth.obj
 0001:000075c0       ?assign@?$char_traits@D@std@@SAXAADABD@Z 100085c0 f i Auth.obj
 0001:000075d0       ?_Myptr@?$basic_string@DU?$char_traits@D@std@@V?$allocator@D@2@@std@@QBEPBDXZ 100085d0 f i Auth.obj
 0001:000075d0       ?_Myptr@?$basic_string@DU?$char_traits@D@std@@V?$allocator@D@2@@std@@QAEPADXZ 100085d0 f i Auth.obj
 0001:00007600       ?_Xran@?$basic_string@DU?$char_traits@D@std@@V?$allocator@D@2@@std@@QBEXXZ 10008600 f i Auth.obj
 0001:00007620       ?_Osfx@?$basic_ostream@DU?$char_traits@D@std@@@std@@QAEXXZ 10008620 f i Auth.obj
 0001:000076a0       ?tie@?$basic_ios@DU?$char_traits@D@std@@@std@@QBEPAV?$basic_ostream@DU?$char_traits@D@std@@@2@XZ 100086a0 f i Auth.obj
 0001:000076c0       ?_Pninc@?$basic_streambuf@DU?$char_traits@D@std@@@std@@IAEPADXZ 100086c0 f i Auth.obj
 0001:00007710       ??1_Sentry_base@?$basic_ostream@DU?$char_traits@D@std@@@std@@QAE@XZ 10008710 f i Auth.obj
 0001:00007710       ??1_Sentry_base@?$basic_istream@DU?$char_traits@D@std@@@std@@QAE@XZ 10008710 f i PatchMW2LocalizedStrings.obj
 0001:00007760       ?assign@?$basic_string@DU?$char_traits@D@std@@V?$allocator@D@2@@std@@QAEAAV12@ABV12@@Z 10008760 f i Auth.obj
 0001:00007790       ?assign@?$basic_string@DU?$char_traits@D@std@@V?$allocator@D@2@@std@@QAEAAV12@ABV12@II@Z 10008790 f i Auth.obj
 0001:00007850       ?_Chassign@?$basic_string@DU?$char_traits@D@std@@V?$allocator@D@2@@std@@QAEXIID@Z 10008850 f i Auth.obj
 0001:000078a0       ?assign@?$char_traits@D@std@@SAPADPADID@Z 100088a0 f i Auth.obj
 0001:000078c0       ?_Grow@?$basic_string@DU?$char_traits@D@std@@V?$allocator@D@2@@std@@QAE_NI_N@Z 100088c0 f i Auth.obj
 0001:00007960       ?_Inside@?$basic_string@DU?$char_traits@D@std@@V?$allocator@D@2@@std@@QAE_NPBD@Z 10008960 f i Auth.obj
 0001:000079a0       ?_Xlen@?$basic_string@DU?$char_traits@D@std@@V?$allocator@D@2@@std@@QBEXXZ 100089a0 f i Auth.obj
 0001:000079c0       ?erase@?$basic_string@DU?$char_traits@D@std@@V?$allocator@D@2@@std@@QAEAAV12@II@Z 100089c0 f i Auth.obj
 0001:00007a50       ?max_size@?$basic_string@DU?$char_traits@D@std@@V?$allocator@D@2@@std@@QBEIXZ 10008a50 f i Auth.obj
 0001:00007a90       ?_Copy@?$basic_string@DU?$char_traits@D@std@@V?$allocator@D@2@@std@@QAEXII@Z 10008a90 f i Auth.obj
 0001:00007c10       ?allocate@?$allocator@D@std@@QAEPADI@Z 10008c10 f i Auth.obj
 0001:00007c30       ?max_size@?$allocator@D@std@@QBEIXZ 10008c30 f i Auth.obj
 0001:00007c60       ??$use_facet@V?$ctype@D@std@@@std@@YAABV?$ctype@D@0@ABVlocale@0@@Z 10008c60 f i Auth.obj
 0001:00007d50       ?_Getcat@?$ctype@D@std@@SAIPAPBVfacet@locale@2@PBV42@@Z 10008d50 f i Auth.obj
 0001:00007e30       ??0?$ctype@D@std@@QAE@ABV_Locinfo@1@I@Z 10008e30 f i Auth.obj
 0001:00007e90       ??0ctype_base@std@@QAE@I@Z 10008e90 f i Auth.obj
 0001:00007ec0       ??1ctype_base@std@@UAE@XZ  10008ec0 f i Auth.obj
 0001:00007ee0       ??_Ectype_base@std@@UAEPAXI@Z 10008ee0 f i Auth.obj
 0001:00007ee0       ??_Gctype_base@std@@UAEPAXI@Z 10008ee0 f i Auth.obj
 0001:00007f10       ?_Init@?$ctype@D@std@@IAEXABV_Locinfo@2@@Z 10008f10 f i Auth.obj
 0001:00007f50       ?_Getctype@_Locinfo@std@@QBE?AU_Ctypevec@@XZ 10008f50 f i Auth.obj
 0001:00007fa0       ?do_tolower@?$ctype@D@std@@MBEDD@Z 10008fa0 f i Auth.obj
 0001:00007fd0       ?do_tolower@?$ctype@D@std@@MBEPBDPADPBD@Z 10008fd0 f i Auth.obj
 0001:00008010       ?do_toupper@?$ctype@D@std@@MBEDD@Z 10009010 f i Auth.obj
 0001:00008040       ?do_toupper@?$ctype@D@std@@MBEPBDPADPBD@Z 10009040 f i Auth.obj
 0001:00008080       ?do_widen@?$ctype@D@std@@MBEDD@Z 10009080 f i Auth.obj
 0001:00008090       ?do_widen@?$ctype@D@std@@MBEPBDPBD0PAD@Z 10009090 f i Auth.obj
 0001:000080c0       ?do_narrow@?$ctype@D@std@@MBEDDD@Z 100090c0 f i Auth.obj
 0001:000080d0       ?do_narrow@?$ctype@D@std@@MBEPBDPBD0DPAD@Z 100090d0 f i Auth.obj
 0001:00008100       ??_E?$ctype@D@std@@MAEPAXI@Z 10009100 f i Auth.obj
 0001:00008100       ??_G?$ctype@D@std@@MAEPAXI@Z 10009100 f i Auth.obj
 0001:00008130       ??1?$ctype@D@std@@MAE@XZ   10009130 f i Auth.obj
 0001:00008190       ?_Tidy@?$ctype@D@std@@IAEXXZ 10009190 f i Auth.obj
 0001:000081e0       ??$?6U?$char_traits@D@std@@@std@@YAAAV?$basic_ostream@DU?$char_traits@D@std@@@0@AAV10@PBD@Z 100091e0 f i Auth.obj
 0001:00008530       ??$_Allocate@D@std@@YAPADIPAD@Z 10009530 f i Auth.obj
 0001:00008590       ??0bad_alloc@std@@QAE@PBD@Z 10009590 f i Auth.obj
 0001:000085c0       ??1bad_alloc@std@@UAE@XZ   100095c0 f i Auth.obj
 0001:000085e0       ??_Gbad_alloc@std@@UAEPAXI@Z 100095e0 f i Auth.obj
 0001:000085e0       ??_Ebad_alloc@std@@UAEPAXI@Z 100095e0 f i Auth.obj
 0001:00008610       ??0bad_alloc@std@@QAE@ABV01@@Z 10009610 f i Auth.obj
 0001:00008640       ?fill@?$basic_ios@DU?$char_traits@D@std@@@std@@QBEDXZ 10009640 f i Auth.obj
 0001:00008660       ?sputn@?$basic_streambuf@DU?$char_traits@D@std@@@std@@QAE_JPBD_J@Z 10009660 f i Auth.obj
 0001:00008690       ??$?8PAUmenuDef_t@@PAU0@@std@@YA_NABV?$allocator@PAUmenuDef_t@@@0@0@Z 10009690 f i PatchMW2UILoading.obj
 0001:00008690       ??$?8DD@std@@YA_NABV?$allocator@D@0@0@Z 10009690 f i Auth.obj
 0001:00008690       ??$?8V?$basic_string@DU?$char_traits@D@std@@V?$allocator@D@2@@std@@V01@@std@@YA_NABV?$allocator@V?$basic_string@DU?$char_traits@D@std@@V?$allocator@D@2@@std@@@0@0@Z 10009690 f i PatchMW2UIScriptsFix.obj
 0001:00008690       ??$?8Udownload_s@@U0@@std@@YA_NABV?$allocator@Udownload_s@@@0@0@Z 10009690 f i PatchMW2DownloadCL.obj
 0001:000086a0       ?_Rechecked@?$_Vector_iterator@V?$_Vector_val@V?$basic_string@DU?$char_traits@D@std@@V?$allocator@D@2@@std@@V?$allocator@V?$basic_string@DU?$char_traits@D@std@@V?$allocator@D@2@@std@@@2@@std@@@std@@QAEAAV12@PAV?$basic_string@DU?$char_traits@D@std@@V?$allocator@D@2@@2@@Z 100096a0 f i PatchMW2Packet.obj
 0001:000086a0       ??0TiXmlHandle@@QAE@PAVTiXmlNode@@@Z 100096a0 f i PatchMW2DownloadCL.obj
 0001:000086a0       ??0id@locale@std@@QAE@I@Z  100096a0 f i Auth.obj
 0001:000086a0       ??0?$back_insert_iterator@V?$deque@U?$pair@PAEPAE@std@@V?$allocator@U?$pair@PAEPAE@std@@@2@@std@@@std@@QAE@AAV?$deque@U?$pair@PAEPAE@std@@V?$allocator@U?$pair@PAEPAE@std@@@2@@1@@Z 100096a0 f i PatchMW2StringTable.obj
 0001:000086a0       ??0?$auto_ptr@VDynamicLibrary@@@std@@QAE@PAVDynamicLibrary@@@Z 100096a0 f i SteamProxy.obj
 0001:000086c0       ?flipAndCodeBytes@@YAPADPAD@Z 100096c0 f   diskinfo.obj
 0001:00008900       ?ReadPhysicalDriveInNTWithZeroRights@@YAXXZ 10009900 f   diskinfo.obj
 0001:00008a50       ?GetDriveSerialNumber@@YAPADXZ 10009a50 f   diskinfo.obj
 0001:00008a80       ?DLCInstaller_Register@@YAXXZ 10009a80 f   DLCInstaller.obj
 0001:00008d10       ?DLCInstaller_Install@@YAXPB_W@Z 10009d10 f   DLCInstaller.obj
 0001:00009060       ?DLCInstaller_Run@@YAXXZ   1000a060 f   DLCInstaller.obj
 0001:000090e0       ?strrchr@@YAPADPADH@Z      1000a0e0 f i DLCInstaller.obj
 0001:00009100       ?wcsrchr@@YAPA_WPA_W_W@Z   1000a100 f i DLCInstaller.obj
 0001:00009120       ?swprintf@@YAHPA_WPB_WZZ   1000a120 f i DLCInstaller.obj
 0001:00009160       ??$swprintf_s@$0EAA@@@YAHAAY0EAA@_WPB_WZZ 1000a160 f i DLCInstaller.obj
 0001:00009190       ??$wcscpy_s@$0BAE@@@YAHAAY0BAE@_WPB_W@Z 1000a190 f i DLCInstaller.obj
 0001:000091b0       ?Ext_Initialize@@YAXXZ     1000a1b0 f   ExtScript.obj
 0001:000091c0       ?Ext_Initialized@@YA_NXZ   1000a1c0 f   ExtScript.obj
 0001:000091d0       ?Ext_HandleWebRequest@@YAXPAUmg_connection@@PBUmg_request_info@@@Z 1000a1d0 f   ExtScript.obj
 0001:000091e0       ?Scriptability_HandleReturns@@YAXXZ 1000a1e0 f   GameInterface.obj
 0001:00009210       _GI_PushInt                1000a210 f   GameInterface.obj
 0001:00009230       _GI_PushFloat              1000a230 f   GameInterface.obj
 0001:00009250       _GI_PushEntRef             1000a250 f   GameInterface.obj
 0001:00009270       _GI_PushVector             1000a270 f   GameInterface.obj
 0001:000092a0       _findFunc                  1000a2a0 f   GameInterface.obj
 0001:00009370       _GI_Call                   1000a370 f   GameInterface.obj
 0001:000094b0       _GI_SetField               1000a4b0 f   GameInterface.obj
 0001:00009540       _GI_GetField               1000a540 f   GameInterface.obj
 0001:000095b0       _GI_TempFunc               1000a5b0 f   GameInterface.obj
 0001:000097c0       _GI_GetObjectType          1000a7c0 f   GameInterface.obj
 0001:000097f0       _GI_SetDropItemEnabled     1000a7f0 f   GameInterface.obj
 0001:00009800       _GI_ToEntRef               1000a800 f   GameInterface.obj
 0001:00009830       _GI_GetEntRef              1000a830 f   GameInterface.obj
 0001:00009860       _GI_GetType                1000a860 f   GameInterface.obj
 0001:00009880       _GI_NotifyNumArgs          1000a880 f   GameInterface.obj
 0001:00009890       _GI_Cmd_Argc               1000a890 f   GameInterface.obj
 0001:000098a0       _GI_Cmd_Argc_sv            1000a8a0 f   GameInterface.obj
 0001:000098b0       _GI_GetPing                1000a8b0 f   GameInterface.obj
 0001:000098d0       _GI_GetClientAddress       1000a8d0 f   GameInterface.obj
 0001:00009940       _GI_Cmd_EndTokenizedString 1000a940 f   GameInterface.obj
 0001:00009950       _GI_GetTempEntRef          1000a950 f   GameInterface.obj
 0001:00009990       _GI_GetVector              1000a990 f   GameInterface.obj
 0001:000099c0       _GI_GetInt                 1000a9c0 f   GameInterface.obj
 0001:000099e0       _GI_GetFloat               1000a9e0 f   GameInterface.obj
 0001:00009a00       _GI_CleanReturnStack       1000aa00 f   GameInterface.obj
 0001:00009a40       ??A?$unordered_map@V?$basic_string@DU?$char_traits@D@std@@V?$allocator@D@2@@std@@P6AXH@ZV?$hash@V?$basic_string@DU?$char_traits@D@std@@V?$allocator@D@2@@std@@@2@U?$equal_to@V?$basic_string@DU?$char_traits@D@std@@V?$allocator@D@2@@std@@@2@V?$allocator@U?$pair@$$CBV?$basic_string@DU?$char_traits@D@std@@V?$allocator@D@2@@std@@P6AXH@Z@std@@@2@@tr1@std@@QAEAAP6AXH@ZABV?$basic_string@DU?$char_traits@D@std@@V?$allocator@D@2@@2@@Z 1000aa40 f i GameInterface.obj
 0001:00009af0       ??C?$_List_iterator@V?$_List_val@U?$pair@$$CBV?$basic_string@DU?$char_traits@D@std@@V?$allocator@D@2@@std@@P6AXH@Z@std@@V?$allocator@U?$pair@$$CBV?$basic_string@DU?$char_traits@D@std@@V?$allocator@D@2@@std@@P6AXH@Z@std@@@2@@std@@@std@@QBEPAU?$pair@$$CBV?$basic_string@DU?$char_traits@D@std@@V?$allocator@D@2@@std@@P6AXH@Z@1@XZ 1000aaf0 f i GameInterface.obj
 0001:00009af0       ??C?$_List_iterator@V?$_List_val@U?$pair@$$CBKK@std@@V?$allocator@U?$pair@$$CBKK@std@@@2@@std@@@std@@QBEPAU?$pair@$$CBKK@1@XZ 1000aaf0 f i PatchMW2FilePointers.obj
 0001:00009b10       ??9?$_List_const_iterator@V?$_List_val@U?$pair@$$CB_K_N@std@@V?$allocator@U?$pair@$$CB_K_N@std@@@2@@std@@@std@@QBE_NABV01@@Z 1000ab10 f i SteamBase.obj
 0001:00009b10       ??9?$_List_const_iterator@V?$_List_val@U?$pair@$$CB_KPAVCCallbackBase@@@std@@V?$allocator@U?$pair@$$CB_KPAVCCallbackBase@@@std@@@2@@std@@@std@@QBE_NABV01@@Z 1000ab10 f i SteamBase.obj
 0001:00009b10       ??9?$_Tree_const_iterator@V?$_Tree_val@V?$_Tmap_traits@HPAUnewWeapon@@U?$less@H@std@@V?$allocator@U?$pair@$$CBHPAUnewWeapon@@@std@@@3@$0A@@std@@@std@@@std@@QBE_NABV01@@Z 1000ab10 f i PatchMW2PlayerdataDefinition.obj
 0001:00009b10       ??9?$_List_const_iterator@V?$_List_val@U?$pair@$$CBKPAX@std@@V?$allocator@U?$pair@$$CBKPAX@std@@@2@@std@@@std@@QBE_NABV01@@Z 1000ab10 f i PatchMW2FilePointers.obj
 0001:00009b10       ??9?$_List_const_iterator@V?$_List_val@U?$pair@$$CBV?$basic_string@DU?$char_traits@D@std@@V?$allocator@D@2@@std@@PAUVehicleDef@@@std@@V?$allocator@U?$pair@$$CBV?$basic_string@DU?$char_traits@D@std@@V?$allocator@D@2@@std@@PAUVehicleDef@@@std@@@2@@std@@@std@@QBE_NABV01@@Z 1000ab10 f i PatchMW2LoadVehicleDef.obj
 0001:00009b10       ??9?$_List_const_iterator@V?$_List_val@U?$pair@$$CBV?$basic_string@DU?$char_traits@D@std@@V?$allocator@D@2@@std@@_N@std@@V?$allocator@U?$pair@$$CBV?$basic_string@DU?$char_traits@D@std@@V?$allocator@D@2@@std@@_N@std@@@2@@std@@@std@@QBE_NABV01@@Z 1000ab10 f i PatchMW2Experiments.obj
 0001:00009b10       ??9?$_Tree_const_iterator@V?$_Tree_val@V?$_Tmap_traits@_K_JU?$less@_K@std@@V?$allocator@U?$pair@$$CB_K_J@std@@@2@$0A@@std@@@std@@@std@@QBE_NABV01@@Z 1000ab10 f i PatchMW2PreAuthenticate.obj
 0001:00009b10       ??9?$_List_const_iterator@V?$_List_val@U?$pair@$$CBKK@std@@V?$allocator@U?$pair@$$CBKK@std@@@2@@std@@@std@@QBE_NABV01@@Z 1000ab10 f i PatchMW2FilePointers.obj
 0001:00009b10       ??9?$_List_const_iterator@V?$_List_val@U?$pair@$$CBHUNPFriend@@@std@@V?$allocator@U?$pair@$$CBHUNPFriend@@@std@@@2@@std@@@std@@QBE_NABV01@@Z 1000ab10 f i PatchMW2Friends.obj
 0001:00009b10       ??9?$_List_const_iterator@V?$_List_val@UAttachmentPatch@@V?$allocator@UAttachmentPatch@@@std@@@std@@@std@@QBE_NABV01@@Z 1000ab10 f i PatchMW2PartialWeaponry.obj
 0001:00009b10       ??9?$_Tree_const_iterator@V?$_Tree_val@V?$_Tmap_traits@V?$basic_string@DU?$char_traits@D@std@@V?$allocator@D@2@@std@@Uscr_funcdef_t@@U?$less@V?$basic_string@DU?$char_traits@D@std@@V?$allocator@D@2@@std@@@2@V?$allocator@U?$pair@$$CBV?$basic_string@DU?$char_traits@D@std@@V?$allocator@D@2@@std@@Uscr_funcdef_t@@@std@@@2@$0A@@std@@@std@@@std@@QBE_NABV01@@Z 1000ab10 f i Script.obj
 0001:00009b10       ??9?$_List_const_iterator@V?$_List_val@U?$pair@$$CBV?$basic_string@DU?$char_traits@D@std@@V?$allocator@D@2@@std@@P6AXH@Z@std@@V?$allocator@U?$pair@$$CBV?$basic_string@DU?$char_traits@D@std@@V?$allocator@D@2@@std@@P6AXH@Z@std@@@2@@std@@@std@@QBE_NABV01@@Z 1000ab10 f i GameInterface.obj
 0001:00009b10       ??9?$_List_const_iterator@V?$_List_val@UAssetRelocation@@V?$allocator@UAssetRelocation@@@std@@@std@@@std@@QBE_NABV01@@Z 1000ab10 f i PatchMW2FilePointers.obj
 0001:00009b10       ??9?$_List_const_iterator@V?$_List_val@U?$pair@QAXK@std@@V?$allocator@U?$pair@QAXK@std@@@2@@std@@@std@@QBE_NABV01@@Z 1000ab10 f i PatchMW2FilePointers.obj
 0001:00009b40       ??0?$pair@$$CBV?$basic_string@DU?$char_traits@D@std@@V?$allocator@D@2@@std@@P6AXH@Z@std@@QAE@ABV?$basic_string@DU?$char_traits@D@std@@V?$allocator@D@2@@1@$$QAP6AXH@Z@Z 1000ab40 f i GameInterface.obj
 0001:00009b70       ??R?$_Hash_compare@V?$basic_string@DU?$char_traits@D@std@@V?$allocator@D@2@@std@@V?$hash@V?$basic_string@DU?$char_traits@D@std@@V?$allocator@D@2@@std@@@2@U?$equal_to@V?$basic_string@DU?$char_traits@D@std@@V?$allocator@D@2@@std@@@2@@std@@QBE_NABV?$basic_string@DU?$char_traits@D@std@@V?$allocator@D@2@@1@0@Z 1000ab70 f i GameInterface.obj
 0001:00009ba0       ??0?$_Pair_base@$$CBV?$basic_string@DU?$char_traits@D@std@@V?$allocator@D@2@@std@@P6AXH@Z@std@@QAE@ABV?$basic_string@DU?$char_traits@D@std@@V?$allocator@D@2@@1@$$QAP6AXH@Z@Z 1000aba0 f i GameInterface.obj
 0001:00009c00       ??0?$basic_string@DU?$char_traits@D@std@@V?$allocator@D@2@@std@@QAE@ABV01@@Z 1000ac00 f i GameInterface.obj
 0001:00009c80       ??R?$_Hash_compare@V?$basic_string@DU?$char_traits@D@std@@V?$allocator@D@2@@std@@V?$hash@V?$basic_string@DU?$char_traits@D@std@@V?$allocator@D@2@@std@@@2@U?$equal_to@V?$basic_string@DU?$char_traits@D@std@@V?$allocator@D@2@@std@@@2@@std@@QBEIABV?$basic_string@DU?$char_traits@D@std@@V?$allocator@D@2@@1@@Z 1000ac80 f i GameInterface.obj
 0001:00009ca0       ??R?$equal_to@V?$basic_string@DU?$char_traits@D@std@@V?$allocator@D@2@@std@@@std@@QBE_NABV?$basic_string@DU?$char_traits@D@std@@V?$allocator@D@2@@1@0@Z 1000aca0 f i GameInterface.obj
 0001:00009cc0       ??$insert@U?$pair@$$CBV?$basic_string@DU?$char_traits@D@std@@V?$allocator@D@2@@std@@P6AXH@Z@std@@@?$_Hash@V?$_Umap_traits@V?$basic_string@DU?$char_traits@D@std@@V?$allocator@D@2@@std@@P6AXH@ZV?$_Hash_compare@V?$basic_string@DU?$char_traits@D@std@@V?$allocator@D@2@@std@@V?$hash@V?$basic_string@DU?$char_traits@D@std@@V?$allocator@D@2@@std@@@2@U?$equal_to@V?$basic_string@DU?$char_traits@D@std@@V?$allocator@D@2@@std@@@2@@2@V?$allocator@U?$pair@$$CBV?$basic_string@DU?$char_traits@D@std@@V?$allocator@D@2@@std@@P6AXH@Z@std@@@2@$0A@@tr1@std@@@std@@QAE?AU?$pair@V?$_List_iterator@V?$_List_val@U?$pair@$$CBV?$basic_string@DU?$char_traits@D@std@@V?$allocator@D@2@@std@@P6AXH@Z@std@@V?$allocator@U?$pair@$$CBV?$basic_string@DU?$char_traits@D@std@@V?$allocator@D@2@@std@@P6AXH@Z@std@@@2@@std@@@std@@_N@1@$$QAU?$pair@$$CBV?$basic_string@DU?$char_traits@D@std@@V?$allocator@D@2@@std@@P6AXH@Z@1@@Z 1000acc0 f i GameInterface.obj
 0001:00009d20       ??$?8DU?$char_traits@D@std@@V?$allocator@D@1@@std@@YA_NABV?$basic_string@DU?$char_traits@D@std@@V?$allocator@D@2@@0@0@Z 1000ad20 f i GameInterface.obj
 0001:00009d40       ?begin@?$_Hash@V?$_Umap_traits@KPAXV?$_Hash_compare@KV?$hash@K@std@@U?$equal_to@K@2@@std@@V?$allocator@U?$pair@$$CBKPAX@std@@@2@$0A@@tr1@std@@@std@@QAE?AV?$_List_iterator@V?$_List_val@U?$pair@$$CBKPAX@std@@V?$allocator@U?$pair@$$CBKPAX@std@@@2@@std@@@2@XZ 1000ad40 f i PatchMW2FilePointers.obj
 0001:00009d40       ?begin@?$_Hash@V?$_Umap_traits@V?$basic_string@DU?$char_traits@D@std@@V?$allocator@D@2@@std@@_NV?$_Hash_compare@V?$basic_string@DU?$char_traits@D@std@@V?$allocator@D@2@@std@@V?$hash@V?$basic_string@DU?$char_traits@D@std@@V?$allocator@D@2@@std@@@2@U?$equal_to@V?$basic_string@DU?$char_traits@D@std@@V?$allocator@D@2@@std@@@2@@2@V?$allocator@U?$pair@$$CBV?$basic_string@DU?$char_traits@D@std@@V?$allocator@D@2@@std@@_N@std@@@2@$0A@@tr1@std@@@std@@QAE?AV?$_List_iterator@V?$_List_val@U?$pair@$$CBV?$basic_string@DU?$char_traits@D@std@@V?$allocator@D@2@@std@@_N@std@@V?$allocator@U?$pair@$$CBV?$basic_string@DU?$char_traits@D@std@@V?$allocator@D@2@@std@@_N@std@@@2@@std@@@2@XZ 1000ad40 f i PatchMW2Experiments.obj
 0001:00009d40       ?begin@?$_Hash@V?$_Umap_traits@_KPAVCCallbackBase@@V?$_Hash_compare@_KV?$hash@_K@std@@U?$equal_to@_K@2@@std@@V?$allocator@U?$pair@$$CB_KPAVCCallbackBase@@@std@@@3@$0A@@tr1@std@@@std@@QAE?AV?$_List_iterator@V?$_List_val@U?$pair@$$CB_KPAVCCallbackBase@@@std@@V?$allocator@U?$pair@$$CB_KPAVCCallbackBase@@@std@@@2@@std@@@2@XZ 1000ad40 f i SteamBase.obj
 0001:00009d40       ?begin@?$_Hash@V?$_Umap_traits@KKV?$_Hash_compare@KV?$hash@K@std@@U?$equal_to@K@2@@std@@V?$allocator@U?$pair@$$CBKK@std@@@2@$0A@@tr1@std@@@std@@QAE?AV?$_List_iterator@V?$_List_val@U?$pair@$$CBKK@std@@V?$allocator@U?$pair@$$CBKK@std@@@2@@std@@@2@XZ 1000ad40 f i PatchMW2FilePointers.obj
 0001:00009d40       ?begin@?$_Hash@V?$_Umap_traits@HUNPFriend@@V?$_Hash_compare@HV?$hash@H@std@@U?$equal_to@H@2@@std@@V?$allocator@U?$pair@$$CBHUNPFriend@@@std@@@3@$0A@@tr1@std@@@std@@QAE?AV?$_List_iterator@V?$_List_val@U?$pair@$$CBHUNPFriend@@@std@@V?$allocator@U?$pair@$$CBHUNPFriend@@@std@@@2@@std@@@2@XZ 1000ad40 f i PatchMW2Friends.obj
 0001:00009d40       ?begin@?$_Hash@V?$_Umap_traits@PAXKV?$_Hash_compare@PAXV?$hash@PAX@std@@U?$equal_to@PAX@2@@std@@V?$allocator@U?$pair@QAXK@std@@@2@$0A@@tr1@std@@@std@@QAE?AV?$_List_iterator@V?$_List_val@U?$pair@QAXK@std@@V?$allocator@U?$pair@QAXK@std@@@2@@std@@@2@XZ 1000ad40 f i PatchMW2FilePointers.obj
 0001:00009d40       ?begin@?$_Hash@V?$_Umap_traits@V?$basic_string@DU?$char_traits@D@std@@V?$allocator@D@2@@std@@PAUVehicleDef@@V?$_Hash_compare@V?$basic_string@DU?$char_traits@D@std@@V?$allocator@D@2@@std@@V?$hash@V?$basic_string@DU?$char_traits@D@std@@V?$allocator@D@2@@std@@@2@U?$equal_to@V?$basic_string@DU?$char_traits@D@std@@V?$allocator@D@2@@std@@@2@@2@V?$allocator@U?$pair@$$CBV?$basic_string@DU?$char_traits@D@std@@V?$allocator@D@2@@std@@PAUVehicleDef@@@std@@@2@$0A@@tr1@std@@@std@@QAE?AV?$_List_iterator@V?$_List_val@U?$pair@$$CBV?$basic_string@DU?$char_traits@D@std@@V?$allocator@D@2@@std@@PAUVehicleDef@@@std@@V?$allocator@U?$pair@$$CBV?$basic_string@DU?$char_traits@D@std@@V?$allocator@D@2@@std@@PAUVehicleDef@@@std@@@2@@std@@@2@XZ 1000ad40 f i PatchMW2LoadVehicleDef.obj
 0001:00009d40       ?begin@?$_Hash@V?$_Umap_traits@V?$basic_string@DU?$char_traits@D@std@@V?$allocator@D@2@@std@@P6AXH@ZV?$_Hash_compare@V?$basic_string@DU?$char_traits@D@std@@V?$allocator@D@2@@std@@V?$hash@V?$basic_string@DU?$char_traits@D@std@@V?$allocator@D@2@@std@@@2@U?$equal_to@V?$basic_string@DU?$char_traits@D@std@@V?$allocator@D@2@@std@@@2@@2@V?$allocator@U?$pair@$$CBV?$basic_string@DU?$char_traits@D@std@@V?$allocator@D@2@@std@@P6AXH@Z@std@@@2@$0A@@tr1@std@@@std@@QAE?AV?$_List_iterator@V?$_List_val@U?$pair@$$CBV?$basic_string@DU?$char_traits@D@std@@V?$allocator@D@2@@std@@P6AXH@Z@std@@V?$allocator@U?$pair@$$CBV?$basic_string@DU?$char_traits@D@std@@V?$allocator@D@2@@std@@P6AXH@Z@std@@@2@@std@@@2@XZ 1000ad40 f i GameInterface.obj
 0001:00009d40       ?begin@?$_Hash@V?$_Umap_traits@_K_NV?$_Hash_compare@_KV?$hash@_K@std@@U?$equal_to@_K@2@@std@@V?$allocator@U?$pair@$$CB_K_N@std@@@2@$0A@@tr1@std@@@std@@QAE?AV?$_List_iterator@V?$_List_val@U?$pair@$$CB_K_N@std@@V?$allocator@U?$pair@$$CB_K_N@std@@@2@@std@@@2@XZ 1000ad40 f i SteamBase.obj
 0001:00009d60       ?_Insert@?$_Hash@V?$_Umap_traits@V?$basic_string@DU?$char_traits@D@std@@V?$allocator@D@2@@std@@P6AXH@ZV?$_Hash_compare@V?$basic_string@DU?$char_traits@D@std@@V?$allocator@D@2@@std@@V?$hash@V?$basic_string@DU?$char_traits@D@std@@V?$allocator@D@2@@std@@@2@U?$equal_to@V?$basic_string@DU?$char_traits@D@std@@V?$allocator@D@2@@std@@@2@@2@V?$allocator@U?$pair@$$CBV?$basic_string@DU?$char_traits@D@std@@V?$allocator@D@2@@std@@P6AXH@Z@std@@@2@$0A@@tr1@std@@@std@@IAE?AU?$pair@V?$_List_iterator@V?$_List_val@U?$pair@$$CBV?$basic_string@DU?$char_traits@D@std@@V?$allocator@D@2@@std@@P6AXH@Z@std@@V?$allocator@U?$pair@$$CBV?$basic_string@DU?$char_traits@D@std@@V?$allocator@D@2@@std@@P6AXH@Z@std@@@2@@std@@@std@@_N@2@ABU?$pair@$$CBV?$basic_string@DU?$char_traits@D@std@@V?$allocator@D@2@@std@@P6AXH@Z@2@V?$_List_iterator@V?$_List_val@U?$pair@$$CBV?$basic_string@DU?$char_traits@D@std@@V?$allocator@D@2@@std@@P6AXH@Z@std@@V?$allocator@U?$pair@$$CBV?$basic_string@DU?$char_traits@D@std@@V?$allocator@D@2@@std@@P6AXH@Z@std@@@2@@std@@@2@@Z 1000ad60 f i GameInterface.obj
 0001:00009ef0       ?_Check_size@?$_Hash@V?$_Umap_traits@V?$basic_string@DU?$char_traits@D@std@@V?$allocator@D@2@@std@@P6AXH@ZV?$_Hash_compare@V?$basic_string@DU?$char_traits@D@std@@V?$allocator@D@2@@std@@V?$hash@V?$basic_string@DU?$char_traits@D@std@@V?$allocator@D@2@@std@@@2@U?$equal_to@V?$basic_string@DU?$char_traits@D@std@@V?$allocator@D@2@@std@@@2@@2@V?$allocator@U?$pair@$$CBV?$basic_string@DU?$char_traits@D@std@@V?$allocator@D@2@@std@@P6AXH@Z@std@@@2@$0A@@tr1@std@@@std@@IAEXXZ 1000aef0 f i GameInterface.obj
 0001:00009f90       ?_Init@?$_Hash@V?$_Umap_traits@V?$basic_string@DU?$char_traits@D@std@@V?$allocator@D@2@@std@@P6AXH@ZV?$_Hash_compare@V?$basic_string@DU?$char_traits@D@std@@V?$allocator@D@2@@std@@V?$hash@V?$basic_string@DU?$char_traits@D@std@@V?$allocator@D@2@@std@@@2@U?$equal_to@V?$basic_string@DU?$char_traits@D@std@@V?$allocator@D@2@@std@@@2@@2@V?$allocator@U?$pair@$$CBV?$basic_string@DU?$char_traits@D@std@@V?$allocator@D@2@@std@@P6AXH@Z@std@@@2@$0A@@tr1@std@@@std@@IAEXI@Z 1000af90 f i GameInterface.obj
 0001:00009fe0       ?assign@?$vector@V?$_List_iterator@V?$_List_val@U?$pair@$$CBV?$basic_string@DU?$char_traits@D@std@@V?$allocator@D@2@@std@@P6AXH@Z@std@@V?$allocator@U?$pair@$$CBV?$basic_string@DU?$char_traits@D@std@@V?$allocator@D@2@@std@@P6AXH@Z@std@@@2@@std@@@std@@V?$allocator@V?$_List_iterator@V?$_List_val@U?$pair@$$CBV?$basic_string@DU?$char_traits@D@std@@V?$allocator@D@2@@std@@P6AXH@Z@std@@V?$allocator@U?$pair@$$CBV?$basic_string@DU?$char_traits@D@std@@V?$allocator@D@2@@std@@P6AXH@Z@std@@@2@@std@@@std@@@2@@std@@QAEXIABV?$_List_iterator@V?$_List_val@U?$pair@$$CBV?$basic_string@DU?$char_traits@D@std@@V?$allocator@D@2@@std@@P6AXH@Z@std@@V?$allocator@U?$pair@$$CBV?$basic_string@DU?$char_traits@D@std@@V?$allocator@D@2@@std@@P6AXH@Z@std@@@2@@std@@@2@@Z 1000afe0 f i GameInterface.obj
 0001:0000a000       ?_Assign_n@?$vector@V?$_List_iterator@V?$_List_val@U?$pair@$$CBV?$basic_string@DU?$char_traits@D@std@@V?$allocator@D@2@@std@@P6AXH@Z@std@@V?$allocator@U?$pair@$$CBV?$basic_string@DU?$char_traits@D@std@@V?$allocator@D@2@@std@@P6AXH@Z@std@@@2@@std@@@std@@V?$allocator@V?$_List_iterator@V?$_List_val@U?$pair@$$CBV?$basic_string@DU?$char_traits@D@std@@V?$allocator@D@2@@std@@P6AXH@Z@std@@V?$allocator@U?$pair@$$CBV?$basic_string@DU?$char_traits@D@std@@V?$allocator@D@2@@std@@P6AXH@Z@std@@@2@@std@@@std@@@2@@std@@IAEXIABV?$_List_iterator@V?$_List_val@U?$pair@$$CBV?$basic_string@DU?$char_traits@D@std@@V?$allocator@D@2@@std@@P6AXH@Z@std@@V?$allocator@U?$pair@$$CBV?$basic_string@DU?$char_traits@D@std@@V?$allocator@D@2@@std@@P6AXH@Z@std@@@2@@std@@@2@@Z 1000b000 f i GameInterface.obj
 0001:0000a080       ?insert@?$vector@V?$_List_iterator@V?$_List_val@U?$pair@$$CBV?$basic_string@DU?$char_traits@D@std@@V?$allocator@D@2@@std@@P6AXH@Z@std@@V?$allocator@U?$pair@$$CBV?$basic_string@DU?$char_traits@D@std@@V?$allocator@D@2@@std@@P6AXH@Z@std@@@2@@std@@@std@@V?$allocator@V?$_List_iterator@V?$_List_val@U?$pair@$$CBV?$basic_string@DU?$char_traits@D@std@@V?$allocator@D@2@@std@@P6AXH@Z@std@@V?$allocator@U?$pair@$$CBV?$basic_string@DU?$char_traits@D@std@@V?$allocator@D@2@@std@@P6AXH@Z@std@@@2@@std@@@std@@@2@@std@@QAEXV?$_Vector_const_iterator@V?$_Vector_val@V?$_List_iterator@V?$_List_val@U?$pair@$$CBV?$basic_string@DU?$char_traits@D@std@@V?$allocator@D@2@@std@@P6AXH@Z@std@@V?$allocator@U?$pair@$$CBV?$basic_string@DU?$char_traits@D@std@@V?$allocator@D@2@@std@@P6AXH@Z@std@@@2@@std@@@std@@V?$allocator@V?$_List_iterator@V?$_List_val@U?$pair@$$CBV?$basic_string@DU?$char_traits@D@std@@V?$allocator@D@2@@std@@P6AXH@Z@std@@V?$allocator@U?$pair@$$CBV?$basic_string@DU?$char_traits@D@std@@V?$allocator@D@2@@std@@P6AXH@Z@std@@@2@@std@@@std@@@2@@std@@@2@IABV?$_List_iterator@V?$_List_val@U?$pair@$$CBV?$basic_string@DU?$char_traits@D@std@@V?$allocator@D@2@@std@@P6AXH@Z@std@@V?$allocator@U?$pair@$$CBV?$basic_string@DU?$char_traits@D@std@@V?$allocator@D@2@@std@@P6AXH@Z@std@@@2@@std@@@2@@Z 1000b080 f i GameInterface.obj
 0001:0000a0b0       ?_Insert_n@?$vector@V?$_List_iterator@V?$_List_val@U?$pair@$$CBV?$basic_string@DU?$char_traits@D@std@@V?$allocator@D@2@@std@@P6AXH@Z@std@@V?$allocator@U?$pair@$$CBV?$basic_string@DU?$char_traits@D@std@@V?$allocator@D@2@@std@@P6AXH@Z@std@@@2@@std@@@std@@V?$allocator@V?$_List_iterator@V?$_List_val@U?$pair@$$CBV?$basic_string@DU?$char_traits@D@std@@V?$allocator@D@2@@std@@P6AXH@Z@std@@V?$allocator@U?$pair@$$CBV?$basic_string@DU?$char_traits@D@std@@V?$allocator@D@2@@std@@P6AXH@Z@std@@@2@@std@@@std@@@2@@std@@IAEXV?$_Vector_const_iterator@V?$_Vector_val@V?$_List_iterator@V?$_List_val@U?$pair@$$CBV?$basic_string@DU?$char_traits@D@std@@V?$allocator@D@2@@std@@P6AXH@Z@std@@V?$allocator@U?$pair@$$CBV?$basic_string@DU?$char_traits@D@std@@V?$allocator@D@2@@std@@P6AXH@Z@std@@@2@@std@@@std@@V?$allocator@V?$_List_iterator@V?$_List_val@U?$pair@$$CBV?$basic_string@DU?$char_traits@D@std@@V?$allocator@D@2@@std@@P6AXH@Z@std@@V?$allocator@U?$pair@$$CBV?$basic_string@DU?$char_traits@D@std@@V?$allocator@D@2@@std@@P6AXH@Z@std@@@2@@std@@@std@@@2@@std@@@2@IABV?$_List_iterator@V?$_List_val@U?$pair@$$CBV?$basic_string@DU?$char_traits@D@std@@V?$allocator@D@2@@std@@P6AXH@Z@std@@V?$allocator@U?$pair@$$CBV?$basic_string@DU?$char_traits@D@std@@V?$allocator@D@2@@std@@P6AXH@Z@std@@@2@@std@@@2@@Z 1000b0b0 f i GameInterface.obj
 0001:0000a460       ?_Ufill@?$vector@V?$_List_iterator@V?$_List_val@U?$pair@$$CBV?$basic_string@DU?$char_traits@D@std@@V?$allocator@D@2@@std@@P6AXH@Z@std@@V?$allocator@U?$pair@$$CBV?$basic_string@DU?$char_traits@D@std@@V?$allocator@D@2@@std@@P6AXH@Z@std@@@2@@std@@@std@@V?$allocator@V?$_List_iterator@V?$_List_val@U?$pair@$$CBV?$basic_string@DU?$char_traits@D@std@@V?$allocator@D@2@@std@@P6AXH@Z@std@@V?$allocator@U?$pair@$$CBV?$basic_string@DU?$char_traits@D@std@@V?$allocator@D@2@@std@@P6AXH@Z@std@@@2@@std@@@std@@@2@@std@@IAEPAV?$_List_iterator@V?$_List_val@U?$pair@$$CBV?$basic_string@DU?$char_traits@D@std@@V?$allocator@D@2@@std@@P6AXH@Z@std@@V?$allocator@U?$pair@$$CBV?$basic_string@DU?$char_traits@D@std@@V?$allocator@D@2@@std@@P6AXH@Z@std@@@2@@std@@@2@PAV32@IPBV32@@Z 1000b460 f i GameInterface.obj
 0001:0000a4a0       ??$_Umove@PAV?$_List_iterator@V?$_List_val@U?$pair@$$CBV?$basic_string@DU?$char_traits@D@std@@V?$allocator@D@2@@std@@P6AXH@Z@std@@V?$allocator@U?$pair@$$CBV?$basic_string@DU?$char_traits@D@std@@V?$allocator@D@2@@std@@P6AXH@Z@std@@@2@@std@@@std@@@?$vector@V?$_List_iterator@V?$_List_val@U?$pair@$$CBV?$basic_string@DU?$char_traits@D@std@@V?$allocator@D@2@@std@@P6AXH@Z@std@@V?$allocator@U?$pair@$$CBV?$basic_string@DU?$char_traits@D@std@@V?$allocator@D@2@@std@@P6AXH@Z@std@@@2@@std@@@std@@V?$allocator@V?$_List_iterator@V?$_List_val@U?$pair@$$CBV?$basic_string@DU?$char_traits@D@std@@V?$allocator@D@2@@std@@P6AXH@Z@std@@V?$allocator@U?$pair@$$CBV?$basic_string@DU?$char_traits@D@std@@V?$allocator@D@2@@std@@P6AXH@Z@std@@@2@@std@@@std@@@2@@std@@IAEPAV?$_List_iterator@V?$_List_val@U?$pair@$$CBV?$basic_string@DU?$char_traits@D@std@@V?$allocator@D@2@@std@@P6AXH@Z@std@@V?$allocator@U?$pair@$$CBV?$basic_string@DU?$char_traits@D@std@@V?$allocator@D@2@@std@@P6AXH@Z@std@@@2@@std@@@1@PAV21@00@Z 1000b4a0 f i GameInterface.obj
 0001:0000a4d0       ??$_Uninitialized_fill_n@PAV?$_List_iterator@V?$_List_val@U?$pair@$$CBV?$basic_string@DU?$char_traits@D@std@@V?$allocator@D@2@@std@@P6AXH@Z@std@@V?$allocator@U?$pair@$$CBV?$basic_string@DU?$char_traits@D@std@@V?$allocator@D@2@@std@@P6AXH@Z@std@@@2@@std@@@std@@IV12@V?$allocator@V?$_List_iterator@V?$_List_val@U?$pair@$$CBV?$basic_string@DU?$char_traits@D@std@@V?$allocator@D@2@@std@@P6AXH@Z@std@@V?$allocator@U?$pair@$$CBV?$basic_string@DU?$char_traits@D@std@@V?$allocator@D@2@@std@@P6AXH@Z@std@@@2@@std@@@std@@@2@@std@@YAXPAV?$_List_iterator@V?$_List_val@U?$pair@$$CBV?$basic_string@DU?$char_traits@D@std@@V?$allocator@D@2@@std@@P6AXH@Z@std@@V?$allocator@U?$pair@$$CBV?$basic_string@DU?$char_traits@D@std@@V?$allocator@D@2@@std@@P6AXH@Z@std@@@2@@std@@@0@IPBV10@AAV?$allocator@V?$_List_iterator@V?$_List_val@U?$pair@$$CBV?$basic_string@DU?$char_traits@D@std@@V?$allocator@D@2@@std@@P6AXH@Z@std@@V?$allocator@U?$pair@$$CBV?$basic_string@DU?$char_traits@D@std@@V?$allocator@D@2@@std@@P6AXH@Z@std@@@2@@std@@@std@@@0@@Z 1000b4d0 f i GameInterface.obj
 0001:0000a520       ?begin@?$list@U?$pair@$$CBV?$basic_string@DU?$char_traits@D@std@@V?$allocator@D@2@@std@@PAUVehicleDef@@@std@@V?$allocator@U?$pair@$$CBV?$basic_string@DU?$char_traits@D@std@@V?$allocator@D@2@@std@@PAUVehicleDef@@@std@@@2@@std@@QAE?AV?$_List_iterator@V?$_List_val@U?$pair@$$CBV?$basic_string@DU?$char_traits@D@std@@V?$allocator@D@2@@std@@PAUVehicleDef@@@std@@V?$allocator@U?$pair@$$CBV?$basic_string@DU?$char_traits@D@std@@V?$allocator@D@2@@std@@PAUVehicleDef@@@std@@@2@@std@@@2@XZ 1000b520 f i PatchMW2LoadVehicleDef.obj
 0001:0000a520       ?begin@?$list@UAttachmentPatch@@V?$allocator@UAttachmentPatch@@@std@@@std@@QAE?AV?$_List_iterator@V?$_List_val@UAttachmentPatch@@V?$allocator@UAttachmentPatch@@@std@@@std@@@2@XZ 1000b520 f i PatchMW2PartialWeaponry.obj
 0001:0000a520       ?begin@?$list@U?$pair@QAXK@std@@V?$allocator@U?$pair@QAXK@std@@@2@@std@@QAE?AV?$_List_iterator@V?$_List_val@U?$pair@QAXK@std@@V?$allocator@U?$pair@QAXK@std@@@2@@std@@@2@XZ 1000b520 f i PatchMW2FilePointers.obj
 0001:0000a520       ?begin@?$list@UAssetRelocation@@V?$allocator@UAssetRelocation@@@std@@@std@@QAE?AV?$_List_iterator@V?$_List_val@UAssetRelocation@@V?$allocator@UAssetRelocation@@@std@@@std@@@2@XZ 1000b520 f i PatchMW2FilePointers.obj
 0001:0000a520       ?begin@?$list@U?$pair@$$CBHUNPFriend@@@std@@V?$allocator@U?$pair@$$CBHUNPFriend@@@std@@@2@@std@@QAE?AV?$_List_iterator@V?$_List_val@U?$pair@$$CBHUNPFriend@@@std@@V?$allocator@U?$pair@$$CBHUNPFriend@@@std@@@2@@std@@@2@XZ 1000b520 f i PatchMW2Friends.obj
 0001:0000a520       ?begin@?$list@U?$pair@$$CBKK@std@@V?$allocator@U?$pair@$$CBKK@std@@@2@@std@@QAE?AV?$_List_iterator@V?$_List_val@U?$pair@$$CBKK@std@@V?$allocator@U?$pair@$$CBKK@std@@@2@@std@@@2@XZ 1000b520 f i PatchMW2FilePointers.obj
 0001:0000a520       ?begin@?$list@U?$pair@$$CB_K_N@std@@V?$allocator@U?$pair@$$CB_K_N@std@@@2@@std@@QAE?AV?$_List_iterator@V?$_List_val@U?$pair@$$CB_K_N@std@@V?$allocator@U?$pair@$$CB_K_N@std@@@2@@std@@@2@XZ 1000b520 f i SteamBase.obj
 0001:0000a520       ?begin@?$list@U?$pair@$$CBV?$basic_string@DU?$char_traits@D@std@@V?$allocator@D@2@@std@@P6AXH@Z@std@@V?$allocator@U?$pair@$$CBV?$basic_string@DU?$char_traits@D@std@@V?$allocator@D@2@@std@@P6AXH@Z@std@@@2@@std@@QAE?AV?$_List_iterator@V?$_List_val@U?$pair@$$CBV?$basic_string@DU?$char_traits@D@std@@V?$allocator@D@2@@std@@P6AXH@Z@std@@V?$allocator@U?$pair@$$CBV?$basic_string@DU?$char_traits@D@std@@V?$allocator@D@2@@std@@P6AXH@Z@std@@@2@@std@@@2@XZ 1000b520 f i GameInterface.obj
 0001:0000a520       ?begin@?$list@U?$pair@$$CBV?$basic_string@DU?$char_traits@D@std@@V?$allocator@D@2@@std@@_N@std@@V?$allocator@U?$pair@$$CBV?$basic_string@DU?$char_traits@D@std@@V?$allocator@D@2@@std@@_N@std@@@2@@std@@QAE?AV?$_List_iterator@V?$_List_val@U?$pair@$$CBV?$basic_string@DU?$char_traits@D@std@@V?$allocator@D@2@@std@@_N@std@@V?$allocator@U?$pair@$$CBV?$basic_string@DU?$char_traits@D@std@@V?$allocator@D@2@@std@@_N@std@@@2@@std@@@2@XZ 1000b520 f i PatchMW2Experiments.obj
 0001:0000a520       ?begin@?$list@U?$pair@$$CB_KPAVCCallbackBase@@@std@@V?$allocator@U?$pair@$$CB_KPAVCCallbackBase@@@std@@@2@@std@@QAE?AV?$_List_iterator@V?$_List_val@U?$pair@$$CB_KPAVCCallbackBase@@@std@@V?$allocator@U?$pair@$$CB_KPAVCCallbackBase@@@std@@@2@@std@@@2@XZ 1000b520 f i SteamBase.obj
 0001:0000a520       ?begin@?$list@U?$pair@$$CBKPAX@std@@V?$allocator@U?$pair@$$CBKPAX@std@@@2@@std@@QAE?AV?$_List_iterator@V?$_List_val@U?$pair@$$CBKPAX@std@@V?$allocator@U?$pair@$$CBKPAX@std@@@2@@std@@@2@XZ 1000b520 f i PatchMW2FilePointers.obj
 0001:0000a550       ??$_Dest_val@V?$allocator@U_Node@?$_List_nod@U?$pair@$$CBV?$basic_string@DU?$char_traits@D@std@@V?$allocator@D@2@@std@@_N@std@@V?$allocator@U?$pair@$$CBV?$basic_string@DU?$char_traits@D@std@@V?$allocator@D@2@@std@@_N@std@@@2@@std@@@std@@U_Node@?$_List_nod@U?$pair@$$CBV?$basic_string@DU?$char_traits@D@std@@V?$allocator@D@2@@std@@_N@std@@V?$allocator@U?$pair@$$CBV?$basic_string@DU?$char_traits@D@std@@V?$allocator@D@2@@std@@_N@std@@@2@@2@@std@@YAXAAV?$allocator@U_Node@?$_List_nod@U?$pair@$$CBV?$basic_string@DU?$char_traits@D@std@@V?$allocator@D@2@@std@@_N@std@@V?$allocator@U?$pair@$$CBV?$basic_string@DU?$char_traits@D@std@@V?$allocator@D@2@@std@@_N@std@@@2@@std@@@0@PAU_Node@?$_List_nod@U?$pair@$$CBV?$basic_string@DU?$char_traits@D@std@@V?$allocator@D@2@@std@@_N@std@@V?$allocator@U?$pair@$$CBV?$basic_string@DU?$char_traits@D@std@@V?$allocator@D@2@@std@@_N@std@@@2@@0@@Z 1000b550 f i PatchMW2Experiments.obj
 0001:0000a550       ??$_Dest_val@V?$allocator@U_Node@?$_List_nod@U?$pair@$$CBV?$basic_string@DU?$char_traits@D@std@@V?$allocator@D@2@@std@@P6AXH@Z@std@@V?$allocator@U?$pair@$$CBV?$basic_string@DU?$char_traits@D@std@@V?$allocator@D@2@@std@@P6AXH@Z@std@@@2@@std@@@std@@U_Node@?$_List_nod@U?$pair@$$CBV?$basic_string@DU?$char_traits@D@std@@V?$allocator@D@2@@std@@P6AXH@Z@std@@V?$allocator@U?$pair@$$CBV?$basic_string@DU?$char_traits@D@std@@V?$allocator@D@2@@std@@P6AXH@Z@std@@@2@@2@@std@@YAXAAV?$allocator@U_Node@?$_List_nod@U?$pair@$$CBV?$basic_string@DU?$char_traits@D@std@@V?$allocator@D@2@@std@@P6AXH@Z@std@@V?$allocator@U?$pair@$$CBV?$basic_string@DU?$char_traits@D@std@@V?$allocator@D@2@@std@@P6AXH@Z@std@@@2@@std@@@0@PAU_Node@?$_List_nod@U?$pair@$$CBV?$basic_string@DU?$char_traits@D@std@@V?$allocator@D@2@@std@@P6AXH@Z@std@@V?$allocator@U?$pair@$$CBV?$basic_string@DU?$char_traits@D@std@@V?$allocator@D@2@@std@@P6AXH@Z@std@@@2@@0@@Z 1000b550 f i GameInterface.obj
 0001:0000a550       ??$_Dest_val@V?$allocator@U_Node@?$_List_nod@U?$pair@$$CBV?$basic_string@DU?$char_traits@D@std@@V?$allocator@D@2@@std@@PAUVehicleDef@@@std@@V?$allocator@U?$pair@$$CBV?$basic_string@DU?$char_traits@D@std@@V?$allocator@D@2@@std@@PAUVehicleDef@@@std@@@2@@std@@@std@@U_Node@?$_List_nod@U?$pair@$$CBV?$basic_string@DU?$char_traits@D@std@@V?$allocator@D@2@@std@@PAUVehicleDef@@@std@@V?$allocator@U?$pair@$$CBV?$basic_string@DU?$char_traits@D@std@@V?$allocator@D@2@@std@@PAUVehicleDef@@@std@@@2@@2@@std@@YAXAAV?$allocator@U_Node@?$_List_nod@U?$pair@$$CBV?$basic_string@DU?$char_traits@D@std@@V?$allocator@D@2@@std@@PAUVehicleDef@@@std@@V?$allocator@U?$pair@$$CBV?$basic_string@DU?$char_traits@D@std@@V?$allocator@D@2@@std@@PAUVehicleDef@@@std@@@2@@std@@@0@PAU_Node@?$_List_nod@U?$pair@$$CBV?$basic_string@DU?$char_traits@D@std@@V?$allocator@D@2@@std@@PAUVehicleDef@@@std@@V?$allocator@U?$pair@$$CBV?$basic_string@DU?$char_traits@D@std@@V?$allocator@D@2@@std@@PAUVehicleDef@@@std@@@2@@0@@Z 1000b550 f i PatchMW2LoadVehicleDef.obj
 0001:0000a570       ?destroy@?$allocator@U_Node@?$_List_nod@U?$pair@$$CBV?$basic_string@DU?$char_traits@D@std@@V?$allocator@D@2@@std@@PAUVehicleDef@@@std@@V?$allocator@U?$pair@$$CBV?$basic_string@DU?$char_traits@D@std@@V?$allocator@D@2@@std@@PAUVehicleDef@@@std@@@2@@std@@@std@@QAEXPAU_Node@?$_List_nod@U?$pair@$$CBV?$basic_string@DU?$char_traits@D@std@@V?$allocator@D@2@@std@@PAUVehicleDef@@@std@@V?$allocator@U?$pair@$$CBV?$basic_string@DU?$char_traits@D@std@@V?$allocator@D@2@@std@@PAUVehicleDef@@@std@@@2@@2@@Z 1000b570 f i PatchMW2LoadVehicleDef.obj
 0001:0000a570       ?destroy@?$allocator@U_Node@?$_List_nod@U?$pair@$$CBV?$basic_string@DU?$char_traits@D@std@@V?$allocator@D@2@@std@@_N@std@@V?$allocator@U?$pair@$$CBV?$basic_string@DU?$char_traits@D@std@@V?$allocator@D@2@@std@@_N@std@@@2@@std@@@std@@QAEXPAU_Node@?$_List_nod@U?$pair@$$CBV?$basic_string@DU?$char_traits@D@std@@V?$allocator@D@2@@std@@_N@std@@V?$allocator@U?$pair@$$CBV?$basic_string@DU?$char_traits@D@std@@V?$allocator@D@2@@std@@_N@std@@@2@@2@@Z 1000b570 f i PatchMW2Experiments.obj
 0001:0000a570       ?destroy@?$allocator@U_Node@?$_List_nod@U?$pair@$$CBV?$basic_string@DU?$char_traits@D@std@@V?$allocator@D@2@@std@@P6AXH@Z@std@@V?$allocator@U?$pair@$$CBV?$basic_string@DU?$char_traits@D@std@@V?$allocator@D@2@@std@@P6AXH@Z@std@@@2@@std@@@std@@QAEXPAU_Node@?$_List_nod@U?$pair@$$CBV?$basic_string@DU?$char_traits@D@std@@V?$allocator@D@2@@std@@P6AXH@Z@std@@V?$allocator@U?$pair@$$CBV?$basic_string@DU?$char_traits@D@std@@V?$allocator@D@2@@std@@P6AXH@Z@std@@@2@@2@@Z 1000b570 f i GameInterface.obj
 0001:0000a590       ?_Reinsert@?$_Hash@V?$_Umap_traits@V?$basic_string@DU?$char_traits@D@std@@V?$allocator@D@2@@std@@P6AXH@ZV?$_Hash_compare@V?$basic_string@DU?$char_traits@D@std@@V?$allocator@D@2@@std@@V?$hash@V?$basic_string@DU?$char_traits@D@std@@V?$allocator@D@2@@std@@@2@U?$equal_to@V?$basic_string@DU?$char_traits@D@std@@V?$allocator@D@2@@std@@@2@@2@V?$allocator@U?$pair@$$CBV?$basic_string@DU?$char_traits@D@std@@V?$allocator@D@2@@std@@P6AXH@Z@std@@@2@$0A@@tr1@std@@@std@@IAEXV?$_List_iterator@V?$_List_val@U?$pair@$$CBV?$basic_string@DU?$char_traits@D@std@@V?$allocator@D@2@@std@@P6AXH@Z@std@@V?$allocator@U?$pair@$$CBV?$basic_string@DU?$char_traits@D@std@@V?$allocator@D@2@@std@@P6AXH@Z@std@@@2@@std@@@2@@Z 1000b590 f i GameInterface.obj
 0001:0000a610       ?max_size@?$allocator@U?$pair@$$CBV?$basic_string@DU?$char_traits@D@std@@V?$allocator@D@2@@std@@_N@std@@@std@@QBEIXZ 1000b610 f i PatchMW2Experiments.obj
 0001:0000a610       ?max_size@?$allocator@U?$pair@$$CBV?$basic_string@DU?$char_traits@D@std@@V?$allocator@D@2@@std@@P6AXH@Z@std@@@std@@QBEIXZ 1000b610 f i GameInterface.obj
 0001:0000a610       ?max_size@?$allocator@U?$pair@$$CBV?$basic_string@DU?$char_traits@D@std@@V?$allocator@D@2@@std@@PAUVehicleDef@@@std@@@std@@QBEIXZ 1000b610 f i PatchMW2LoadVehicleDef.obj
 0001:0000a640       ??$emplace_front@U?$pair@$$CBV?$basic_string@DU?$char_traits@D@std@@V?$allocator@D@2@@std@@P6AXH@Z@std@@@?$list@U?$pair@$$CBV?$basic_string@DU?$char_traits@D@std@@V?$allocator@D@2@@std@@P6AXH@Z@std@@V?$allocator@U?$pair@$$CBV?$basic_string@DU?$char_traits@D@std@@V?$allocator@D@2@@std@@P6AXH@Z@std@@@2@@std@@QAEX$$QAU?$pair@$$CBV?$basic_string@DU?$char_traits@D@std@@V?$allocator@D@2@@std@@P6AXH@Z@1@@Z 1000b640 f i GameInterface.obj
 0001:0000a680       ??$_Uninitialized_move@PAV?$_List_iterator@V?$_List_val@U?$pair@$$CBV?$basic_string@DU?$char_traits@D@std@@V?$allocator@D@2@@std@@P6AXH@Z@std@@V?$allocator@U?$pair@$$CBV?$basic_string@DU?$char_traits@D@std@@V?$allocator@D@2@@std@@P6AXH@Z@std@@@2@@std@@@std@@PAV12@V?$allocator@V?$_List_iterator@V?$_List_val@U?$pair@$$CBV?$basic_string@DU?$char_traits@D@std@@V?$allocator@D@2@@std@@P6AXH@Z@std@@V?$allocator@U?$pair@$$CBV?$basic_string@DU?$char_traits@D@std@@V?$allocator@D@2@@std@@P6AXH@Z@std@@@2@@std@@@std@@@2@@std@@YAPAV?$_List_iterator@V?$_List_val@U?$pair@$$CBV?$basic_string@DU?$char_traits@D@std@@V?$allocator@D@2@@std@@P6AXH@Z@std@@V?$allocator@U?$pair@$$CBV?$basic_string@DU?$char_traits@D@std@@V?$allocator@D@2@@std@@P6AXH@Z@std@@@2@@std@@@0@PAV10@00AAV?$allocator@V?$_List_iterator@V?$_List_val@U?$pair@$$CBV?$basic_string@DU?$char_traits@D@std@@V?$allocator@D@2@@std@@P6AXH@Z@std@@V?$allocator@U?$pair@$$CBV?$basic_string@DU?$char_traits@D@std@@V?$allocator@D@2@@std@@P6AXH@Z@std@@@2@@std@@@std@@@0@@Z 1000b680 f i GameInterface.obj
 0001:0000a6d0       ??$_Uninit_fill_n@PAV?$_List_iterator@V?$_List_val@U?$pair@$$CBV?$basic_string@DU?$char_traits@D@std@@V?$allocator@D@2@@std@@P6AXH@Z@std@@V?$allocator@U?$pair@$$CBV?$basic_string@DU?$char_traits@D@std@@V?$allocator@D@2@@std@@P6AXH@Z@std@@@2@@std@@@std@@IV12@V?$allocator@V?$_List_iterator@V?$_List_val@U?$pair@$$CBV?$basic_string@DU?$char_traits@D@std@@V?$allocator@D@2@@std@@P6AXH@Z@std@@V?$allocator@U?$pair@$$CBV?$basic_string@DU?$char_traits@D@std@@V?$allocator@D@2@@std@@P6AXH@Z@std@@@2@@std@@@std@@@2@V12@@std@@YAXPAV?$_List_iterator@V?$_List_val@U?$pair@$$CBV?$basic_string@DU?$char_traits@D@std@@V?$allocator@D@2@@std@@P6AXH@Z@std@@V?$allocator@U?$pair@$$CBV?$basic_string@DU?$char_traits@D@std@@V?$allocator@D@2@@std@@P6AXH@Z@std@@@2@@std@@@0@IPBV10@AAV?$allocator@V?$_List_iterator@V?$_List_val@U?$pair@$$CBV?$basic_string@DU?$char_traits@D@std@@V?$allocator@D@2@@std@@P6AXH@Z@std@@V?$allocator@U?$pair@$$CBV?$basic_string@DU?$char_traits@D@std@@V?$allocator@D@2@@std@@P6AXH@Z@std@@@2@@std@@@std@@@0@0U_Nonscalar_ptr_iterator_tag@0@@Z 1000b6d0 f i GameInterface.obj
 0001:0000a790       ??$_Destroy@U_Node@?$_List_nod@U?$pair@$$CBV?$basic_string@DU?$char_traits@D@std@@V?$allocator@D@2@@std@@P6AXH@Z@std@@V?$allocator@U?$pair@$$CBV?$basic_string@DU?$char_traits@D@std@@V?$allocator@D@2@@std@@P6AXH@Z@std@@@2@@std@@@std@@YAXPAU_Node@?$_List_nod@U?$pair@$$CBV?$basic_string@DU?$char_traits@D@std@@V?$allocator@D@2@@std@@P6AXH@Z@std@@V?$allocator@U?$pair@$$CBV?$basic_string@DU?$char_traits@D@std@@V?$allocator@D@2@@std@@P6AXH@Z@std@@@2@@0@@Z 1000b790 f i GameInterface.obj
 0001:0000a790       ??$_Destroy@U_Node@?$_List_nod@U?$pair@$$CBV?$basic_string@DU?$char_traits@D@std@@V?$allocator@D@2@@std@@_N@std@@V?$allocator@U?$pair@$$CBV?$basic_string@DU?$char_traits@D@std@@V?$allocator@D@2@@std@@_N@std@@@2@@std@@@std@@YAXPAU_Node@?$_List_nod@U?$pair@$$CBV?$basic_string@DU?$char_traits@D@std@@V?$allocator@D@2@@std@@_N@std@@V?$allocator@U?$pair@$$CBV?$basic_string@DU?$char_traits@D@std@@V?$allocator@D@2@@std@@_N@std@@@2@@0@@Z 1000b790 f i PatchMW2Experiments.obj
 0001:0000a790       ??$_Destroy@U_Node@?$_List_nod@U?$pair@$$CBV?$basic_string@DU?$char_traits@D@std@@V?$allocator@D@2@@std@@PAUVehicleDef@@@std@@V?$allocator@U?$pair@$$CBV?$basic_string@DU?$char_traits@D@std@@V?$allocator@D@2@@std@@PAUVehicleDef@@@std@@@2@@std@@@std@@YAXPAU_Node@?$_List_nod@U?$pair@$$CBV?$basic_string@DU?$char_traits@D@std@@V?$allocator@D@2@@std@@PAUVehicleDef@@@std@@V?$allocator@U?$pair@$$CBV?$basic_string@DU?$char_traits@D@std@@V?$allocator@D@2@@std@@PAUVehicleDef@@@std@@@2@@0@@Z 1000b790 f i PatchMW2LoadVehicleDef.obj
 0001:0000a7a0       ??_G_Node@?$_List_nod@U?$pair@$$CBV?$basic_string@DU?$char_traits@D@std@@V?$allocator@D@2@@std@@_N@std@@V?$allocator@U?$pair@$$CBV?$basic_string@DU?$char_traits@D@std@@V?$allocator@D@2@@std@@_N@std@@@2@@std@@QAEPAXI@Z 1000b7a0 f i PatchMW2Experiments.obj
 0001:0000a7a0       ??_G_Node@?$_List_nod@U?$pair@$$CBV?$basic_string@DU?$char_traits@D@std@@V?$allocator@D@2@@std@@PAUVehicleDef@@@std@@V?$allocator@U?$pair@$$CBV?$basic_string@DU?$char_traits@D@std@@V?$allocator@D@2@@std@@PAUVehicleDef@@@std@@@2@@std@@QAEPAXI@Z 1000b7a0 f i PatchMW2LoadVehicleDef.obj
 0001:0000a7a0       ??_G_Node@?$_List_nod@U?$pair@$$CBV?$basic_string@DU?$char_traits@D@std@@V?$allocator@D@2@@std@@P6AXH@Z@std@@V?$allocator@U?$pair@$$CBV?$basic_string@DU?$char_traits@D@std@@V?$allocator@D@2@@std@@P6AXH@Z@std@@@2@@std@@QAEPAXI@Z 1000b7a0 f i GameInterface.obj
 0001:0000a7d0       ??1_Node@?$_List_nod@U?$pair@$$CBV?$basic_string@DU?$char_traits@D@std@@V?$allocator@D@2@@std@@_N@std@@V?$allocator@U?$pair@$$CBV?$basic_string@DU?$char_traits@D@std@@V?$allocator@D@2@@std@@_N@std@@@2@@std@@QAE@XZ 1000b7d0 f i PatchMW2Experiments.obj
 0001:0000a7d0       ??1_Node@?$_List_nod@U?$pair@$$CBV?$basic_string@DU?$char_traits@D@std@@V?$allocator@D@2@@std@@P6AXH@Z@std@@V?$allocator@U?$pair@$$CBV?$basic_string@DU?$char_traits@D@std@@V?$allocator@D@2@@std@@P6AXH@Z@std@@@2@@std@@QAE@XZ 1000b7d0 f i GameInterface.obj
 0001:0000a7d0       ??1_Node@?$_List_nod@U?$pair@$$CBV?$basic_string@DU?$char_traits@D@std@@V?$allocator@D@2@@std@@PAUVehicleDef@@@std@@V?$allocator@U?$pair@$$CBV?$basic_string@DU?$char_traits@D@std@@V?$allocator@D@2@@std@@PAUVehicleDef@@@std@@@2@@std@@QAE@XZ 1000b7d0 f i PatchMW2LoadVehicleDef.obj
 0001:0000a7f0       ??$_Insert_rv@U?$pair@$$CBV?$basic_string@DU?$char_traits@D@std@@V?$allocator@D@2@@std@@P6AXH@Z@std@@@?$list@U?$pair@$$CBV?$basic_string@DU?$char_traits@D@std@@V?$allocator@D@2@@std@@P6AXH@Z@std@@V?$allocator@U?$pair@$$CBV?$basic_string@DU?$char_traits@D@std@@V?$allocator@D@2@@std@@P6AXH@Z@std@@@2@@std@@QAEXV?$_List_const_iterator@V?$_List_val@U?$pair@$$CBV?$basic_string@DU?$char_traits@D@std@@V?$allocator@D@2@@std@@P6AXH@Z@std@@V?$allocator@U?$pair@$$CBV?$basic_string@DU?$char_traits@D@std@@V?$allocator@D@2@@std@@P6AXH@Z@std@@@2@@std@@@1@$$QAU?$pair@$$CBV?$basic_string@DU?$char_traits@D@std@@V?$allocator@D@2@@std@@P6AXH@Z@1@@Z 1000b7f0 f i GameInterface.obj
 0001:0000a870       ??$_Uninit_move@PAV?$_List_iterator@V?$_List_val@U?$pair@$$CBV?$basic_string@DU?$char_traits@D@std@@V?$allocator@D@2@@std@@P6AXH@Z@std@@V?$allocator@U?$pair@$$CBV?$basic_string@DU?$char_traits@D@std@@V?$allocator@D@2@@std@@P6AXH@Z@std@@@2@@std@@@std@@PAV12@V?$allocator@V?$_List_iterator@V?$_List_val@U?$pair@$$CBV?$basic_string@DU?$char_traits@D@std@@V?$allocator@D@2@@std@@P6AXH@Z@std@@V?$allocator@U?$pair@$$CBV?$basic_string@DU?$char_traits@D@std@@V?$allocator@D@2@@std@@P6AXH@Z@std@@@2@@std@@@std@@@2@V12@@std@@YAPAV?$_List_iterator@V?$_List_val@U?$pair@$$CBV?$basic_string@DU?$char_traits@D@std@@V?$allocator@D@2@@std@@P6AXH@Z@std@@V?$allocator@U?$pair@$$CBV?$basic_string@DU?$char_traits@D@std@@V?$allocator@D@2@@std@@P6AXH@Z@std@@@2@@std@@@0@PAV10@00AAV?$allocator@V?$_List_iterator@V?$_List_val@U?$pair@$$CBV?$basic_string@DU?$char_traits@D@std@@V?$allocator@D@2@@std@@P6AXH@Z@std@@V?$allocator@U?$pair@$$CBV?$basic_string@DU?$char_traits@D@std@@V?$allocator@D@2@@std@@P6AXH@Z@std@@@2@@std@@@std@@@0@0U_Nonscalar_ptr_iterator_tag@0@@Z 1000b870 f i GameInterface.obj
 0001:0000a930       ??$_Cons_val@V?$allocator@V?$_List_iterator@V?$_List_val@U?$pair@$$CBV?$basic_string@DU?$char_traits@D@std@@V?$allocator@D@2@@std@@P6AXH@Z@std@@V?$allocator@U?$pair@$$CBV?$basic_string@DU?$char_traits@D@std@@V?$allocator@D@2@@std@@P6AXH@Z@std@@@2@@std@@@std@@@std@@V?$_List_iterator@V?$_List_val@U?$pair@$$CBV?$basic_string@DU?$char_traits@D@std@@V?$allocator@D@2@@std@@P6AXH@Z@std@@V?$allocator@U?$pair@$$CBV?$basic_string@DU?$char_traits@D@std@@V?$allocator@D@2@@std@@P6AXH@Z@std@@@2@@std@@@2@ABV32@@std@@YAXAAV?$allocator@V?$_List_iterator@V?$_List_val@U?$pair@$$CBV?$basic_string@DU?$char_traits@D@std@@V?$allocator@D@2@@std@@P6AXH@Z@std@@V?$allocator@U?$pair@$$CBV?$basic_string@DU?$char_traits@D@std@@V?$allocator@D@2@@std@@P6AXH@Z@std@@@2@@std@@@std@@@0@PAV?$_List_iterator@V?$_List_val@U?$pair@$$CBV?$basic_string@DU?$char_traits@D@std@@V?$allocator@D@2@@std@@P6AXH@Z@std@@V?$allocator@U?$pair@$$CBV?$basic_string@DU?$char_traits@D@std@@V?$allocator@D@2@@std@@P6AXH@Z@std@@@2@@std@@@0@ABV20@@Z 1000b930 f i GameInterface.obj
 0001:0000a950       ?construct@?$allocator@V?$_List_iterator@V?$_List_val@U?$pair@$$CBV?$basic_string@DU?$char_traits@D@std@@V?$allocator@D@2@@std@@P6AXH@Z@std@@V?$allocator@U?$pair@$$CBV?$basic_string@DU?$char_traits@D@std@@V?$allocator@D@2@@std@@P6AXH@Z@std@@@2@@std@@@std@@@std@@QAEXPAV?$_List_iterator@V?$_List_val@U?$pair@$$CBV?$basic_string@DU?$char_traits@D@std@@V?$allocator@D@2@@std@@P6AXH@Z@std@@V?$allocator@U?$pair@$$CBV?$basic_string@DU?$char_traits@D@std@@V?$allocator@D@2@@std@@P6AXH@Z@std@@@2@@std@@@2@ABV32@@Z 1000b950 f i GameInterface.obj
 0001:0000a970       ??$_Buynode@U?$pair@$$CBV?$basic_string@DU?$char_traits@D@std@@V?$allocator@D@2@@std@@P6AXH@Z@std@@@?$_List_val@U?$pair@$$CBV?$basic_string@DU?$char_traits@D@std@@V?$allocator@D@2@@std@@P6AXH@Z@std@@V?$allocator@U?$pair@$$CBV?$basic_string@DU?$char_traits@D@std@@V?$allocator@D@2@@std@@P6AXH@Z@std@@@2@@std@@QAEPAU_Node@?$_List_nod@U?$pair@$$CBV?$basic_string@DU?$char_traits@D@std@@V?$allocator@D@2@@std@@P6AXH@Z@std@@V?$allocator@U?$pair@$$CBV?$basic_string@DU?$char_traits@D@std@@V?$allocator@D@2@@std@@P6AXH@Z@std@@@2@@1@PAU231@0$$QAU?$pair@$$CBV?$basic_string@DU?$char_traits@D@std@@V?$allocator@D@2@@std@@P6AXH@Z@1@@Z 1000b970 f i GameInterface.obj
 0001:0000aa70       ??$_Cons_val@V?$allocator@V?$_List_iterator@V?$_List_val@U?$pair@$$CBV?$basic_string@DU?$char_traits@D@std@@V?$allocator@D@2@@std@@P6AXH@Z@std@@V?$allocator@U?$pair@$$CBV?$basic_string@DU?$char_traits@D@std@@V?$allocator@D@2@@std@@P6AXH@Z@std@@@2@@std@@@std@@@std@@V?$_List_iterator@V?$_List_val@U?$pair@$$CBV?$basic_string@DU?$char_traits@D@std@@V?$allocator@D@2@@std@@P6AXH@Z@std@@V?$allocator@U?$pair@$$CBV?$basic_string@DU?$char_traits@D@std@@V?$allocator@D@2@@std@@P6AXH@Z@std@@@2@@std@@@2@V32@@std@@YAXAAV?$allocator@V?$_List_iterator@V?$_List_val@U?$pair@$$CBV?$basic_string@DU?$char_traits@D@std@@V?$allocator@D@2@@std@@P6AXH@Z@std@@V?$allocator@U?$pair@$$CBV?$basic_string@DU?$char_traits@D@std@@V?$allocator@D@2@@std@@P6AXH@Z@std@@@2@@std@@@std@@@0@PAV?$_List_iterator@V?$_List_val@U?$pair@$$CBV?$basic_string@DU?$char_traits@D@std@@V?$allocator@D@2@@std@@P6AXH@Z@std@@V?$allocator@U?$pair@$$CBV?$basic_string@DU?$char_traits@D@std@@V?$allocator@D@2@@std@@P6AXH@Z@std@@@2@@std@@@0@$$QAV20@@Z 1000ba70 f i GameInterface.obj
 0001:0000aa90       ??$_Construct@V?$_List_iterator@V?$_List_val@U?$pair@$$CBV?$basic_string@DU?$char_traits@D@std@@V?$allocator@D@2@@std@@P6AXH@Z@std@@V?$allocator@U?$pair@$$CBV?$basic_string@DU?$char_traits@D@std@@V?$allocator@D@2@@std@@P6AXH@Z@std@@@2@@std@@@std@@ABV12@@std@@YAXPAV?$_List_iterator@V?$_List_val@U?$pair@$$CBV?$basic_string@DU?$char_traits@D@std@@V?$allocator@D@2@@std@@P6AXH@Z@std@@V?$allocator@U?$pair@$$CBV?$basic_string@DU?$char_traits@D@std@@V?$allocator@D@2@@std@@P6AXH@Z@std@@@2@@std@@@0@ABV10@@Z 1000ba90 f i GameInterface.obj
 0001:0000ab10       ??2@YAPAXIPAX@Z            1000bb10 f i GameInterface.obj
 0001:0000ab20       ?construct@?$allocator@V?$_List_iterator@V?$_List_val@U?$pair@$$CBV?$basic_string@DU?$char_traits@D@std@@V?$allocator@D@2@@std@@P6AXH@Z@std@@V?$allocator@U?$pair@$$CBV?$basic_string@DU?$char_traits@D@std@@V?$allocator@D@2@@std@@P6AXH@Z@std@@@2@@std@@@std@@@std@@QAEXPAV?$_List_iterator@V?$_List_val@U?$pair@$$CBV?$basic_string@DU?$char_traits@D@std@@V?$allocator@D@2@@std@@P6AXH@Z@std@@V?$allocator@U?$pair@$$CBV?$basic_string@DU?$char_traits@D@std@@V?$allocator@D@2@@std@@P6AXH@Z@std@@@2@@std@@@2@$$QAV32@@Z 1000bb20 f i GameInterface.obj
 0001:0000aba0       ??$_Cons_val@V?$allocator@U?$pair@$$CBV?$basic_string@DU?$char_traits@D@std@@V?$allocator@D@2@@std@@P6AXH@Z@std@@@std@@U?$pair@$$CBV?$basic_string@DU?$char_traits@D@std@@V?$allocator@D@2@@std@@P6AXH@Z@2@U32@@std@@YAXAAV?$allocator@U?$pair@$$CBV?$basic_string@DU?$char_traits@D@std@@V?$allocator@D@2@@std@@P6AXH@Z@std@@@0@PAU?$pair@$$CBV?$basic_string@DU?$char_traits@D@std@@V?$allocator@D@2@@std@@P6AXH@Z@0@$$QAU20@@Z 1000bba0 f i GameInterface.obj
 0001:0000abc0       ?construct@?$allocator@U?$pair@$$CBV?$basic_string@DU?$char_traits@D@std@@V?$allocator@D@2@@std@@P6AXH@Z@std@@@std@@QAEXPAU?$pair@$$CBV?$basic_string@DU?$char_traits@D@std@@V?$allocator@D@2@@std@@P6AXH@Z@2@$$QAU32@@Z 1000bbc0 f i GameInterface.obj
 0001:0000ac40       ??$?0$$CBV?$basic_string@DU?$char_traits@D@std@@V?$allocator@D@2@@std@@P6AXH@Z@?$pair@$$CBV?$basic_string@DU?$char_traits@D@std@@V?$allocator@D@2@@std@@P6AXH@Z@std@@QAE@$$QAU01@@Z 1000bc40 f i GameInterface.obj
 0001:0000ac80       ??0?$_Pair_base@$$CBV?$basic_string@DU?$char_traits@D@std@@V?$allocator@D@2@@std@@P6AXH@Z@std@@QAE@$$QBV?$basic_string@DU?$char_traits@D@std@@V?$allocator@D@2@@1@$$QAP6AXH@Z@Z 1000bc80 f i GameInterface.obj
 0001:0000acf0       ??R?$hash@V?$basic_string@DU?$char_traits@D@std@@V?$allocator@D@2@@std@@@std@@QBEIABV?$basic_string@DU?$char_traits@D@std@@V?$allocator@D@2@@1@@Z 1000bcf0 f i GameInterface.obj
 0001:0000ad70       ?Cmd_Argc@@YAHXZ           1000bd70 f i GameInterface.obj
 0001:0000ad90       ??A?$basic_string@DU?$char_traits@D@std@@V?$allocator@D@2@@std@@QBEABDI@Z 1000bd90 f i GameInterface.obj
 0001:0000ad90       ??A?$basic_string@DU?$char_traits@D@std@@V?$allocator@D@2@@std@@QAEAADI@Z 1000bd90 f i Auth.obj
 0001:0000adb0       ?compare@?$basic_string@DU?$char_traits@D@std@@V?$allocator@D@2@@std@@QBEHABV12@@Z 1000bdb0 f i GameInterface.obj
 0001:0000ade0       ?compare@?$basic_string@DU?$char_traits@D@std@@V?$allocator@D@2@@std@@QBEHIIPBDI@Z 1000bde0 f i GameInterface.obj
 0001:0000ae90       ?compare@?$char_traits@D@std@@SAHPBD0I@Z 1000be90 f i GameInterface.obj
 0001:0000aeb0       ??0?$unordered_map@V?$basic_string@DU?$char_traits@D@std@@V?$allocator@D@2@@std@@P6AXH@ZV?$hash@V?$basic_string@DU?$char_traits@D@std@@V?$allocator@D@2@@std@@@2@U?$equal_to@V?$basic_string@DU?$char_traits@D@std@@V?$allocator@D@2@@std@@@2@V?$allocator@U?$pair@$$CBV?$basic_string@DU?$char_traits@D@std@@V?$allocator@D@2@@std@@P6AXH@Z@std@@@2@@tr1@std@@QAE@XZ 1000beb0 f i GameInterface.obj
 0001:0000aee0       ??0?$_Hash@V?$_Umap_traits@V?$basic_string@DU?$char_traits@D@std@@V?$allocator@D@2@@std@@P6AXH@ZV?$_Hash_compare@V?$basic_string@DU?$char_traits@D@std@@V?$allocator@D@2@@std@@V?$hash@V?$basic_string@DU?$char_traits@D@std@@V?$allocator@D@2@@std@@@2@U?$equal_to@V?$basic_string@DU?$char_traits@D@std@@V?$allocator@D@2@@std@@@2@@2@V?$allocator@U?$pair@$$CBV?$basic_string@DU?$char_traits@D@std@@V?$allocator@D@2@@std@@P6AXH@Z@std@@@2@$0A@@tr1@std@@@std@@QAE@ABV?$_Hash_compare@V?$basic_string@DU?$char_traits@D@std@@V?$allocator@D@2@@std@@V?$hash@V?$basic_string@DU?$char_traits@D@std@@V?$allocator@D@2@@std@@@2@U?$equal_to@V?$basic_string@DU?$char_traits@D@std@@V?$allocator@D@2@@std@@@2@@1@ABV?$allocator@U?$pair@$$CBV?$basic_string@DU?$char_traits@D@std@@V?$allocator@D@2@@std@@P6AXH@Z@std@@@1@@Z 1000bee0 f i GameInterface.obj
 0001:0000af70       ??1?$list@U?$pair@$$CBV?$basic_string@DU?$char_traits@D@std@@V?$allocator@D@2@@std@@P6AXH@Z@std@@V?$allocator@U?$pair@$$CBV?$basic_string@DU?$char_traits@D@std@@V?$allocator@D@2@@std@@P6AXH@Z@std@@@2@@std@@QAE@XZ 1000bf70 f i GameInterface.obj
 0001:0000afc0       ??1?$vector@V?$_List_iterator@V?$_List_val@U?$pair@$$CBV?$basic_string@DU?$char_traits@D@std@@V?$allocator@D@2@@std@@P6AXH@Z@std@@V?$allocator@U?$pair@$$CBV?$basic_string@DU?$char_traits@D@std@@V?$allocator@D@2@@std@@P6AXH@Z@std@@@2@@std@@@std@@V?$allocator@V?$_List_iterator@V?$_List_val@U?$pair@$$CBV?$basic_string@DU?$char_traits@D@std@@V?$allocator@D@2@@std@@P6AXH@Z@std@@V?$allocator@U?$pair@$$CBV?$basic_string@DU?$char_traits@D@std@@V?$allocator@D@2@@std@@P6AXH@Z@std@@@2@@std@@@std@@@2@@std@@QAE@XZ 1000bfc0 f i GameInterface.obj
 0001:0000b010       ?_Tidy@?$vector@V?$_List_iterator@V?$_List_val@U?$pair@$$CBHUNPFriend@@@std@@V?$allocator@U?$pair@$$CBHUNPFriend@@@std@@@2@@std@@@std@@V?$allocator@V?$_List_iterator@V?$_List_val@U?$pair@$$CBHUNPFriend@@@std@@V?$allocator@U?$pair@$$CBHUNPFriend@@@std@@@2@@std@@@std@@@2@@std@@IAEXXZ 1000c010 f i PatchMW2Friends.obj
 0001:0000b010       ?_Tidy@?$vector@V?$_List_iterator@V?$_List_val@U?$pair@$$CBV?$basic_string@DU?$char_traits@D@std@@V?$allocator@D@2@@std@@_N@std@@V?$allocator@U?$pair@$$CBV?$basic_string@DU?$char_traits@D@std@@V?$allocator@D@2@@std@@_N@std@@@2@@std@@@std@@V?$allocator@V?$_List_iterator@V?$_List_val@U?$pair@$$CBV?$basic_string@DU?$char_traits@D@std@@V?$allocator@D@2@@std@@_N@std@@V?$allocator@U?$pair@$$CBV?$basic_string@DU?$char_traits@D@std@@V?$allocator@D@2@@std@@_N@std@@@2@@std@@@std@@@2@@std@@IAEXXZ 1000c010 f i PatchMW2Experiments.obj
 0001:0000b010       ?_Tidy@?$vector@V?$_List_iterator@V?$_List_val@U?$pair@$$CBKPAX@std@@V?$allocator@U?$pair@$$CBKPAX@std@@@2@@std@@@std@@V?$allocator@V?$_List_iterator@V?$_List_val@U?$pair@$$CBKPAX@std@@V?$allocator@U?$pair@$$CBKPAX@std@@@2@@std@@@std@@@2@@std@@IAEXXZ 1000c010 f i PatchMW2FilePointers.obj
 0001:0000b010       ?_Tidy@?$vector@V?$_List_iterator@V?$_List_val@U?$pair@$$CBV?$basic_string@DU?$char_traits@D@std@@V?$allocator@D@2@@std@@PAUVehicleDef@@@std@@V?$allocator@U?$pair@$$CBV?$basic_string@DU?$char_traits@D@std@@V?$allocator@D@2@@std@@PAUVehicleDef@@@std@@@2@@std@@@std@@V?$allocator@V?$_List_iterator@V?$_List_val@U?$pair@$$CBV?$basic_string@DU?$char_traits@D@std@@V?$allocator@D@2@@std@@PAUVehicleDef@@@std@@V?$allocator@U?$pair@$$CBV?$basic_string@DU?$char_traits@D@std@@V?$allocator@D@2@@std@@PAUVehicleDef@@@std@@@2@@std@@@std@@@2@@std@@IAEXXZ 1000c010 f i PatchMW2LoadVehicleDef.obj
 0001:0000b010       ?_Tidy@?$vector@V?$_List_iterator@V?$_List_val@U?$pair@$$CBV?$basic_string@DU?$char_traits@D@std@@V?$allocator@D@2@@std@@P6AXH@Z@std@@V?$allocator@U?$pair@$$CBV?$basic_string@DU?$char_traits@D@std@@V?$allocator@D@2@@std@@P6AXH@Z@std@@@2@@std@@@std@@V?$allocator@V?$_List_iterator@V?$_List_val@U?$pair@$$CBV?$basic_string@DU?$char_traits@D@std@@V?$allocator@D@2@@std@@P6AXH@Z@std@@V?$allocator@U?$pair@$$CBV?$basic_string@DU?$char_traits@D@std@@V?$allocator@D@2@@std@@P6AXH@Z@std@@@2@@std@@@std@@@2@@std@@IAEXXZ 1000c010 f i GameInterface.obj
 0001:0000b010       ?_Tidy@?$vector@V?$_List_iterator@V?$_List_val@U?$pair@$$CB_KPAVCCallbackBase@@@std@@V?$allocator@U?$pair@$$CB_KPAVCCallbackBase@@@std@@@2@@std@@@std@@V?$allocator@V?$_List_iterator@V?$_List_val@U?$pair@$$CB_KPAVCCallbackBase@@@std@@V?$allocator@U?$pair@$$CB_KPAVCCallbackBase@@@std@@@2@@std@@@std@@@2@@std@@IAEXXZ 1000c010 f i SteamBase.obj
 0001:0000b010       ?_Tidy@?$vector@V?$_List_iterator@V?$_List_val@U?$pair@$$CBKK@std@@V?$allocator@U?$pair@$$CBKK@std@@@2@@std@@@std@@V?$allocator@V?$_List_iterator@V?$_List_val@U?$pair@$$CBKK@std@@V?$allocator@U?$pair@$$CBKK@std@@@2@@std@@@std@@@2@@std@@IAEXXZ 1000c010 f i PatchMW2FilePointers.obj
 0001:0000b010       ?_Tidy@?$vector@V?$_List_iterator@V?$_List_val@U?$pair@$$CB_K_N@std@@V?$allocator@U?$pair@$$CB_K_N@std@@@2@@std@@@std@@V?$allocator@V?$_List_iterator@V?$_List_val@U?$pair@$$CB_K_N@std@@V?$allocator@U?$pair@$$CB_K_N@std@@@2@@std@@@std@@@2@@std@@IAEXXZ 1000c010 f i SteamBase.obj
 0001:0000b010       ?_Tidy@?$vector@V?$_List_iterator@V?$_List_val@U?$pair@$$CBK_N@std@@V?$allocator@U?$pair@$$CBK_N@std@@@2@@std@@@std@@V?$allocator@V?$_List_iterator@V?$_List_val@U?$pair@$$CBK_N@std@@V?$allocator@U?$pair@$$CBK_N@std@@@2@@std@@@std@@@2@@std@@IAEXXZ 1000c010 f i PatchMW2AssetRestrict.obj
 0001:0000b010       ?_Tidy@?$vector@V?$_List_iterator@V?$_List_val@U?$pair@QAXK@std@@V?$allocator@U?$pair@QAXK@std@@@2@@std@@@std@@V?$allocator@V?$_List_iterator@V?$_List_val@U?$pair@QAXK@std@@V?$allocator@U?$pair@QAXK@std@@@2@@std@@@std@@@2@@std@@IAEXXZ 1000c010 f i PatchMW2FilePointers.obj
 0001:0000b080       ??1?$unordered_map@V?$basic_string@DU?$char_traits@D@std@@V?$allocator@D@2@@std@@P6AXH@ZV?$hash@V?$basic_string@DU?$char_traits@D@std@@V?$allocator@D@2@@std@@@2@U?$equal_to@V?$basic_string@DU?$char_traits@D@std@@V?$allocator@D@2@@std@@@2@V?$allocator@U?$pair@$$CBV?$basic_string@DU?$char_traits@D@std@@V?$allocator@D@2@@std@@P6AXH@Z@std@@@2@@tr1@std@@QAE@XZ 1000c080 f i GameInterface.obj
 0001:0000b0a0       ??1?$_Hash@V?$_Umap_traits@V?$basic_string@DU?$char_traits@D@std@@V?$allocator@D@2@@std@@P6AXH@ZV?$_Hash_compare@V?$basic_string@DU?$char_traits@D@std@@V?$allocator@D@2@@std@@V?$hash@V?$basic_string@DU?$char_traits@D@std@@V?$allocator@D@2@@std@@@2@U?$equal_to@V?$basic_string@DU?$char_traits@D@std@@V?$allocator@D@2@@std@@@2@@2@V?$allocator@U?$pair@$$CBV?$basic_string@DU?$char_traits@D@std@@V?$allocator@D@2@@std@@P6AXH@Z@std@@@2@$0A@@tr1@std@@@std@@QAE@XZ 1000c0a0 f i GameInterface.obj
 0001:0000b0f0       ?HideCode_FindModuleHolding@@YAPAUHINSTANCE__@@K@Z 1000c0f0 f   hidecode.obj
 0001:0000b110       ?HideCode_FindFunction@@YAPAXPAUHINSTANCE__@@I@Z 1000c110 f   hidecode.obj
 0001:0000b1f0       ?HideCode_PatchFunction@@YAXPAUHINSTANCE__@@IPAX@Z 1000c1f0 f   hidecode.obj
 0001:0000b2e0       ?HideCode_FindString@@YAXIIPADI@Z 1000c2e0 f   hidecode.obj
 0001:0000b360       ?HideCode_DoCreateFile@@YGPAXPBDKKPAU_SECURITY_ATTRIBUTES@@KKPAX@Z 1000c360 f   hidecode.obj
 0001:0000b500       ?HideCode_FindCreateFile@@YAXXZ 1000c500 f   hidecode.obj
 0001:0000b560       ?HideCode_FindDeviceIoControl@@YAXXZ 1000c560 f   hidecode.obj
 0001:0000b5e0       ?HideCode_FindModuleHoldingBase@@YAPAUHINSTANCE__@@K@Z 1000c5e0 f i hidecode.obj
 0001:0000b630       ?initialize@CallHook@@QAEXKPAX@Z 1000c630 f   Hooking.obj
 0001:0000b680       ?installHook@CallHook@@QAEXPAX@Z 1000c680 f   Hooking.obj
 0001:0000b6c0       ?releaseHook@CallHook@@QAEXXZ 1000c6c0 f   Hooking.obj
 0001:0000b6f0       ?initialize@StompHook@@QAEXKPAXE_N@Z 1000c6f0 f   Hooking.obj
 0001:0000b760       ?installHook@StompHook@@QAEXPAX@Z 1000c760 f   Hooking.obj
 0001:0000b7e0       ?releaseHook@StompHook@@QAEXXZ 1000c7e0 f   Hooking.obj
 0001:0000b810       ?HookInstall@@YAXKKH@Z     1000c810 f   Hooking.obj
 0001:0000b850       ?DetourFunction@@YAPAXPAEPBEH@Z 1000c850 f   Hooking.obj
 0001:0000b910       ?MakeJMP@@YAKPAEKK@Z       1000c910 f   Hooking.obj
 0001:0000b990       ?_patch@@YAXPAXKK@Z        1000c990 f   Hooking.obj
 0001:0000b9d0       ?_nop@@YAXPAXK@Z           1000c9d0 f   Hooking.obj
 0001:0000ba60       ?_call@@YAXPAXKW4eCallPatcher@@@Z 1000ca60 f   Hooking.obj
 0001:0000baa0       ?_charptr@@YAXPAXPBD@Z     1000caa0 f   Hooking.obj
 0001:0000bab0       ?HTTPService_Forbidden@@YAXPAUmg_connection@@@Z 1000cab0 f   HTTPService.obj
 0001:0000bad0       ?HTTPService_NotFound@@YAXPAUmg_connection@@@Z 1000cad0 f   HTTPService.obj
 0001:0000baf0       ?HTTPService_HandleDownloadRequest@@YAXPAUmg_connection@@PBUmg_request_info@@@Z 1000caf0 f   HTTPService.obj
 0001:0000bb70       ?HTTPService_HandleEvent@@YAPAXW4mg_event@@PAUmg_connection@@PBUmg_request_info@@@Z 1000cb70 f   HTTPService.obj
 0001:0000bc40       ?HTTPService_Init@@YAXXZ   1000cc40 f   HTTPService.obj
 0001:0000bcd0       ?HTTPService_Shutdown@@YAXXZ 1000ccd0 f   HTTPService.obj
 0001:0000bcf0       ?SetBits@@YAXAAKHHH@Z      1000ccf0 f   hwbrk.obj
 0001:0000bd30       ?SetHardwareBreakpoint@@YAPAXPAXW4HWBRK_TYPE@@W4HWBRK_SIZE@@0@Z 1000cd30 f   hwbrk.obj
 0001:0000c340       ?RemoveHardwareBreakpoint@@YA_NPAX@Z 1000d340 f   hwbrk.obj
 0001:0000c420       ??0HWBRK@@QAE@XZ           1000d420 f i hwbrk.obj
 0001:0000c470       ?Main_UnprotectModule@@YAXPAUHINSTANCE__@@@Z 1000d470 f   Main.obj
 0001:0000c4b0       ?Main_DoInit@@YAXXZ        1000d4b0 f   Main.obj
 0001:0000c530       ?Main_SetSafeInit@@YAXXZ   1000d530 f   Main.obj
 0001:0000c5c0       _DllMain@12                1000d5c0 f   Main.obj
 0001:0000c5f0       ?CL_GetServerIPAddress@@YAPBDXZ 1000d5f0 f   MW2.obj
 0001:0000c670       ?Cmd_ArgcSV@@YAHXZ         1000d670 f   MW2.obj
 0001:0000c690       ?Cmd_ArgvSV@@YAPADH@Z      1000d690 f   MW2.obj
 0001:0000c6d0       ?SV_GetStatus@@YAXPAUsvstatus_t@@@Z 1000d6d0 f   MW2.obj
 0001:0000c770       ?SV_IsClientIP@@YA_NI@Z    1000d770 f   MW2.obj
 0001:0000c800       ?OOBPrintT@@YAXHUnetadr_t@@PBD@Z 1000d800 f   MW2.obj
 0001:0000c840       ?NET_OutOfBandPrint@@YAXHUnetadr_t@@PBDZZ 1000d840 f   MW2.obj
 0001:0000c8b0       ?Party_NumPublicSlots@@YAHPAUparty_s@@@Z 1000d8b0 f   MW2.obj
 0001:0000c8d0       ?Party_NumPublicSlots@@YAHXZ 1000d8d0 f   MW2.obj
 0001:0000c8f0       ?GetStringConvar@@YAPADPAD@Z 1000d8f0 f   MW2.obj
 0001:0000c920       ?getBlockedIps@@YA?AV?$vector@V?$basic_string@DU?$char_traits@D@std@@V?$allocator@D@2@@std@@V?$allocator@V?$basic_string@DU?$char_traits@D@std@@V?$allocator@D@2@@std@@@2@@std@@XZ 1000d920 f   MW2.obj
 0001:0000c950       ?banIP@@YAXV?$basic_string@DU?$char_traits@D@std@@V?$allocator@D@2@@std@@@Z 1000d950 f   MW2.obj
 0001:0000ca70       ??0?$vector@V?$basic_string@DU?$char_traits@D@std@@V?$allocator@D@2@@std@@V?$allocator@V?$basic_string@DU?$char_traits@D@std@@V?$allocator@D@2@@std@@@2@@std@@QAE@ABV01@@Z 1000da70 f i MW2.obj
 0001:0000cb60       ?push_back@?$vector@V?$basic_string@DU?$char_traits@D@std@@V?$allocator@D@2@@std@@V?$allocator@V?$basic_string@DU?$char_traits@D@std@@V?$allocator@D@2@@std@@@2@@std@@QAEXABV?$basic_string@DU?$char_traits@D@std@@V?$allocator@D@2@@2@@Z 1000db60 f i MW2.obj
 0001:0000cc60       ?begin@?$vector@V?$basic_string@DU?$char_traits@D@std@@V?$allocator@D@2@@std@@V?$allocator@V?$basic_string@DU?$char_traits@D@std@@V?$allocator@D@2@@std@@@2@@std@@QBE?AV?$_Vector_const_iterator@V?$_Vector_val@V?$basic_string@DU?$char_traits@D@std@@V?$allocator@D@2@@std@@V?$allocator@V?$basic_string@DU?$char_traits@D@std@@V?$allocator@D@2@@std@@@2@@std@@@2@XZ 1000dc60 f i MW2.obj
 0001:0000cc90       ?end@?$vector@V?$basic_string@DU?$char_traits@D@std@@V?$allocator@D@2@@std@@V?$allocator@V?$basic_string@DU?$char_traits@D@std@@V?$allocator@D@2@@std@@@2@@std@@QBE?AV?$_Vector_const_iterator@V?$_Vector_val@V?$basic_string@DU?$char_traits@D@std@@V?$allocator@D@2@@std@@V?$allocator@V?$basic_string@DU?$char_traits@D@std@@V?$allocator@D@2@@std@@@2@@std@@@2@XZ 1000dc90 f i MW2.obj
 0001:0000ccc0       ?size@?$vector@V?$basic_string@DU?$char_traits@D@std@@V?$allocator@D@2@@std@@V?$allocator@V?$basic_string@DU?$char_traits@D@std@@V?$allocator@D@2@@std@@@2@@std@@QBEIXZ 1000dcc0 f i MW2.obj
 0001:0000cce0       ?_Buy@?$vector@V?$basic_string@DU?$char_traits@D@std@@V?$allocator@D@2@@std@@V?$allocator@V?$basic_string@DU?$char_traits@D@std@@V?$allocator@D@2@@std@@@2@@std@@IAE_NI@Z 1000dce0 f i MW2.obj
 0001:0000cd60       ?_Reserve@?$vector@V?$basic_string@DU?$char_traits@D@std@@V?$allocator@D@2@@std@@V?$allocator@V?$basic_string@DU?$char_traits@D@std@@V?$allocator@D@2@@std@@@2@@std@@IAEXI@Z 1000dd60 f i MW2.obj
 0001:0000cdd0       ?_Tidy@?$vector@V?$basic_string@DU?$char_traits@D@std@@V?$allocator@D@2@@std@@V?$allocator@V?$basic_string@DU?$char_traits@D@std@@V?$allocator@D@2@@std@@@2@@std@@IAEXXZ 1000ddd0 f i MW2.obj
 0001:0000ce50       ?reserve@?$vector@V?$basic_string@DU?$char_traits@D@std@@V?$allocator@D@2@@std@@V?$allocator@V?$basic_string@DU?$char_traits@D@std@@V?$allocator@D@2@@std@@@2@@std@@QAEXI@Z 1000de50 f i MW2.obj
 0001:0000cfa0       ?capacity@?$vector@V?$basic_string@DU?$char_traits@D@std@@V?$allocator@D@2@@std@@V?$allocator@V?$basic_string@DU?$char_traits@D@std@@V?$allocator@D@2@@std@@@2@@std@@QBEIXZ 1000dfa0 f i MW2.obj
 0001:0000cfc0       ?max_size@?$vector@V?$basic_string@DU?$char_traits@D@std@@V?$allocator@D@2@@std@@V?$allocator@V?$basic_string@DU?$char_traits@D@std@@V?$allocator@D@2@@std@@@2@@std@@QBEIXZ 1000dfc0 f i MW2.obj
 0001:0000cfe0       ?_Destroy@?$vector@V?$basic_string@DU?$char_traits@D@std@@V?$allocator@D@2@@std@@V?$allocator@V?$basic_string@DU?$char_traits@D@std@@V?$allocator@D@2@@std@@@2@@std@@IAEXPAV?$basic_string@DU?$char_traits@D@std@@V?$allocator@D@2@@2@0@Z 1000dfe0 f i MW2.obj
 0001:0000d010       ?_Grow_to@?$vector@V?$basic_string@DU?$char_traits@D@std@@V?$allocator@D@2@@std@@V?$allocator@V?$basic_string@DU?$char_traits@D@std@@V?$allocator@D@2@@std@@@2@@std@@IBEII@Z 1000e010 f i MW2.obj
 0001:0000d070       ?allocate@?$allocator@V?$basic_string@DU?$char_traits@D@std@@V?$allocator@D@2@@std@@@std@@QAEPAV?$basic_string@DU?$char_traits@D@std@@V?$allocator@D@2@@2@I@Z 1000e070 f i MW2.obj
 0001:0000d090       ?max_size@?$allocator@V?$basic_string@DU?$char_traits@D@std@@V?$allocator@D@2@@std@@@std@@QBEIXZ 1000e090 f i MW2.obj
 0001:0000d0c0       ??$_Ucopy@V?$_Vector_const_iterator@V?$_Vector_val@V?$basic_string@DU?$char_traits@D@std@@V?$allocator@D@2@@std@@V?$allocator@V?$basic_string@DU?$char_traits@D@std@@V?$allocator@D@2@@std@@@2@@std@@@std@@@?$vector@V?$basic_string@DU?$char_traits@D@std@@V?$allocator@D@2@@std@@V?$allocator@V?$basic_string@DU?$char_traits@D@std@@V?$allocator@D@2@@std@@@2@@std@@IAEPAV?$basic_string@DU?$char_traits@D@std@@V?$allocator@D@2@@1@V?$_Vector_const_iterator@V?$_Vector_val@V?$basic_string@DU?$char_traits@D@std@@V?$allocator@D@2@@std@@V?$allocator@V?$basic_string@DU?$char_traits@D@std@@V?$allocator@D@2@@std@@@2@@std@@@1@0PAV21@@Z 1000e0c0 f i MW2.obj
 0001:0000d0f0       ??$_Cons_val@V?$allocator@V?$basic_string@DU?$char_traits@D@std@@V?$allocator@D@2@@std@@@std@@V?$basic_string@DU?$char_traits@D@std@@V?$allocator@D@2@@2@AAV32@@std@@YAXAAV?$allocator@V?$basic_string@DU?$char_traits@D@std@@V?$allocator@D@2@@std@@@0@PAV?$basic_string@DU?$char_traits@D@std@@V?$allocator@D@2@@0@AAV20@@Z 1000e0f0 f i MW2.obj
 0001:0000d110       ??$_Cons_val@V?$allocator@V?$basic_string@DU?$char_traits@D@std@@V?$allocator@D@2@@std@@@std@@V?$basic_string@DU?$char_traits@D@std@@V?$allocator@D@2@@2@ABV32@@std@@YAXAAV?$allocator@V?$basic_string@DU?$char_traits@D@std@@V?$allocator@D@2@@std@@@0@PAV?$basic_string@DU?$char_traits@D@std@@V?$allocator@D@2@@0@ABV20@@Z 1000e110 f i MW2.obj
 0001:0000d130       ??$_Umove@PAV?$basic_string@DU?$char_traits@D@std@@V?$allocator@D@2@@std@@@?$vector@V?$basic_string@DU?$char_traits@D@std@@V?$allocator@D@2@@std@@V?$allocator@V?$basic_string@DU?$char_traits@D@std@@V?$allocator@D@2@@std@@@2@@std@@IAEPAV?$basic_string@DU?$char_traits@D@std@@V?$allocator@D@2@@1@PAV21@00@Z 1000e130 f i MW2.obj
 0001:0000d160       ??$_Destroy_range@V?$allocator@V?$basic_string@DU?$char_traits@D@std@@V?$allocator@D@2@@std@@@std@@@std@@YAXPAV?$basic_string@DU?$char_traits@D@std@@V?$allocator@D@2@@0@0AAV?$allocator@V?$basic_string@DU?$char_traits@D@std@@V?$allocator@D@2@@std@@@0@@Z 1000e160 f i MW2.obj
 0001:0000d1a0       ??$_Allocate@V?$basic_string@DU?$char_traits@D@std@@V?$allocator@D@2@@std@@@std@@YAPAV?$basic_string@DU?$char_traits@D@std@@V?$allocator@D@2@@0@IPAV10@@Z 1000e1a0 f i MW2.obj
 0001:0000d200       ?construct@?$allocator@V?$basic_string@DU?$char_traits@D@std@@V?$allocator@D@2@@std@@@std@@QAEXPAV?$basic_string@DU?$char_traits@D@std@@V?$allocator@D@2@@2@ABV32@@Z 1000e200 f i MW2.obj
 0001:0000d220       ??$_Uninitialized_copy@V?$_Vector_const_iterator@V?$_Vector_val@V?$basic_string@DU?$char_traits@D@std@@V?$allocator@D@2@@std@@V?$allocator@V?$basic_string@DU?$char_traits@D@std@@V?$allocator@D@2@@std@@@2@@std@@@std@@PAV?$basic_string@DU?$char_traits@D@std@@V?$allocator@D@2@@2@V?$allocator@V?$basic_string@DU?$char_traits@D@std@@V?$allocator@D@2@@std@@@2@@std@@YAPAV?$basic_string@DU?$char_traits@D@std@@V?$allocator@D@2@@0@V?$_Vector_const_iterator@V?$_Vector_val@V?$basic_string@DU?$char_traits@D@std@@V?$allocator@D@2@@std@@V?$allocator@V?$basic_string@DU?$char_traits@D@std@@V?$allocator@D@2@@std@@@2@@std@@@0@0PAV10@AAV?$allocator@V?$basic_string@DU?$char_traits@D@std@@V?$allocator@D@2@@std@@@0@@Z 1000e220 f i MW2.obj
 0001:0000d260       ??$construct@AAV?$basic_string@DU?$char_traits@D@std@@V?$allocator@D@2@@std@@@?$allocator@V?$basic_string@DU?$char_traits@D@std@@V?$allocator@D@2@@std@@@std@@QAEXPAV?$basic_string@DU?$char_traits@D@std@@V?$allocator@D@2@@1@AAV21@@Z 1000e260 f i MW2.obj
 0001:0000d2e0       ??$_Uninitialized_move@PAV?$basic_string@DU?$char_traits@D@std@@V?$allocator@D@2@@std@@PAV12@V?$allocator@V?$basic_string@DU?$char_traits@D@std@@V?$allocator@D@2@@std@@@2@@std@@YAPAV?$basic_string@DU?$char_traits@D@std@@V?$allocator@D@2@@0@PAV10@00AAV?$allocator@V?$basic_string@DU?$char_traits@D@std@@V?$allocator@D@2@@std@@@0@@Z 1000e2e0 f i MW2.obj
 0001:0000d330       ??$_Destroy_range@V?$allocator@V?$basic_string@DU?$char_traits@D@std@@V?$allocator@D@2@@std@@@std@@@std@@YAXPAV?$basic_string@DU?$char_traits@D@std@@V?$allocator@D@2@@0@0AAV?$allocator@V?$basic_string@DU?$char_traits@D@std@@V?$allocator@D@2@@std@@@0@U_Nonscalar_ptr_iterator_tag@0@@Z 1000e330 f i MW2.obj
 0001:0000d360       ??$_Construct@V?$basic_string@DU?$char_traits@D@std@@V?$allocator@D@2@@std@@ABV12@@std@@YAXPAV?$basic_string@DU?$char_traits@D@std@@V?$allocator@D@2@@0@ABV10@@Z 1000e360 f i MW2.obj
 0001:0000d3e0       ??$_Uninit_copy@V?$_Vector_const_iterator@V?$_Vector_val@V?$basic_string@DU?$char_traits@D@std@@V?$allocator@D@2@@std@@V?$allocator@V?$basic_string@DU?$char_traits@D@std@@V?$allocator@D@2@@std@@@2@@std@@@std@@PAV?$basic_string@DU?$char_traits@D@std@@V?$allocator@D@2@@2@V?$allocator@V?$basic_string@DU?$char_traits@D@std@@V?$allocator@D@2@@std@@@2@@std@@YAPAV?$basic_string@DU?$char_traits@D@std@@V?$allocator@D@2@@0@V?$_Vector_const_iterator@V?$_Vector_val@V?$basic_string@DU?$char_traits@D@std@@V?$allocator@D@2@@std@@V?$allocator@V?$basic_string@DU?$char_traits@D@std@@V?$allocator@D@2@@std@@@2@@std@@@0@0PAV10@AAV?$allocator@V?$basic_string@DU?$char_traits@D@std@@V?$allocator@D@2@@std@@@0@U_Nonscalar_ptr_iterator_tag@0@@Z 1000e3e0 f i MW2.obj
 0001:0000d4c0       ??$_Uninit_move@PAV?$basic_string@DU?$char_traits@D@std@@V?$allocator@D@2@@std@@PAV12@V?$allocator@V?$basic_string@DU?$char_traits@D@std@@V?$allocator@D@2@@std@@@2@V12@@std@@YAPAV?$basic_string@DU?$char_traits@D@std@@V?$allocator@D@2@@0@PAV10@00AAV?$allocator@V?$basic_string@DU?$char_traits@D@std@@V?$allocator@D@2@@std@@@0@0U_Nonscalar_ptr_iterator_tag@0@@Z 1000e4c0 f i MW2.obj
 0001:0000d580       ??$_Dest_val@V?$allocator@V?$basic_string@DU?$char_traits@D@std@@V?$allocator@D@2@@std@@@std@@V?$basic_string@DU?$char_traits@D@std@@V?$allocator@D@2@@2@@std@@YAXAAV?$allocator@V?$basic_string@DU?$char_traits@D@std@@V?$allocator@D@2@@std@@@0@PAV?$basic_string@DU?$char_traits@D@std@@V?$allocator@D@2@@0@@Z 1000e580 f i MW2.obj
 0001:0000d5a0       ?destroy@?$allocator@V?$basic_string@DU?$char_traits@D@std@@V?$allocator@D@2@@std@@@std@@QAEXPAV?$basic_string@DU?$char_traits@D@std@@V?$allocator@D@2@@2@@Z 1000e5a0 f i MW2.obj
 0001:0000d5c0       ??E?$_Vector_const_iterator@V?$_Vector_val@V?$basic_string@DU?$char_traits@D@std@@V?$allocator@D@2@@std@@V?$allocator@V?$basic_string@DU?$char_traits@D@std@@V?$allocator@D@2@@std@@@2@@std@@@std@@QAEAAV01@XZ 1000e5c0 f i MW2.obj
 0001:0000d5e0       ??$_Cons_val@V?$allocator@V?$basic_string@DU?$char_traits@D@std@@V?$allocator@D@2@@std@@@std@@V?$basic_string@DU?$char_traits@D@std@@V?$allocator@D@2@@2@V32@@std@@YAXAAV?$allocator@V?$basic_string@DU?$char_traits@D@std@@V?$allocator@D@2@@std@@@0@PAV?$basic_string@DU?$char_traits@D@std@@V?$allocator@D@2@@0@$$QAV20@@Z 1000e5e0 f i MW2.obj
 0001:0000d600       ??$_Destroy@V?$basic_string@DU?$char_traits@D@std@@V?$allocator@D@2@@std@@@std@@YAXPAV?$basic_string@DU?$char_traits@D@std@@V?$allocator@D@2@@0@@Z 1000e600 f i MW2.obj
 0001:0000d610       ??_G?$basic_string@DU?$char_traits@D@std@@V?$allocator@D@2@@std@@QAEPAXI@Z 1000e610 f i MW2.obj
 0001:0000d640       ?construct@?$allocator@V?$basic_string@DU?$char_traits@D@std@@V?$allocator@D@2@@std@@@std@@QAEXPAV?$basic_string@DU?$char_traits@D@std@@V?$allocator@D@2@@2@$$QAV32@@Z 1000e640 f i MW2.obj
 0001:0000d6c0       ?StringCbPrintfA@@YAJPADIPBDZZ 1000e6c0 f i MW2.obj
 0001:0000d720       ??1?$vector@V?$basic_string@DU?$char_traits@D@std@@V?$allocator@D@2@@std@@V?$allocator@V?$basic_string@DU?$char_traits@D@std@@V?$allocator@D@2@@std@@@2@@std@@QAE@XZ 1000e720 f i MW2.obj
 0001:0000d770       ??0myIDirect3D9@@QAE@PAUIDirect3D9Ex@@@Z 1000e770 f   myIDirect3D9.obj
 0001:0000d7a0       ??1myIDirect3D9@@UAE@XZ    1000e7a0 f   myIDirect3D9.obj
 0001:0000d7c0       ?QueryInterface@myIDirect3D9@@UAGJABU_GUID@@PAPAX@Z 1000e7c0 f   myIDirect3D9.obj
 0001:0000d810       ?AddRef@myIDirect3D9@@UAGKXZ 1000e810 f   myIDirect3D9.obj
 0001:0000d830       ?Release@myIDirect3D9@@UAGKXZ 1000e830 f   myIDirect3D9.obj
 0001:0000d8a0       ?RegisterSoftwareDevice@myIDirect3D9@@UAGJPAX@Z 1000e8a0 f   myIDirect3D9.obj
 0001:0000d8c0       ?GetAdapterCount@myIDirect3D9@@UAGIXZ 1000e8c0 f   myIDirect3D9.obj
 0001:0000d8e0       ?GetAdapterIdentifier@myIDirect3D9@@UAGJIKPAU_D3DADAPTER_IDENTIFIER9@@@Z 1000e8e0 f   myIDirect3D9.obj
 0001:0000d910       ?GetAdapterModeCount@myIDirect3D9@@UAGIIW4_D3DFORMAT@@@Z 1000e910 f   myIDirect3D9.obj
 0001:0000d940       ?EnumAdapterModes@myIDirect3D9@@UAGJIW4_D3DFORMAT@@IPAU_D3DDISPLAYMODE@@@Z 1000e940 f   myIDirect3D9.obj
 0001:0000d970       ?GetAdapterDisplayMode@myIDirect3D9@@UAGJIPAU_D3DDISPLAYMODE@@@Z 1000e970 f   myIDirect3D9.obj
 0001:0000d9a0       ?CheckDeviceType@myIDirect3D9@@UAGJIW4_D3DDEVTYPE@@W4_D3DFORMAT@@1H@Z 1000e9a0 f   myIDirect3D9.obj
 0001:0000d9d0       ?CheckDeviceFormat@myIDirect3D9@@UAGJIW4_D3DDEVTYPE@@W4_D3DFORMAT@@KW4_D3DRESOURCETYPE@@1@Z 1000e9d0 f   myIDirect3D9.obj
 0001:0000da10       ?CheckDeviceMultiSampleType@myIDirect3D9@@UAGJIW4_D3DDEVTYPE@@W4_D3DFORMAT@@HW4_D3DMULTISAMPLE_TYPE@@PAK@Z 1000ea10 f   myIDirect3D9.obj
 0001:0000da50       ?CheckDepthStencilMatch@myIDirect3D9@@UAGJIW4_D3DDEVTYPE@@W4_D3DFORMAT@@11@Z 1000ea50 f   myIDirect3D9.obj
 0001:0000da80       ?CheckDeviceFormatConversion@myIDirect3D9@@UAGJIW4_D3DDEVTYPE@@W4_D3DFORMAT@@1@Z 1000ea80 f   myIDirect3D9.obj
 0001:0000dab0       ?GetDeviceCaps@myIDirect3D9@@UAGJIW4_D3DDEVTYPE@@PAU_D3DCAPS9@@@Z 1000eab0 f   myIDirect3D9.obj
 0001:0000dae0       ?GetAdapterMonitor@myIDirect3D9@@UAGPAUHMONITOR__@@I@Z 1000eae0 f   myIDirect3D9.obj
 0001:0000db00       ?CreateDevice@myIDirect3D9@@UAGJIW4_D3DDEVTYPE@@PAUHWND__@@KPAU_D3DPRESENT_PARAMETERS_@@PAPAUIDirect3DDevice9@@@Z 1000eb00 f   myIDirect3D9.obj
 0001:0000dbf0       ??_EmyIDirect3D9@@UAEPAXI@Z 1000ebf0 f i myIDirect3D9.obj
 0001:0000dbf0       ??_GmyIDirect3D9@@UAEPAXI@Z 1000ebf0 f i myIDirect3D9.obj
 0001:0000dc20       ??0IDirect3D9@@QAE@XZ      1000ec20 f i myIDirect3D9.obj
 0001:0000dc20       ??0IDirect3DDevice9@@QAE@XZ 1000ec20 f i myIDirect3DDevice9.obj
 0001:0000dc40       ??0myIDirect3DDevice9@@QAE@PAUIDirect3DDevice9@@@Z 1000ec40 f   myIDirect3DDevice9.obj
 0001:0000dc70       ??1myIDirect3DDevice9@@UAE@XZ 1000ec70 f   myIDirect3DDevice9.obj
 0001:0000dc90       ?QueryInterface@myIDirect3DDevice9@@UAGJABU_GUID@@PAPAX@Z 1000ec90 f   myIDirect3DDevice9.obj
 0001:0000dce0       ?AddRef@myIDirect3DDevice9@@UAGKXZ 1000ece0 f   myIDirect3DDevice9.obj
 0001:0000dd00       ?Release@myIDirect3DDevice9@@UAGKXZ 1000ed00 f   myIDirect3DDevice9.obj
 0001:0000dd60       ?TestCooperativeLevel@myIDirect3DDevice9@@UAGJXZ 1000ed60 f   myIDirect3DDevice9.obj
 0001:0000dd80       ?GetAvailableTextureMem@myIDirect3DDevice9@@UAGIXZ 1000ed80 f   myIDirect3DDevice9.obj
 0001:0000dda0       ?EvictManagedResources@myIDirect3DDevice9@@UAGJXZ 1000eda0 f   myIDirect3DDevice9.obj
 0001:0000ddc0       ?GetDirect3D@myIDirect3DDevice9@@UAGJPAPAUIDirect3D9@@@Z 1000edc0 f   myIDirect3DDevice9.obj
 0001:0000dde0       ?GetDeviceCaps@myIDirect3DDevice9@@UAGJPAU_D3DCAPS9@@@Z 1000ede0 f   myIDirect3DDevice9.obj
 0001:0000de00       ?GetDisplayMode@myIDirect3DDevice9@@UAGJIPAU_D3DDISPLAYMODE@@@Z 1000ee00 f   myIDirect3DDevice9.obj
 0001:0000de30       ?GetCreationParameters@myIDirect3DDevice9@@UAGJPAU_D3DDEVICE_CREATION_PARAMETERS@@@Z 1000ee30 f   myIDirect3DDevice9.obj
 0001:0000de50       ?SetCursorProperties@myIDirect3DDevice9@@UAGJIIPAUIDirect3DSurface9@@@Z 1000ee50 f   myIDirect3DDevice9.obj
 0001:0000de80       ?SetCursorPosition@myIDirect3DDevice9@@UAGXHHK@Z 1000ee80 f   myIDirect3DDevice9.obj
 0001:0000deb0       ?ShowCursor@myIDirect3DDevice9@@UAGHH@Z 1000eeb0 f   myIDirect3DDevice9.obj
 0001:0000ded0       ?CreateAdditionalSwapChain@myIDirect3DDevice9@@UAGJPAU_D3DPRESENT_PARAMETERS_@@PAPAUIDirect3DSwapChain9@@@Z 1000eed0 f   myIDirect3DDevice9.obj
 0001:0000df00       ?GetSwapChain@myIDirect3DDevice9@@UAGJIPAPAUIDirect3DSwapChain9@@@Z 1000ef00 f   myIDirect3DDevice9.obj
 0001:0000df30       ?GetNumberOfSwapChains@myIDirect3DDevice9@@UAGIXZ 1000ef30 f   myIDirect3DDevice9.obj
 0001:0000df50       ?Reset@myIDirect3DDevice9@@UAGJPAU_D3DPRESENT_PARAMETERS_@@@Z 1000ef50 f   myIDirect3DDevice9.obj
 0001:0000df80       ?Present@myIDirect3DDevice9@@UAGJPBUtagRECT@@0PAUHWND__@@PBU_RGNDATA@@@Z 1000ef80 f   myIDirect3DDevice9.obj
 0001:0000dfc0       ?GetBackBuffer@myIDirect3DDevice9@@UAGJIIW4_D3DBACKBUFFER_TYPE@@PAPAUIDirect3DSurface9@@@Z 1000efc0 f   myIDirect3DDevice9.obj
 0001:0000dff0       ?GetRasterStatus@myIDirect3DDevice9@@UAGJIPAU_D3DRASTER_STATUS@@@Z 1000eff0 f   myIDirect3DDevice9.obj
 0001:0000e020       ?SetDialogBoxMode@myIDirect3DDevice9@@UAGJH@Z 1000f020 f   myIDirect3DDevice9.obj
 0001:0000e040       ?SetGammaRamp@myIDirect3DDevice9@@UAGXIKPBU_D3DGAMMARAMP@@@Z 1000f040 f   myIDirect3DDevice9.obj
 0001:0000e070       ?GetGammaRamp@myIDirect3DDevice9@@UAGXIPAU_D3DGAMMARAMP@@@Z 1000f070 f   myIDirect3DDevice9.obj
 0001:0000e0a0       ?CreateTexture@myIDirect3DDevice9@@UAGJIIIKW4_D3DFORMAT@@W4_D3DPOOL@@PAPAUIDirect3DTexture9@@PAPAX@Z 1000f0a0 f   myIDirect3DDevice9.obj
 0001:0000e100       ?CreateVolumeTexture@myIDirect3DDevice9@@UAGJIIIIKW4_D3DFORMAT@@W4_D3DPOOL@@PAPAUIDirect3DVolumeTexture9@@PAPAX@Z 1000f100 f   myIDirect3DDevice9.obj
 0001:0000e160       ?CreateCubeTexture@myIDirect3DDevice9@@UAGJIIKW4_D3DFORMAT@@W4_D3DPOOL@@PAPAUIDirect3DCubeTexture9@@PAPAX@Z 1000f160 f   myIDirect3DDevice9.obj
 0001:0000e1b0       ?CreateVertexBuffer@myIDirect3DDevice9@@UAGJIKKW4_D3DPOOL@@PAPAUIDirect3DVertexBuffer9@@PAPAX@Z 1000f1b0 f   myIDirect3DDevice9.obj
 0001:0000e200       ?CreateIndexBuffer@myIDirect3DDevice9@@UAGJIKW4_D3DFORMAT@@W4_D3DPOOL@@PAPAUIDirect3DIndexBuffer9@@PAPAX@Z 1000f200 f   myIDirect3DDevice9.obj
 0001:0000e250       ?CreateRenderTarget@myIDirect3DDevice9@@UAGJIIW4_D3DFORMAT@@W4_D3DMULTISAMPLE_TYPE@@KHPAPAUIDirect3DSurface9@@PAPAX@Z 1000f250 f   myIDirect3DDevice9.obj
 0001:0000e290       ?CreateDepthStencilSurface@myIDirect3DDevice9@@UAGJIIW4_D3DFORMAT@@W4_D3DMULTISAMPLE_TYPE@@KHPAPAUIDirect3DSurface9@@PAPAX@Z 1000f290 f   myIDirect3DDevice9.obj
 0001:0000e2d0       ?UpdateSurface@myIDirect3DDevice9@@UAGJPAUIDirect3DSurface9@@PBUtagRECT@@0PBUtagPOINT@@@Z 1000f2d0 f   myIDirect3DDevice9.obj
 0001:0000e300       ?UpdateTexture@myIDirect3DDevice9@@UAGJPAUIDirect3DBaseTexture9@@0@Z 1000f300 f   myIDirect3DDevice9.obj
 0001:0000e330       ?GetRenderTargetData@myIDirect3DDevice9@@UAGJPAUIDirect3DSurface9@@0@Z 1000f330 f   myIDirect3DDevice9.obj
 0001:0000e360       ?GetFrontBufferData@myIDirect3DDevice9@@UAGJIPAUIDirect3DSurface9@@@Z 1000f360 f   myIDirect3DDevice9.obj
 0001:0000e390       ?StretchRect@myIDirect3DDevice9@@UAGJPAUIDirect3DSurface9@@PBUtagRECT@@01W4_D3DTEXTUREFILTERTYPE@@@Z 1000f390 f   myIDirect3DDevice9.obj
 0001:0000e3d0       ?ColorFill@myIDirect3DDevice9@@UAGJPAUIDirect3DSurface9@@PBUtagRECT@@K@Z 1000f3d0 f   myIDirect3DDevice9.obj
 0001:0000e400       ?CreateOffscreenPlainSurface@myIDirect3DDevice9@@UAGJIIW4_D3DFORMAT@@W4_D3DPOOL@@PAPAUIDirect3DSurface9@@PAPAX@Z 1000f400 f   myIDirect3DDevice9.obj
 0001:0000e450       ?SetRenderTarget@myIDirect3DDevice9@@UAGJKPAUIDirect3DSurface9@@@Z 1000f450 f   myIDirect3DDevice9.obj
 0001:0000e480       ?GetRenderTarget@myIDirect3DDevice9@@UAGJKPAPAUIDirect3DSurface9@@@Z 1000f480 f   myIDirect3DDevice9.obj
 0001:0000e4b0       ?SetDepthStencilSurface@myIDirect3DDevice9@@UAGJPAUIDirect3DSurface9@@@Z 1000f4b0 f   myIDirect3DDevice9.obj
 0001:0000e4e0       ?GetDepthStencilSurface@myIDirect3DDevice9@@UAGJPAPAUIDirect3DSurface9@@@Z 1000f4e0 f   myIDirect3DDevice9.obj
 0001:0000e510       ?BeginScene@myIDirect3DDevice9@@UAGJXZ 1000f510 f   myIDirect3DDevice9.obj
 0001:0000e580       ?EndScene@myIDirect3DDevice9@@UAGJXZ 1000f580 f   myIDirect3DDevice9.obj
 0001:0000e5d0       ?Clear@myIDirect3DDevice9@@UAGJKPBU_D3DRECT@@KKMK@Z 1000f5d0 f   myIDirect3DDevice9.obj
 0001:0000e630       ?SetTransform@myIDirect3DDevice9@@UAGJW4_D3DTRANSFORMSTATETYPE@@PBU_D3DMATRIX@@@Z 1000f630 f   myIDirect3DDevice9.obj
 0001:0000e660       ?GetTransform@myIDirect3DDevice9@@UAGJW4_D3DTRANSFORMSTATETYPE@@PAU_D3DMATRIX@@@Z 1000f660 f   myIDirect3DDevice9.obj
 0001:0000e690       ?MultiplyTransform@myIDirect3DDevice9@@UAGJW4_D3DTRANSFORMSTATETYPE@@PBU_D3DMATRIX@@@Z 1000f690 f   myIDirect3DDevice9.obj
 0001:0000e6c0       ?SetViewport@myIDirect3DDevice9@@UAGJPBU_D3DVIEWPORT9@@@Z 1000f6c0 f   myIDirect3DDevice9.obj
 0001:0000e6f0       ?GetViewport@myIDirect3DDevice9@@UAGJPAU_D3DVIEWPORT9@@@Z 1000f6f0 f   myIDirect3DDevice9.obj
 0001:0000e720       ?SetMaterial@myIDirect3DDevice9@@UAGJPBU_D3DMATERIAL9@@@Z 1000f720 f   myIDirect3DDevice9.obj
 0001:0000e750       ?GetMaterial@myIDirect3DDevice9@@UAGJPAU_D3DMATERIAL9@@@Z 1000f750 f   myIDirect3DDevice9.obj
 0001:0000e780       ?SetLight@myIDirect3DDevice9@@UAGJKPBU_D3DLIGHT9@@@Z 1000f780 f   myIDirect3DDevice9.obj
 0001:0000e7b0       ?GetLight@myIDirect3DDevice9@@UAGJKPAU_D3DLIGHT9@@@Z 1000f7b0 f   myIDirect3DDevice9.obj
 0001:0000e7e0       ?LightEnable@myIDirect3DDevice9@@UAGJKH@Z 1000f7e0 f   myIDirect3DDevice9.obj
 0001:0000e810       ?GetLightEnable@myIDirect3DDevice9@@UAGJKPAH@Z 1000f810 f   myIDirect3DDevice9.obj
 0001:0000e840       ?SetClipPlane@myIDirect3DDevice9@@UAGJKPBM@Z 1000f840 f   myIDirect3DDevice9.obj
 0001:0000e870       ?GetClipPlane@myIDirect3DDevice9@@UAGJKPAM@Z 1000f870 f   myIDirect3DDevice9.obj
 0001:0000e8a0       ?SetRenderState@myIDirect3DDevice9@@UAGJW4_D3DRENDERSTATETYPE@@K@Z 1000f8a0 f   myIDirect3DDevice9.obj
 0001:0000e8d0       ?GetRenderState@myIDirect3DDevice9@@UAGJW4_D3DRENDERSTATETYPE@@PAK@Z 1000f8d0 f   myIDirect3DDevice9.obj
 0001:0000e900       ?CreateStateBlock@myIDirect3DDevice9@@UAGJW4_D3DSTATEBLOCKTYPE@@PAPAUIDirect3DStateBlock9@@@Z 1000f900 f   myIDirect3DDevice9.obj
 0001:0000e930       ?BeginStateBlock@myIDirect3DDevice9@@UAGJXZ 1000f930 f   myIDirect3DDevice9.obj
 0001:0000e950       ?EndStateBlock@myIDirect3DDevice9@@UAGJPAPAUIDirect3DStateBlock9@@@Z 1000f950 f   myIDirect3DDevice9.obj
 0001:0000e980       ?SetClipStatus@myIDirect3DDevice9@@UAGJPBU_D3DCLIPSTATUS9@@@Z 1000f980 f   myIDirect3DDevice9.obj
 0001:0000e9b0       ?GetClipStatus@myIDirect3DDevice9@@UAGJPAU_D3DCLIPSTATUS9@@@Z 1000f9b0 f   myIDirect3DDevice9.obj
 0001:0000e9e0       ?GetTexture@myIDirect3DDevice9@@UAGJKPAPAUIDirect3DBaseTexture9@@@Z 1000f9e0 f   myIDirect3DDevice9.obj
 0001:0000ea10       ?SetTexture@myIDirect3DDevice9@@UAGJKPAUIDirect3DBaseTexture9@@@Z 1000fa10 f   myIDirect3DDevice9.obj
 0001:0000ea40       ?GetTextureStageState@myIDirect3DDevice9@@UAGJKW4_D3DTEXTURESTAGESTATETYPE@@PAK@Z 1000fa40 f   myIDirect3DDevice9.obj
 0001:0000ea70       ?SetTextureStageState@myIDirect3DDevice9@@UAGJKW4_D3DTEXTURESTAGESTATETYPE@@K@Z 1000fa70 f   myIDirect3DDevice9.obj
 0001:0000eaa0       ?GetSamplerState@myIDirect3DDevice9@@UAGJKW4_D3DSAMPLERSTATETYPE@@PAK@Z 1000faa0 f   myIDirect3DDevice9.obj
 0001:0000ead0       ?SetSamplerState@myIDirect3DDevice9@@UAGJKW4_D3DSAMPLERSTATETYPE@@K@Z 1000fad0 f   myIDirect3DDevice9.obj
 0001:0000eb00       ?ValidateDevice@myIDirect3DDevice9@@UAGJPAK@Z 1000fb00 f   myIDirect3DDevice9.obj
 0001:0000eb30       ?SetPaletteEntries@myIDirect3DDevice9@@UAGJIPBUtagPALETTEENTRY@@@Z 1000fb30 f   myIDirect3DDevice9.obj
 0001:0000eb60       ?GetPaletteEntries@myIDirect3DDevice9@@UAGJIPAUtagPALETTEENTRY@@@Z 1000fb60 f   myIDirect3DDevice9.obj
 0001:0000eb90       ?SetCurrentTexturePalette@myIDirect3DDevice9@@UAGJI@Z 1000fb90 f   myIDirect3DDevice9.obj
 0001:0000ebc0       ?GetCurrentTexturePalette@myIDirect3DDevice9@@UAGJPAI@Z 1000fbc0 f   myIDirect3DDevice9.obj
 0001:0000ebf0       ?SetScissorRect@myIDirect3DDevice9@@UAGJPBUtagRECT@@@Z 1000fbf0 f   myIDirect3DDevice9.obj
 0001:0000ec20       ?GetScissorRect@myIDirect3DDevice9@@UAGJPAUtagRECT@@@Z 1000fc20 f   myIDirect3DDevice9.obj
 0001:0000ec50       ?SetSoftwareVertexProcessing@myIDirect3DDevice9@@UAGJH@Z 1000fc50 f   myIDirect3DDevice9.obj
 0001:0000ec80       ?GetSoftwareVertexProcessing@myIDirect3DDevice9@@UAGHXZ 1000fc80 f   myIDirect3DDevice9.obj
 0001:0000eca0       ?SetNPatchMode@myIDirect3DDevice9@@UAGJM@Z 1000fca0 f   myIDirect3DDevice9.obj
 0001:0000ecd0       ?GetNPatchMode@myIDirect3DDevice9@@UAGMXZ 1000fcd0 f   myIDirect3DDevice9.obj
 0001:0000ecf0       ?DrawPrimitive@myIDirect3DDevice9@@UAGJW4_D3DPRIMITIVETYPE@@II@Z 1000fcf0 f   myIDirect3DDevice9.obj
 0001:0000ed20       ?DrawIndexedPrimitive@myIDirect3DDevice9@@UAGJW4_D3DPRIMITIVETYPE@@HIIII@Z 1000fd20 f   myIDirect3DDevice9.obj
 0001:0000ed80       ?DrawPrimitiveUP@myIDirect3DDevice9@@UAGJW4_D3DPRIMITIVETYPE@@IPBXI@Z 1000fd80 f   myIDirect3DDevice9.obj
 0001:0000edb0       ?DrawIndexedPrimitiveUP@myIDirect3DDevice9@@UAGJW4_D3DPRIMITIVETYPE@@IIIPBXW4_D3DFORMAT@@1I@Z 1000fdb0 f   myIDirect3DDevice9.obj
 0001:0000edf0       ?ProcessVertices@myIDirect3DDevice9@@UAGJIIIPAUIDirect3DVertexBuffer9@@PAUIDirect3DVertexDeclaration9@@K@Z 1000fdf0 f   myIDirect3DDevice9.obj
 0001:0000ee30       ?CreateVertexDeclaration@myIDirect3DDevice9@@UAGJPBU_D3DVERTEXELEMENT9@@PAPAUIDirect3DVertexDeclaration9@@@Z 1000fe30 f   myIDirect3DDevice9.obj
 0001:0000ee60       ?SetVertexDeclaration@myIDirect3DDevice9@@UAGJPAUIDirect3DVertexDeclaration9@@@Z 1000fe60 f   myIDirect3DDevice9.obj
 0001:0000ee90       ?GetVertexDeclaration@myIDirect3DDevice9@@UAGJPAPAUIDirect3DVertexDeclaration9@@@Z 1000fe90 f   myIDirect3DDevice9.obj
 0001:0000eec0       ?SetFVF@myIDirect3DDevice9@@UAGJK@Z 1000fec0 f   myIDirect3DDevice9.obj
 0001:0000eef0       ?GetFVF@myIDirect3DDevice9@@UAGJPAK@Z 1000fef0 f   myIDirect3DDevice9.obj
 0001:0000ef20       ?CreateVertexShader@myIDirect3DDevice9@@UAGJPBKPAPAUIDirect3DVertexShader9@@@Z 1000ff20 f   myIDirect3DDevice9.obj
 0001:0000ef50       ?SetVertexShader@myIDirect3DDevice9@@UAGJPAUIDirect3DVertexShader9@@@Z 1000ff50 f   myIDirect3DDevice9.obj
 0001:0000ef80       ?GetVertexShader@myIDirect3DDevice9@@UAGJPAPAUIDirect3DVertexShader9@@@Z 1000ff80 f   myIDirect3DDevice9.obj
 0001:0000efb0       ?SetVertexShaderConstantF@myIDirect3DDevice9@@UAGJIPBMI@Z 1000ffb0 f   myIDirect3DDevice9.obj
 0001:0000efe0       ?GetVertexShaderConstantF@myIDirect3DDevice9@@UAGJIPAMI@Z 1000ffe0 f   myIDirect3DDevice9.obj
 0001:0000f010       ?SetVertexShaderConstantI@myIDirect3DDevice9@@UAGJIPBHI@Z 10010010 f   myIDirect3DDevice9.obj
 0001:0000f040       ?GetVertexShaderConstantI@myIDirect3DDevice9@@UAGJIPAHI@Z 10010040 f   myIDirect3DDevice9.obj
 0001:0000f070       ?SetVertexShaderConstantB@myIDirect3DDevice9@@UAGJIPBHI@Z 10010070 f   myIDirect3DDevice9.obj
 0001:0000f0a0       ?GetVertexShaderConstantB@myIDirect3DDevice9@@UAGJIPAHI@Z 100100a0 f   myIDirect3DDevice9.obj
 0001:0000f0d0       ?SetStreamSource@myIDirect3DDevice9@@UAGJIPAUIDirect3DVertexBuffer9@@II@Z 100100d0 f   myIDirect3DDevice9.obj
 0001:0000f100       ?GetStreamSource@myIDirect3DDevice9@@UAGJIPAPAUIDirect3DVertexBuffer9@@PAI1@Z 10010100 f   myIDirect3DDevice9.obj
 0001:0000f130       ?SetStreamSourceFreq@myIDirect3DDevice9@@UAGJII@Z 10010130 f   myIDirect3DDevice9.obj
 0001:0000f160       ?GetStreamSourceFreq@myIDirect3DDevice9@@UAGJIPAI@Z 10010160 f   myIDirect3DDevice9.obj
 0001:0000f190       ?SetIndices@myIDirect3DDevice9@@UAGJPAUIDirect3DIndexBuffer9@@@Z 10010190 f   myIDirect3DDevice9.obj
 0001:0000f1c0       ?GetIndices@myIDirect3DDevice9@@UAGJPAPAUIDirect3DIndexBuffer9@@@Z 100101c0 f   myIDirect3DDevice9.obj
 0001:0000f1f0       ?CreatePixelShader@myIDirect3DDevice9@@UAGJPBKPAPAUIDirect3DPixelShader9@@@Z 100101f0 f   myIDirect3DDevice9.obj
 0001:0000f220       ?SetPixelShader@myIDirect3DDevice9@@UAGJPAUIDirect3DPixelShader9@@@Z 10010220 f   myIDirect3DDevice9.obj
 0001:0000f250       ?GetPixelShader@myIDirect3DDevice9@@UAGJPAPAUIDirect3DPixelShader9@@@Z 10010250 f   myIDirect3DDevice9.obj
 0001:0000f280       ?SetPixelShaderConstantF@myIDirect3DDevice9@@UAGJIPBMI@Z 10010280 f   myIDirect3DDevice9.obj
 0001:0000f2b0       ?GetPixelShaderConstantF@myIDirect3DDevice9@@UAGJIPAMI@Z 100102b0 f   myIDirect3DDevice9.obj
 0001:0000f2e0       ?SetPixelShaderConstantI@myIDirect3DDevice9@@UAGJIPBHI@Z 100102e0 f   myIDirect3DDevice9.obj
 0001:0000f310       ?GetPixelShaderConstantI@myIDirect3DDevice9@@UAGJIPAHI@Z 10010310 f   myIDirect3DDevice9.obj
 0001:0000f340       ?SetPixelShaderConstantB@myIDirect3DDevice9@@UAGJIPBHI@Z 10010340 f   myIDirect3DDevice9.obj
 0001:0000f370       ?GetPixelShaderConstantB@myIDirect3DDevice9@@UAGJIPAHI@Z 10010370 f   myIDirect3DDevice9.obj
 0001:0000f3a0       ?DrawRectPatch@myIDirect3DDevice9@@UAGJIPBMPBU_D3DRECTPATCH_INFO@@@Z 100103a0 f   myIDirect3DDevice9.obj
 0001:0000f3d0       ?DrawTriPatch@myIDirect3DDevice9@@UAGJIPBMPBU_D3DTRIPATCH_INFO@@@Z 100103d0 f   myIDirect3DDevice9.obj
 0001:0000f400       ?DeletePatch@myIDirect3DDevice9@@UAGJI@Z 10010400 f   myIDirect3DDevice9.obj
 0001:0000f430       ?CreateQuery@myIDirect3DDevice9@@UAGJW4_D3DQUERYTYPE@@PAPAUIDirect3DQuery9@@@Z 10010430 f   myIDirect3DDevice9.obj
 0001:0000f480       ?ShowWeAreHere@myIDirect3DDevice9@@AAEXXZ 10010480 f   myIDirect3DDevice9.obj
 0001:0000f4e0       ??_EmyIDirect3DDevice9@@UAEPAXI@Z 100104e0 f i myIDirect3DDevice9.obj
 0001:0000f4e0       ??_GmyIDirect3DDevice9@@UAEPAXI@Z 100104e0 f i myIDirect3DDevice9.obj
 0001:0000f510       ?Sys_RunInit@@YAXXZ        10010510 f   PatchMW2.obj
 0001:0000f520       ?PatchMW2@@YAXXZ           10010520 f   PatchMW2.obj
 0001:0000f5c0       ?WinMainInitHookStub@@YAXXZ 100105c0 f   PatchMW2.obj
 0001:0000f5d0       ?SysInitHookStub@@YAXXZ    100105d0 f   PatchMW2.obj
 0001:0000f5e0       ?ahfunc@@YAHHPAXIHJPBEH@Z  100105e0 f   PatchMW2.obj
 0001:0000f630       ?PatchMW2_159@@YAXXZ       10010630 f   PatchMW2.obj
 0001:0000f8e0       ?PatchMW2_FFHash@@YAXXZ    100108e0 f   PatchMW2.obj
 0001:0000f960       ?ExecIsFSHookFunc@@YAHPBD0@Z 10010960 f   PatchMW2.obj
 0001:0000f990       ?ExecIsFSHookStub@@YAXXZ   10010990 f   PatchMW2.obj
 0001:0000f9a0       ?PatchMW2_Modding@@YAXXZ   100109a0 f   PatchMW2.obj
 0001:0000fad0       ?CustomUnhandledExceptionFilter@@YGJPAU_EXCEPTION_POINTERS@@@Z 10010ad0 f   PatchMW2.obj
 0001:0000fc80       ?InstallCrashHandler@@YAXXZ 10010c80 f   PatchMW2.obj
 0001:0000fca0       ?DoSysInit@@YAXXZ          10010ca0 f   PatchMW2.obj
 0001:0000fcb0       ?oneAtATimeHash@@YAIPAD@Z  10010cb0 f   PatchMW2.obj
 0001:0000fd80       ?custom_gethostbyname@@YGPAUhostent@@PBD@Z 10010d80 f   PatchMW2.obj
 0001:0000fe30       ?PatchMW2_Servers@@YAXXZ   10010e30 f   PatchMW2.obj
 0001:0000fe40       ?HelloIW@@YAXH@Z           10010e40 f   PatchMW2.obj
 0001:0000fe80       ?HelloHookStub@@YAXXZ      10010e80 f   PatchMW2.obj
 0001:0000fe90       ?HelloHook2Stub@@YAXXZ     10010e90 f   PatchMW2.obj
 0001:0000fea0       ?PatchMW2_Hello@@YAXXZ     10010ea0 f   PatchMW2.obj
 0001:0000fef0       ?IWClient_HandleLobbyData@@YAPBDPBD@Z 10010ef0 f   PatchMW2.obj
 0001:0000ffb0       ?ConnectToAddress@@YAXUnetadr_t@@@Z 10010fb0 f   PatchMW2.obj
 0001:00010010       ?CL_OpenStore_f@@YAXXZ     10011010 f   PatchMW2.obj
 0001:00010040       ?PatchMW2_Client@@YAXXZ    10011040 f   PatchMW2.obj
 0001:000100f0       ?PatchMW2_VA@@YAXXZ        100110f0 f   PatchMW2.obj
 0001:00010120       ?AIL_init_sample_hook@@YGXHHH@Z 10011120 f   PatchMW2.obj
 0001:00010170       ?AIL_set_sample_channel_levels_hook@@YGXHHH@Z 10011170 f   PatchMW2.obj
 0001:000101c0       ?AIL_sample_channel_levels_hook@@YGXHH@Z 100111c0 f   PatchMW2.obj
 0001:000101d0       ?AIL_sample_stage_property_hook@@YGXHHHHHH@Z 100111d0 f   PatchMW2.obj
 0001:00010230       ?PatchMW2_Miley@@YAXXZ     10011230 f   PatchMW2.obj
 0001:00010290       ?MissingModelHook@@YAPAXHPAD@Z 10011290 f   PatchMW2.obj
 0001:000102d0       ?PatchMW2_MissingModels@@YAXXZ 100112d0 f   PatchMW2.obj
 0001:000102e0       ??0CSteamID@@QAE@IIW4EUniverse@@W4EAccountType@@@Z 100112e0 f i PatchMW2.obj
 0001:00010310       ?InstancedSet@CSteamID@@QAEXIIW4EUniverse@@W4EAccountType@@@Z 10011310 f i PatchMW2.obj
 0001:00010390       ?_arenaMapOffsetHook1@@YAXXZ 10011390 f   PatchMW2ArenaLength.obj
 0001:000103a0       ?_arenaMapOffsetHook2@@YAXXZ 100113a0 f   PatchMW2ArenaLength.obj
 0001:000103b0       ?_arenaMapOffsetHook3@@YAXXZ 100113b0 f   PatchMW2ArenaLength.obj
 0001:000103c0       ?PatchMW2_ArenaLength@@YAXXZ 100113c0 f   PatchMW2ArenaLength.obj
 0001:00010590       ??R<lambda0>@?A0xeaf56b7a@@QBEXH@Z 10011590 f i PatchMW2ArenaLength.obj
 0001:000105d0       ?CanWeLoadAsset@@YADW4assetType_e@@PAX@Z 100115d0 f   PatchMW2AssetRestrict.obj
 0001:000106a0       ?DoBeforeLoadAsset@@YAXW4assetType_e@@PAPAX@Z 100116a0 f   PatchMW2AssetRestrict.obj
 0001:000106f0       ?LoadDefaultAsset@@YAPAXW4assetType_e@@@Z 100116f0 f   PatchMW2AssetRestrict.obj
 0001:00010720       ?DB_AddXAssetHookStub@@YAXXZ 10011720 f   PatchMW2AssetRestrict.obj
 0001:00010770       ?PatchMW2_AssetRestrict@@YAXXZ 10011770 f   PatchMW2AssetRestrict.obj
 0001:000107a0       ?end@?$vector@UUIFeeder_t@@V?$allocator@UUIFeeder_t@@@std@@@std@@QAE?AV?$_Vector_iterator@V?$_Vector_val@UUIFeeder_t@@V?$allocator@UUIFeeder_t@@@std@@@std@@@2@XZ 100117a0 f i PatchMW2UIScripts.obj
 0001:000107a0       ?end@?$vector@HV?$allocator@H@std@@@std@@QAE?AV?$_Vector_iterator@V?$_Vector_val@HV?$allocator@H@std@@@std@@@2@XZ 100117a0 f i Script.obj
 0001:000107a0       ?end@?$vector@V?$_List_iterator@V?$_List_val@U?$pair@$$CBHUNPFriend@@@std@@V?$allocator@U?$pair@$$CBHUNPFriend@@@std@@@2@@std@@@std@@V?$allocator@V?$_List_iterator@V?$_List_val@U?$pair@$$CBHUNPFriend@@@std@@V?$allocator@U?$pair@$$CBHUNPFriend@@@std@@@2@@std@@@std@@@2@@std@@QAE?AV?$_Vector_iterator@V?$_Vector_val@V?$_List_iterator@V?$_List_val@U?$pair@$$CBHUNPFriend@@@std@@V?$allocator@U?$pair@$$CBHUNPFriend@@@std@@@2@@std@@@std@@V?$allocator@V?$_List_iterator@V?$_List_val@U?$pair@$$CBHUNPFriend@@@std@@V?$allocator@U?$pair@$$CBHUNPFriend@@@std@@@2@@std@@@std@@@2@@std@@@2@XZ 100117a0 f i PatchMW2Friends.obj
 0001:000107a0       ?end@?$vector@V?$_List_iterator@V?$_List_val@U?$pair@$$CBV?$basic_string@DU?$char_traits@D@std@@V?$allocator@D@2@@std@@P6AXH@Z@std@@V?$allocator@U?$pair@$$CBV?$basic_string@DU?$char_traits@D@std@@V?$allocator@D@2@@std@@P6AXH@Z@std@@@2@@std@@@std@@V?$allocator@V?$_List_iterator@V?$_List_val@U?$pair@$$CBV?$basic_string@DU?$char_traits@D@std@@V?$allocator@D@2@@std@@P6AXH@Z@std@@V?$allocator@U?$pair@$$CBV?$basic_string@DU?$char_traits@D@std@@V?$allocator@D@2@@std@@P6AXH@Z@std@@@2@@std@@@std@@@2@@std@@QAE?AV?$_Vector_iterator@V?$_Vector_val@V?$_List_iterator@V?$_List_val@U?$pair@$$CBV?$basic_string@DU?$char_traits@D@std@@V?$allocator@D@2@@std@@P6AXH@Z@std@@V?$allocator@U?$pair@$$CBV?$basic_string@DU?$char_traits@D@std@@V?$allocator@D@2@@std@@P6AXH@Z@std@@@2@@std@@@std@@V?$allocator@V?$_List_iterator@V?$_List_val@U?$pair@$$CBV?$basic_string@DU?$char_traits@D@std@@V?$allocator@D@2@@std@@P6AXH@Z@std@@V?$allocator@U?$pair@$$CBV?$basic_string@DU?$char_traits@D@std@@V?$allocator@D@2@@std@@P6AXH@Z@std@@@2@@std@@@std@@@2@@std@@@2@XZ 100117a0 f i GameInterface.obj
 0001:000107a0       ?end@?$vector@V?$_List_iterator@V?$_List_val@U?$pair@QAXK@std@@V?$allocator@U?$pair@QAXK@std@@@2@@std@@@std@@V?$allocator@V?$_List_iterator@V?$_List_val@U?$pair@QAXK@std@@V?$allocator@U?$pair@QAXK@std@@@2@@std@@@std@@@2@@std@@QAE?AV?$_Vector_iterator@V?$_Vector_val@V?$_List_iterator@V?$_List_val@U?$pair@QAXK@std@@V?$allocator@U?$pair@QAXK@std@@@2@@std@@@std@@V?$allocator@V?$_List_iterator@V?$_List_val@U?$pair@QAXK@std@@V?$allocator@U?$pair@QAXK@std@@@2@@std@@@std@@@2@@std@@@2@XZ 100117a0 f i PatchMW2FilePointers.obj
 0001:000107a0       ?end@?$vector@V?$_List_iterator@V?$_List_val@U?$pair@$$CB_K_N@std@@V?$allocator@U?$pair@$$CB_K_N@std@@@2@@std@@@std@@V?$allocator@V?$_List_iterator@V?$_List_val@U?$pair@$$CB_K_N@std@@V?$allocator@U?$pair@$$CB_K_N@std@@@2@@std@@@std@@@2@@std@@QAE?AV?$_Vector_iterator@V?$_Vector_val@V?$_List_iterator@V?$_List_val@U?$pair@$$CB_K_N@std@@V?$allocator@U?$pair@$$CB_K_N@std@@@2@@std@@@std@@V?$allocator@V?$_List_iterator@V?$_List_val@U?$pair@$$CB_K_N@std@@V?$allocator@U?$pair@$$CB_K_N@std@@@2@@std@@@std@@@2@@std@@@2@XZ 100117a0 f i SteamBase.obj
 0001:000107a0       ?end@?$vector@Ugscr_file_t@@V?$allocator@Ugscr_file_t@@@std@@@std@@QAE?AV?$_Vector_iterator@V?$_Vector_val@Ugscr_file_t@@V?$allocator@Ugscr_file_t@@@std@@@std@@@2@XZ 100117a0 f i Script.obj
 0001:000107a0       ?end@?$vector@PAVCCallbackBase@@V?$allocator@PAVCCallbackBase@@@std@@@std@@QAE?AV?$_Vector_iterator@V?$_Vector_val@PAVCCallbackBase@@V?$allocator@PAVCCallbackBase@@@std@@@std@@@2@XZ 100117a0 f i SteamBase.obj
 0001:000107a0       ?end@?$vector@UUIScript_t@@V?$allocator@UUIScript_t@@@std@@@std@@QAE?AV?$_Vector_iterator@V?$_Vector_val@UUIScript_t@@V?$allocator@UUIScript_t@@@std@@@std@@@2@XZ 100117a0 f i PatchMW2UIScripts.obj
 0001:000107a0       ?end@?$vector@USteamAPIResult_s@@V?$allocator@USteamAPIResult_s@@@std@@@std@@QAE?AV?$_Vector_iterator@V?$_Vector_val@USteamAPIResult_s@@V?$allocator@USteamAPIResult_s@@@std@@@std@@@2@XZ 100117a0 f i SteamBase.obj
 0001:000107a0       ?end@?$vector@V?$basic_string@DU?$char_traits@D@std@@V?$allocator@D@2@@std@@V?$allocator@V?$basic_string@DU?$char_traits@D@std@@V?$allocator@D@2@@std@@@2@@std@@QAE?AV?$_Vector_iterator@V?$_Vector_val@V?$basic_string@DU?$char_traits@D@std@@V?$allocator@D@2@@std@@V?$allocator@V?$basic_string@DU?$char_traits@D@std@@V?$allocator@D@2@@std@@@2@@std@@@2@XZ 100117a0 f i PatchMW2Packet.obj
 0001:000107a0       ?end@?$vector@V?$_List_iterator@V?$_List_val@U?$pair@$$CBKK@std@@V?$allocator@U?$pair@$$CBKK@std@@@2@@std@@@std@@V?$allocator@V?$_List_iterator@V?$_List_val@U?$pair@$$CBKK@std@@V?$allocator@U?$pair@$$CBKK@std@@@2@@std@@@std@@@2@@std@@QAE?AV?$_Vector_iterator@V?$_Vector_val@V?$_List_iterator@V?$_List_val@U?$pair@$$CBKK@std@@V?$allocator@U?$pair@$$CBKK@std@@@2@@std@@@std@@V?$allocator@V?$_List_iterator@V?$_List_val@U?$pair@$$CBKK@std@@V?$allocator@U?$pair@$$CBKK@std@@@2@@std@@@std@@@2@@std@@@2@XZ 100117a0 f i PatchMW2FilePointers.obj
 0001:000107a0       ?end@?$vector@UdemoInfo_s@@V?$allocator@UdemoInfo_s@@@std@@@std@@QAE?AV?$_Vector_iterator@V?$_Vector_val@UdemoInfo_s@@V?$allocator@UdemoInfo_s@@@std@@@std@@@2@XZ 100117a0 f i PatchMW2TheatreMenu.obj
 0001:000107a0       ?end@?$vector@UUIClickHandler_t@@V?$allocator@UUIClickHandler_t@@@std@@@std@@QAE?AV?$_Vector_iterator@V?$_Vector_val@UUIClickHandler_t@@V?$allocator@UUIClickHandler_t@@@std@@@std@@@2@XZ 100117a0 f i PatchMW2UIScripts.obj
 0001:000107a0       ?end@?$vector@V?$_List_iterator@V?$_List_val@U?$pair@$$CBK_N@std@@V?$allocator@U?$pair@$$CBK_N@std@@@2@@std@@@std@@V?$allocator@V?$_List_iterator@V?$_List_val@U?$pair@$$CBK_N@std@@V?$allocator@U?$pair@$$CBK_N@std@@@2@@std@@@std@@@2@@std@@QAE?AV?$_Vector_iterator@V?$_Vector_val@V?$_List_iterator@V?$_List_val@U?$pair@$$CBK_N@std@@V?$allocator@U?$pair@$$CBK_N@std@@@2@@std@@@std@@V?$allocator@V?$_List_iterator@V?$_List_val@U?$pair@$$CBK_N@std@@V?$allocator@U?$pair@$$CBK_N@std@@@2@@std@@@std@@@2@@std@@@2@XZ 100117a0 f i PatchMW2AssetRestrict.obj
 0001:000107a0       ?end@?$vector@UServerStorageEntry@@V?$allocator@UServerStorageEntry@@@std@@@std@@QAE?AV?$_Vector_iterator@V?$_Vector_val@UServerStorageEntry@@V?$allocator@UServerStorageEntry@@@std@@@std@@@2@XZ 100117a0 f i ServerStorage.obj
 0001:000107a0       ?end@?$vector@PAUmenuDef_t@@V?$allocator@PAUmenuDef_t@@@std@@@std@@QAE?AV?$_Vector_iterator@V?$_Vector_val@PAUmenuDef_t@@V?$allocator@PAUmenuDef_t@@@std@@@std@@@2@XZ 100117a0 f i PatchMW2UILoading.obj
 0001:000107a0       ?end@?$vector@V?$_List_iterator@V?$_List_val@U?$pair@$$CBV?$basic_string@DU?$char_traits@D@std@@V?$allocator@D@2@@std@@PAUVehicleDef@@@std@@V?$allocator@U?$pair@$$CBV?$basic_string@DU?$char_traits@D@std@@V?$allocator@D@2@@std@@PAUVehicleDef@@@std@@@2@@std@@@std@@V?$allocator@V?$_List_iterator@V?$_List_val@U?$pair@$$CBV?$basic_string@DU?$char_traits@D@std@@V?$allocator@D@2@@std@@PAUVehicleDef@@@std@@V?$allocator@U?$pair@$$CBV?$basic_string@DU?$char_traits@D@std@@V?$allocator@D@2@@std@@PAUVehicleDef@@@std@@@2@@std@@@std@@@2@@std@@QAE?AV?$_Vector_iterator@V?$_Vector_val@V?$_List_iterator@V?$_List_val@U?$pair@$$CBV?$basic_string@DU?$char_traits@D@std@@V?$allocator@D@2@@std@@PAUVehicleDef@@@std@@V?$allocator@U?$pair@$$CBV?$basic_string@DU?$char_traits@D@std@@V?$allocator@D@2@@std@@PAUVehicleDef@@@std@@@2@@std@@@std@@V?$allocator@V?$_List_iterator@V?$_List_val@U?$pair@$$CBV?$basic_string@DU?$char_traits@D@std@@V?$allocator@D@2@@std@@PAUVehicleDef@@@std@@V?$allocator@U?$pair@$$CBV?$basic_string@DU?$char_traits@D@std@@V?$allocator@D@2@@std@@PAUVehicleDef@@@std@@@2@@std@@@std@@@2@@std@@@2@XZ 100117a0 f i PatchMW2LoadVehicleDef.obj
 0001:000107a0       ?end@?$vector@V?$_List_iterator@V?$_List_val@U?$pair@$$CBKPAX@std@@V?$allocator@U?$pair@$$CBKPAX@std@@@2@@std@@@std@@V?$allocator@V?$_List_iterator@V?$_List_val@U?$pair@$$CBKPAX@std@@V?$allocator@U?$pair@$$CBKPAX@std@@@2@@std@@@std@@@2@@std@@QAE?AV?$_Vector_iterator@V?$_Vector_val@V?$_List_iterator@V?$_List_val@U?$pair@$$CBKPAX@std@@V?$allocator@U?$pair@$$CBKPAX@std@@@2@@std@@@std@@V?$allocator@V?$_List_iterator@V?$_List_val@U?$pair@$$CBKPAX@std@@V?$allocator@U?$pair@$$CBKPAX@std@@@2@@std@@@std@@@2@@std@@@2@XZ 100117a0 f i PatchMW2FilePointers.obj
 0001:000107a0       ?end@?$vector@PAUMaterial@@V?$allocator@PAUMaterial@@@std@@@std@@QAE?AV?$_Vector_iterator@V?$_Vector_val@PAUMaterial@@V?$allocator@PAUMaterial@@@std@@@std@@@2@XZ 100117a0 f i PatchMW2WeaponCamos.obj
 0001:000107a0       ?end@?$vector@V?$_List_iterator@V?$_List_val@U?$pair@$$CBV?$basic_string@DU?$char_traits@D@std@@V?$allocator@D@2@@std@@_N@std@@V?$allocator@U?$pair@$$CBV?$basic_string@DU?$char_traits@D@std@@V?$allocator@D@2@@std@@_N@std@@@2@@std@@@std@@V?$allocator@V?$_List_iterator@V?$_List_val@U?$pair@$$CBV?$basic_string@DU?$char_traits@D@std@@V?$allocator@D@2@@std@@_N@std@@V?$allocator@U?$pair@$$CBV?$basic_string@DU?$char_traits@D@std@@V?$allocator@D@2@@std@@_N@std@@@2@@std@@@std@@@2@@std@@QAE?AV?$_Vector_iterator@V?$_Vector_val@V?$_List_iterator@V?$_List_val@U?$pair@$$CBV?$basic_string@DU?$char_traits@D@std@@V?$allocator@D@2@@std@@_N@std@@V?$allocator@U?$pair@$$CBV?$basic_string@DU?$char_traits@D@std@@V?$allocator@D@2@@std@@_N@std@@@2@@std@@@std@@V?$allocator@V?$_List_iterator@V?$_List_val@U?$pair@$$CBV?$basic_string@DU?$char_traits@D@std@@V?$allocator@D@2@@std@@_N@std@@V?$allocator@U?$pair@$$CBV?$basic_string@DU?$char_traits@D@std@@V?$allocator@D@2@@std@@_N@std@@@2@@std@@@std@@@2@@std@@@2@XZ 100117a0 f i PatchMW2Experiments.obj
 0001:000107a0       ?end@?$vector@V?$_List_iterator@V?$_List_val@U?$pair@$$CB_KPAVCCallbackBase@@@std@@V?$allocator@U?$pair@$$CB_KPAVCCallbackBase@@@std@@@2@@std@@@std@@V?$allocator@V?$_List_iterator@V?$_List_val@U?$pair@$$CB_KPAVCCallbackBase@@@std@@V?$allocator@U?$pair@$$CB_KPAVCCallbackBase@@@std@@@2@@std@@@std@@@2@@std@@QAE?AV?$_Vector_iterator@V?$_Vector_val@V?$_List_iterator@V?$_List_val@U?$pair@$$CB_KPAVCCallbackBase@@@std@@V?$allocator@U?$pair@$$CB_KPAVCCallbackBase@@@std@@@2@@std@@@std@@V?$allocator@V?$_List_iterator@V?$_List_val@U?$pair@$$CB_KPAVCCallbackBase@@@std@@V?$allocator@U?$pair@$$CB_KPAVCCallbackBase@@@std@@@2@@std@@@std@@@2@@std@@@2@XZ 100117a0 f i SteamBase.obj
 0001:000107d0       ?size@?$vector@V?$_List_iterator@V?$_List_val@U?$pair@$$CBK_N@std@@V?$allocator@U?$pair@$$CBK_N@std@@@2@@std@@@std@@V?$allocator@V?$_List_iterator@V?$_List_val@U?$pair@$$CBK_N@std@@V?$allocator@U?$pair@$$CBK_N@std@@@2@@std@@@std@@@2@@std@@QBEIXZ 100117d0 f i PatchMW2AssetRestrict.obj
 0001:000107d0       ?size@?$vector@V?$_List_iterator@V?$_List_val@U?$pair@$$CBHUNPFriend@@@std@@V?$allocator@U?$pair@$$CBHUNPFriend@@@std@@@2@@std@@@std@@V?$allocator@V?$_List_iterator@V?$_List_val@U?$pair@$$CBHUNPFriend@@@std@@V?$allocator@U?$pair@$$CBHUNPFriend@@@std@@@2@@std@@@std@@@2@@std@@QBEIXZ 100117d0 f i PatchMW2Friends.obj
 0001:000107d0       ?size@?$vector@PAUchallengeState_t@@V?$allocator@PAUchallengeState_t@@@std@@@std@@QBEIXZ 100117d0 f i PatchMW2PreAuthenticate.obj
 0001:000107d0       ?size@?$vector@V?$_List_iterator@V?$_List_val@U?$pair@$$CBV?$basic_string@DU?$char_traits@D@std@@V?$allocator@D@2@@std@@PAUVehicleDef@@@std@@V?$allocator@U?$pair@$$CBV?$basic_string@DU?$char_traits@D@std@@V?$allocator@D@2@@std@@PAUVehicleDef@@@std@@@2@@std@@@std@@V?$allocator@V?$_List_iterator@V?$_List_val@U?$pair@$$CBV?$basic_string@DU?$char_traits@D@std@@V?$allocator@D@2@@std@@PAUVehicleDef@@@std@@V?$allocator@U?$pair@$$CBV?$basic_string@DU?$char_traits@D@std@@V?$allocator@D@2@@std@@PAUVehicleDef@@@std@@@2@@std@@@std@@@2@@std@@QBEIXZ 100117d0 f i PatchMW2LoadVehicleDef.obj
 0001:000107d0       ?size@?$vector@HV?$allocator@H@std@@@std@@QBEIXZ 100117d0 f i Script.obj
 0001:000107d0       ?size@?$vector@V?$_List_iterator@V?$_List_val@U?$pair@$$CBKK@std@@V?$allocator@U?$pair@$$CBKK@std@@@2@@std@@@std@@V?$allocator@V?$_List_iterator@V?$_List_val@U?$pair@$$CBKK@std@@V?$allocator@U?$pair@$$CBKK@std@@@2@@std@@@std@@@2@@std@@QBEIXZ 100117d0 f i PatchMW2FilePointers.obj
 0001:000107d0       ?size@?$vector@V?$_List_iterator@V?$_List_val@U?$pair@$$CBKPAX@std@@V?$allocator@U?$pair@$$CBKPAX@std@@@2@@std@@@std@@V?$allocator@V?$_List_iterator@V?$_List_val@U?$pair@$$CBKPAX@std@@V?$allocator@U?$pair@$$CBKPAX@std@@@2@@std@@@std@@@2@@std@@QBEIXZ 100117d0 f i PatchMW2FilePointers.obj
 0001:000107d0       ?size@?$vector@V?$_List_iterator@V?$_List_val@U?$pair@$$CBV?$basic_string@DU?$char_traits@D@std@@V?$allocator@D@2@@std@@_N@std@@V?$allocator@U?$pair@$$CBV?$basic_string@DU?$char_traits@D@std@@V?$allocator@D@2@@std@@_N@std@@@2@@std@@@std@@V?$allocator@V?$_List_iterator@V?$_List_val@U?$pair@$$CBV?$basic_string@DU?$char_traits@D@std@@V?$allocator@D@2@@std@@_N@std@@V?$allocator@U?$pair@$$CBV?$basic_string@DU?$char_traits@D@std@@V?$allocator@D@2@@std@@_N@std@@@2@@std@@@std@@@2@@std@@QBEIXZ 100117d0 f i PatchMW2Experiments.obj
 0001:000107d0       ?size@?$vector@V?$_List_iterator@V?$_List_val@U?$pair@QAXK@std@@V?$allocator@U?$pair@QAXK@std@@@2@@std@@@std@@V?$allocator@V?$_List_iterator@V?$_List_val@U?$pair@QAXK@std@@V?$allocator@U?$pair@QAXK@std@@@2@@std@@@std@@@2@@std@@QBEIXZ 100117d0 f i PatchMW2FilePointers.obj
 0001:000107d0       ?size@?$vector@V?$_List_iterator@V?$_List_val@U?$pair@$$CBV?$basic_string@DU?$char_traits@D@std@@V?$allocator@D@2@@std@@P6AXH@Z@std@@V?$allocator@U?$pair@$$CBV?$basic_string@DU?$char_traits@D@std@@V?$allocator@D@2@@std@@P6AXH@Z@std@@@2@@std@@@std@@V?$allocator@V?$_List_iterator@V?$_List_val@U?$pair@$$CBV?$basic_string@DU?$char_traits@D@std@@V?$allocator@D@2@@std@@P6AXH@Z@std@@V?$allocator@U?$pair@$$CBV?$basic_string@DU?$char_traits@D@std@@V?$allocator@D@2@@std@@P6AXH@Z@std@@@2@@std@@@std@@@2@@std@@QBEIXZ 100117d0 f i GameInterface.obj
 0001:000107d0       ?size@?$vector@V?$_List_iterator@V?$_List_val@U?$pair@$$CB_KPAVCCallbackBase@@@std@@V?$allocator@U?$pair@$$CB_KPAVCCallbackBase@@@std@@@2@@std@@@std@@V?$allocator@V?$_List_iterator@V?$_List_val@U?$pair@$$CB_KPAVCCallbackBase@@@std@@V?$allocator@U?$pair@$$CB_KPAVCCallbackBase@@@std@@@2@@std@@@std@@@2@@std@@QBEIXZ 100117d0 f i SteamBase.obj
 0001:000107d0       ?size@?$vector@PAUMaterial@@V?$allocator@PAUMaterial@@@std@@@std@@QBEIXZ 100117d0 f i PatchMW2WeaponCamos.obj
 0001:000107d0       ?size@?$vector@V?$_List_iterator@V?$_List_val@U?$pair@$$CB_K_N@std@@V?$allocator@U?$pair@$$CB_K_N@std@@@2@@std@@@std@@V?$allocator@V?$_List_iterator@V?$_List_val@U?$pair@$$CB_K_N@std@@V?$allocator@U?$pair@$$CB_K_N@std@@@2@@std@@@std@@@2@@std@@QBEIXZ 100117d0 f i SteamBase.obj
 0001:000107d0       ?size@?$vector@PAUmenuDef_t@@V?$allocator@PAUmenuDef_t@@@std@@@std@@QBEIXZ 100117d0 f i PatchMW2UILoading.obj
 0001:000107d0       ?size@?$vector@PAVCCallbackBase@@V?$allocator@PAVCCallbackBase@@@std@@@std@@QBEIXZ 100117d0 f i SteamBase.obj
 0001:000107f0       ?_Compat@?$_Vector_const_iterator@V?$_Vector_val@V?$_List_iterator@V?$_List_val@U?$pair@$$CB_KPAVCCallbackBase@@@std@@V?$allocator@U?$pair@$$CB_KPAVCCallbackBase@@@std@@@2@@std@@@std@@V?$allocator@V?$_List_iterator@V?$_List_val@U?$pair@$$CB_KPAVCCallbackBase@@@std@@V?$allocator@U?$pair@$$CB_KPAVCCallbackBase@@@std@@@2@@std@@@std@@@2@@std@@@std@@QBEXABV12@@Z 100117f0 f i SteamBase.obj
 0001:000107f0       ?_Compat@?$_Vector_const_iterator@V?$_Vector_val@V?$_List_iterator@V?$_List_val@U?$pair@$$CBV?$basic_string@DU?$char_traits@D@std@@V?$allocator@D@2@@std@@PAUVehicleDef@@@std@@V?$allocator@U?$pair@$$CBV?$basic_string@DU?$char_traits@D@std@@V?$allocator@D@2@@std@@PAUVehicleDef@@@std@@@2@@std@@@std@@V?$allocator@V?$_List_iterator@V?$_List_val@U?$pair@$$CBV?$basic_string@DU?$char_traits@D@std@@V?$allocator@D@2@@std@@PAUVehicleDef@@@std@@V?$allocator@U?$pair@$$CBV?$basic_string@DU?$char_traits@D@std@@V?$allocator@D@2@@std@@PAUVehicleDef@@@std@@@2@@std@@@std@@@2@@std@@@std@@QBEXABV12@@Z 100117f0 f i PatchMW2LoadVehicleDef.obj
 0001:000107f0       ?_Compat@?$_Vector_const_iterator@V?$_Vector_val@UUIFeeder_t@@V?$allocator@UUIFeeder_t@@@std@@@std@@@std@@QBEXABV12@@Z 100117f0 f i PatchMW2UIScripts.obj
 0001:000107f0       ?_Compat@?$_Vector_const_iterator@V?$_Vector_val@V?$_List_iterator@V?$_List_val@U?$pair@$$CBKPAX@std@@V?$allocator@U?$pair@$$CBKPAX@std@@@2@@std@@@std@@V?$allocator@V?$_List_iterator@V?$_List_val@U?$pair@$$CBKPAX@std@@V?$allocator@U?$pair@$$CBKPAX@std@@@2@@std@@@std@@@2@@std@@@std@@QBEXABV12@@Z 100117f0 f i PatchMW2FilePointers.obj
 0001:000107f0       ?_Compat@?$_Vector_const_iterator@V?$_Vector_val@V?$_List_iterator@V?$_List_val@U?$pair@$$CBV?$basic_string@DU?$char_traits@D@std@@V?$allocator@D@2@@std@@P6AXH@Z@std@@V?$allocator@U?$pair@$$CBV?$basic_string@DU?$char_traits@D@std@@V?$allocator@D@2@@std@@P6AXH@Z@std@@@2@@std@@@std@@V?$allocator@V?$_List_iterator@V?$_List_val@U?$pair@$$CBV?$basic_string@DU?$char_traits@D@std@@V?$allocator@D@2@@std@@P6AXH@Z@std@@V?$allocator@U?$pair@$$CBV?$basic_string@DU?$char_traits@D@std@@V?$allocator@D@2@@std@@P6AXH@Z@std@@@2@@std@@@std@@@2@@std@@@std@@QBEXABV12@@Z 100117f0 f i GameInterface.obj
 0001:000107f0       ?_Compat@?$_String_const_iterator@DU?$char_traits@D@std@@V?$allocator@D@2@@std@@QBEXABV12@@Z 100117f0 f i PatchMW2Packet.obj
 0001:000107f0       ?imbue@?$basic_streambuf@DU?$char_traits@D@std@@@std@@MAEXABVlocale@2@@Z 100117f0 f i Auth.obj
 0001:000107f0       ?_Compat@?$_Vector_const_iterator@V?$_Vector_val@UUIScript_t@@V?$allocator@UUIScript_t@@@std@@@std@@@std@@QBEXABV12@@Z 100117f0 f i PatchMW2UIScripts.obj
 0001:000107f0       ?_Adopt@_Iterator_base0@std@@QAEXPBX@Z 100117f0 f i GameInterface.obj
 0001:000107f0       ?_Compat@?$_Deque_const_iterator@U?$pair@PAEPAE@std@@V?$allocator@U?$pair@PAEPAE@std@@@2@@std@@QBEXABV12@@Z 100117f0 f i PatchMW2StringTable.obj
 0001:000107f0       ?_Compat@?$_Vector_const_iterator@V?$_Vector_val@PAVCCallbackBase@@V?$allocator@PAVCCallbackBase@@@std@@@std@@@std@@QBEXABV12@@Z 100117f0 f i SteamBase.obj
 0001:000107f0       ?_Compat@?$_Vector_const_iterator@V?$_Vector_val@V?$_List_iterator@V?$_List_val@U?$pair@$$CB_K_N@std@@V?$allocator@U?$pair@$$CB_K_N@std@@@2@@std@@@std@@V?$allocator@V?$_List_iterator@V?$_List_val@U?$pair@$$CB_K_N@std@@V?$allocator@U?$pair@$$CB_K_N@std@@@2@@std@@@std@@@2@@std@@@std@@QBEXABV12@@Z 100117f0 f i SteamBase.obj
 0001:000107f0       ?_Compat@?$_Vector_const_iterator@V?$_Vector_val@HV?$allocator@H@std@@@std@@@std@@QBEXABV12@@Z 100117f0 f i Script.obj
 0001:000107f0       ?_Compat@?$_Vector_const_iterator@V?$_Vector_val@V?$_List_iterator@V?$_List_val@U?$pair@$$CBV?$basic_string@DU?$char_traits@D@std@@V?$allocator@D@2@@std@@_N@std@@V?$allocator@U?$pair@$$CBV?$basic_string@DU?$char_traits@D@std@@V?$allocator@D@2@@std@@_N@std@@@2@@std@@@std@@V?$allocator@V?$_List_iterator@V?$_List_val@U?$pair@$$CBV?$basic_string@DU?$char_traits@D@std@@V?$allocator@D@2@@std@@_N@std@@V?$allocator@U?$pair@$$CBV?$basic_string@DU?$char_traits@D@std@@V?$allocator@D@2@@std@@_N@std@@@2@@std@@@std@@@2@@std@@@std@@QBEXABV12@@Z 100117f0 f i PatchMW2Experiments.obj
 0001:000107f0       ?_Compat@?$_Vector_const_iterator@V?$_Vector_val@V?$basic_string@DU?$char_traits@D@std@@V?$allocator@D@2@@std@@V?$allocator@V?$basic_string@DU?$char_traits@D@std@@V?$allocator@D@2@@std@@@2@@std@@@std@@QBEXABV12@@Z 100117f0 f i MW2.obj
 0001:000107f0       ?_Compat@?$_Deque_const_iterator@Udownload_s@@V?$allocator@Udownload_s@@@std@@@std@@QBEXABV12@@Z 100117f0 f i PatchMW2DownloadCL.obj
 0001:000107f0       ?_Compat@?$_Vector_const_iterator@V?$_Vector_val@V?$_List_iterator@V?$_List_val@U?$pair@QAXK@std@@V?$allocator@U?$pair@QAXK@std@@@2@@std@@@std@@V?$allocator@V?$_List_iterator@V?$_List_val@U?$pair@QAXK@std@@V?$allocator@U?$pair@QAXK@std@@@2@@std@@@std@@@2@@std@@@std@@QBEXABV12@@Z 100117f0 f i PatchMW2FilePointers.obj
 0001:000107f0       ?_Init@?$codecvt@DDH@std@@IAEXABV_Locinfo@2@@Z 100117f0 f i PatchMW2LocalizedStrings.obj
 0001:000107f0       ?_Compat@?$_Vector_const_iterator@V?$_Vector_val@Ugscr_file_t@@V?$allocator@Ugscr_file_t@@@std@@@std@@@std@@QBEXABV12@@Z 100117f0 f i Script.obj
 0001:000107f0       ?_Compat@?$_Vector_const_iterator@V?$_Vector_val@V?$_List_iterator@V?$_List_val@U?$pair@$$CBKK@std@@V?$allocator@U?$pair@$$CBKK@std@@@2@@std@@@std@@V?$allocator@V?$_List_iterator@V?$_List_val@U?$pair@$$CBKK@std@@V?$allocator@U?$pair@$$CBKK@std@@@2@@std@@@std@@@2@@std@@@std@@QBEXABV12@@Z 100117f0 f i PatchMW2FilePointers.obj
 0001:000107f0       ?_Compat@?$_Vector_const_iterator@V?$_Vector_val@V?$_List_iterator@V?$_List_val@U?$pair@$$CBHUNPFriend@@@std@@V?$allocator@U?$pair@$$CBHUNPFriend@@@std@@@2@@std@@@std@@V?$allocator@V?$_List_iterator@V?$_List_val@U?$pair@$$CBHUNPFriend@@@std@@V?$allocator@U?$pair@$$CBHUNPFriend@@@std@@@2@@std@@@std@@@2@@std@@@std@@QBEXABV12@@Z 100117f0 f i PatchMW2Friends.obj
 0001:000107f0       ?_Compat@?$_Vector_const_iterator@V?$_Vector_val@UUIClickHandler_t@@V?$allocator@UUIClickHandler_t@@@std@@@std@@@std@@QBEXABV12@@Z 100117f0 f i PatchMW2UIScripts.obj
 0001:000107f0       ?_Compat@?$_Vector_const_iterator@V?$_Vector_val@USteamAPIResult_s@@V?$allocator@USteamAPIResult_s@@@std@@@std@@@std@@QBEXABV12@@Z 100117f0 f i SteamBase.obj
 0001:000107f0       ?_Compat@?$_Vector_const_iterator@V?$_Vector_val@V?$_List_iterator@V?$_List_val@U?$pair@$$CBK_N@std@@V?$allocator@U?$pair@$$CBK_N@std@@@2@@std@@@std@@V?$allocator@V?$_List_iterator@V?$_List_val@U?$pair@$$CBK_N@std@@V?$allocator@U?$pair@$$CBK_N@std@@@2@@std@@@std@@@2@@std@@@std@@QBEXABV12@@Z 100117f0 f i PatchMW2AssetRestrict.obj
 0001:000107f0       ?_Compat@?$_Vector_const_iterator@V?$_Vector_val@PAUmenuDef_t@@V?$allocator@PAUmenuDef_t@@@std@@@std@@@std@@QBEXABV12@@Z 100117f0 f i PatchMW2UILoading.obj
 0001:000107f0       ?_Swap_all@_Container_base0@std@@QAEXAAU12@@Z 100117f0 f i PatchMW2UILoading.obj
 0001:000107f0       ?_Compat@?$_Vector_const_iterator@V?$_Vector_val@PAUMaterial@@V?$allocator@PAUMaterial@@@std@@@std@@@std@@QBEXABV12@@Z 100117f0 f i PatchMW2WeaponCamos.obj
 0001:000107f0       ?_Compat@?$_Vector_const_iterator@V?$_Vector_val@UdemoInfo_s@@V?$allocator@UdemoInfo_s@@@std@@@std@@@std@@QBEXABV12@@Z 100117f0 f i PatchMW2TheatreMenu.obj
 0001:000107f0       ?_Compat@?$_Vector_const_iterator@V?$_Vector_val@UServerStorageEntry@@V?$allocator@UServerStorageEntry@@@std@@@std@@@std@@QBEXABV12@@Z 100117f0 f i ServerStorage.obj
 0001:00010800       ?autoDemoRecord@@YAXPAD@Z  10011800 f   PatchMW2AutoDemo.obj
 0001:00010830       ?PatchMW2_AutoDemo@@YAXXZ  10011830 f   PatchMW2AutoDemo.obj
 0001:00010870       ?randBetween@@YAHHH@Z      10011870 f   PatchMW2Branding.obj
 0001:00010890       ?DrawDemoWarning@@YAXXZ    10011890 f   PatchMW2Branding.obj
 0001:00010900       ?DrawDevStuffHookStub@@YAXXZ 10011900 f   PatchMW2Branding.obj
 0001:00010910       ?CL_XStartPrivateMatch_f@@YAXXZ 10011910 f   PatchMW2Branding.obj
 0001:00010930       ?CreateWindowExAWrap_WC@@YGPAUHWND__@@KPBD0KHHHHPAU1@PAUHMENU__@@PAUHINSTANCE__@@PAX@Z 10011930 f   PatchMW2Branding.obj
 0001:000109c0       ?CreateWindowExAWrap_G@@YGPAUHWND__@@KPBD0KHHHHPAU1@PAUHMENU__@@PAUHINSTANCE__@@PAX@Z 100119c0 f   PatchMW2Branding.obj
 0001:00010a00       ?PatchMW2_Branding@@YAXXZ  10011a00 f   PatchMW2Branding.obj
 0001:00010ab0       ?Broadcast_Init@@YAXXZ     10011ab0 f   PatchMW2Broadcast.obj
 0001:00010ca0       ?Broadcast_Frame@@YAXXZ    10011ca0 f   PatchMW2Broadcast.obj
 0001:00010e40       ?Cmd_Argv@@YAPADH@Z        10011e40 f i PatchMW2Broadcast.obj
 0001:00010e80       ?Cmd_SetViewpos_f@@YAXPAUgentity_s@@@Z 10011e80 f   PatchMW2ClientCommands.obj
 0001:00010fb0       ?Cmd_SpawnModel_f@@YAXPAUgentity_s@@@Z 10011fb0 f   PatchMW2ClientCommands.obj
 0001:000110c0       ?Cmd_Status_f@@YAXPAUgentity_s@@@Z 100120c0 f   PatchMW2ClientCommands.obj
 0001:00011140       ?ClientCommand_custom@@YA_NH@Z 10012140 f   PatchMW2ClientCommands.obj
 0001:000111e0       ?ClientCommandHookStub@@YAXXZ 100121e0 f   PatchMW2ClientCommands.obj
 0001:00011200       ?Cmd_ShouldCommandBeForwarded@@YA_NXZ 10012200 f   PatchMW2ClientCommands.obj
 0001:00011230       ?ExecuteCommandNotifyHookStub@@YAXXZ 10012230 f   PatchMW2ClientCommands.obj
 0001:00011240       ?StatusCommandHook@@YAXHPAD@Z 10012240 f   PatchMW2ClientCommands.obj
 0001:00011280       ?PatchMW2_ClientCommands@@YAXXZ 10012280 f   PatchMW2ClientCommands.obj
 0001:000112e0       ?Con_ToggleConsole@@YAXXZ  100122e0 f   PatchMW2ClientConsole.obj
 0001:00011320       ?Con_AutoCompleteList@@YAPAPBDPADPAH@Z 10012320 f   PatchMW2ClientConsole.obj
 0001:00011590       ?ConDrawInput_CustomAutoComplete@@YAXXZ 10012590 f   PatchMW2ClientConsole.obj
 0001:00011600       ?DrawCmdMatchAlternativeStub@@YAXXZ 10012600 f   PatchMW2ClientConsole.obj
 0001:00011610       ?DrawDvarMatchAlternativeStub@@YAXXZ 10012610 f   PatchMW2ClientConsole.obj
 0001:00011630       ?Con_DoAutoCompleteCmd@@YAXXZ 10012630 f   PatchMW2ClientConsole.obj
 0001:000116e0       ?CompleteCmdMatchAlternativeStub@@YAXXZ 100126e0 f   PatchMW2ClientConsole.obj
 0001:000116f0       ?CompleteDvarMatchAlternativeStub@@YAXXZ 100126f0 f   PatchMW2ClientConsole.obj
 0001:00011700       ?PatchMW2_ClientConsole@@YAXXZ 10012700 f   PatchMW2ClientConsole.obj
 0001:00011810       ?ClientConsole_SetAutoComplete@@YAXXZ 10012810 f   PatchMW2ClientConsole.obj
 0001:00011830       ?CG_ResetFOV@@YAXXZ        10012830 f   PatchMW2ClientDvar.obj
 0001:00011850       ?SetClientDvarHook@@YAXXZ  10012850 f   PatchMW2ClientDvar.obj
 0001:000118c0       ?PatchMW2_ClientDvar@@YAXXZ 100128c0 f   PatchMW2ClientDvar.obj
 0001:000118f0       ?FS_FOpenFileReadCurrentThread@@YAXPADPAH@Z 100128f0 f   PatchMW2CModels.obj
 0001:00011950       ?ReadCModelSection@@YAXHAAUCModelSectionHeader@@@Z 10012950 f   PatchMW2CModels.obj
 0001:00011990       ?FixupCModelSection@@YAXAAUCModelHeader@@AAUCModelSectionHeader@@PAK@Z 10012990 f   PatchMW2CModels.obj
 0001:00011a30       ?Load_VertexBuffer@@YAXPAXPAPAXH@Z 10012a30 f   PatchMW2CModels.obj
 0001:00011a60       ?Load_IndexBuffer@@YAXPAXPAPAXH@Z 10012a60 f   PatchMW2CModels.obj
 0001:00011ae0       ?CreateCModelBuffers@@YAXPAX@Z 10012ae0 f   PatchMW2CModels.obj
 0001:00011bb0       ?LoadCModel@@YAPADPBD@Z    10012bb0 f   PatchMW2CModels.obj
 0001:00011f70       ?CModel_Test_f@@YAXXZ      10012f70 f   PatchMW2CModels.obj
 0001:00012130       ?Load_XModelAssetHookFunc@@YA_NPAD@Z 10013130 f   PatchMW2CModels.obj
 0001:00012240       ?Load_XModelAssetHookStub@@YAXXZ 10013240 f   PatchMW2CModels.obj
 0001:00012260       ?GetIndexBufferHookFunc@@YAXDPAXPAPAXPAH@Z 10013260 f   PatchMW2CModels.obj
 0001:00012290       ?GetIndexBufferHookStub@@YAXXZ 10013290 f   PatchMW2CModels.obj
 0001:000122b0       ?GetVertexBufferHookFunc@@YAXDPAXPAPAXPAH@Z 100132b0 f   PatchMW2CModels.obj
 0001:000122e0       ?GetVertexBufferHookStub@@YAXXZ 100132e0 f   PatchMW2CModels.obj
 0001:00012300       ?GetIndexBuffer3HookFunc@@YAPAXK@Z 10013300 f   PatchMW2CModels.obj
 0001:00012320       ?GetIndexBuffer3HookStub@@YAXXZ 10013320 f   PatchMW2CModels.obj
 0001:00012340       ?GetIndexBaseHookStub@@YAXXZ 10013340 f   PatchMW2CModels.obj
 0001:00012360       ?XModel_ListTags_f@@YAXXZ  10013360 f   PatchMW2CModels.obj
 0001:00012400       ?LogBoneIndexGet@@YAXHHPAPAUXModel@@FPAU1@@Z 10013400 f   PatchMW2CModels.obj
 0001:000124e0       ?GetBoneIndexHookStub@@YAXXZ 100134e0 f   PatchMW2CModels.obj
 0001:00012510       ?CL_DObjCreateHookFunc@@YAHPAUDObjModel_s@@HHHHH@Z 10013510 f   PatchMW2CModels.obj
 0001:00012720       ?UpdateDObjSetBitsHookFunc@@YAXPAK@Z 10013720 f   PatchMW2CModels.obj
 0001:000127b0       ?UpdateDObjSetBitsHookStub@@YAXXZ 100137b0 f   PatchMW2CModels.obj
 0001:000127d0       ?DB_RemoveXModelSurfs@@YAXPAUXModelSurfs@@@Z 100137d0 f   PatchMW2CModels.obj
 0001:000129f0       ?PatchMW2_CModels@@YAXXZ   100139f0 f   PatchMW2CModels.obj
 0001:00012b20       ?ReleaseCModels@@YAXXZ     10013b20 f   PatchMW2CModels.obj
 0001:00012bb0       ?ReloadCModel@@YAXPAXH@Z   10013bb0 f   PatchMW2CModels.obj
 0001:00012bd0       ?ReloadCModels@@YAXXZ      10013bd0 f   PatchMW2CModels.obj
 0001:00012cc0       ?begin@?$dense_hash_map@KPAXV?$hash_compare@KU?$less@K@std@@@stdext@@U?$equal_to@K@std@@V?$libc_allocator_with_realloc@U?$pair@$$CBKPAX@std@@@google@@@google@@QAE?AU?$dense_hashtable_iterator@U?$pair@$$CBKPAX@std@@KV?$hash_compare@KU?$less@K@std@@@stdext@@USelectKey@?$dense_hash_map@KPAXV?$hash_compare@KU?$less@K@std@@@stdext@@U?$equal_to@K@std@@V?$libc_allocator_with_realloc@U?$pair@$$CBKPAX@std@@@google@@@google@@USetKey@67@U?$equal_to@K@2@V?$libc_allocator_with_realloc@U?$pair@$$CBKPAX@std@@@7@@2@XZ 10013cc0 f i PatchMW2CModels.obj
 0001:00012ce0       ?clear@?$dense_hash_map@KPAXV?$hash_compare@KU?$less@K@std@@@stdext@@U?$equal_to@K@std@@V?$libc_allocator_with_realloc@U?$pair@$$CBKPAX@std@@@google@@@google@@QAEXXZ 10013ce0 f i PatchMW2CModels.obj
 0001:00012d00       ?find@?$dense_hash_map@KPAUCModelAllocData@@V?$hash_compare@KU?$less@K@std@@@stdext@@U?$equal_to@K@std@@V?$libc_allocator_with_realloc@U?$pair@$$CBKPAUCModelAllocData@@@std@@@google@@@google@@QAE?AU?$dense_hashtable_iterator@U?$pair@$$CBKPAUCModelAllocData@@@std@@KV?$hash_compare@KU?$less@K@std@@@stdext@@USelectKey@?$dense_hash_map@KPAUCModelAllocData@@V?$hash_compare@KU?$less@K@std@@@stdext@@U?$equal_to@K@std@@V?$libc_allocator_with_realloc@U?$pair@$$CBKPAUCModelAllocData@@@std@@@google@@@google@@USetKey@67@U?$equal_to@K@2@V?$libc_allocator_with_realloc@U?$pair@$$CBKPAUCModelAllocData@@@std@@@7@@2@ABK@Z 10013d00 f i PatchMW2CModels.obj
 0001:00012d00       ?find@?$dense_hash_map@KPAXV?$hash_compare@KU?$less@K@std@@@stdext@@U?$equal_to@K@std@@V?$libc_allocator_with_realloc@U?$pair@$$CBKPAX@std@@@google@@@google@@QAE?AU?$dense_hashtable_iterator@U?$pair@$$CBKPAX@std@@KV?$hash_compare@KU?$less@K@std@@@stdext@@USelectKey@?$dense_hash_map@KPAXV?$hash_compare@KU?$less@K@std@@@stdext@@U?$equal_to@K@std@@V?$libc_allocator_with_realloc@U?$pair@$$CBKPAX@std@@@google@@@google@@USetKey@67@U?$equal_to@K@2@V?$libc_allocator_with_realloc@U?$pair@$$CBKPAX@std@@@7@@2@ABK@Z 10013d00 f i PatchMW2CModels.obj
 0001:00012d20       ??A?$dense_hash_map@KPAXV?$hash_compare@KU?$less@K@std@@@stdext@@U?$equal_to@K@std@@V?$libc_allocator_with_realloc@U?$pair@$$CBKPAX@std@@@google@@@google@@QAEAAPAXABK@Z 10013d20 f i PatchMW2CModels.obj
 0001:00012d20       ??A?$dense_hash_map@KPAUCModelAllocData@@V?$hash_compare@KU?$less@K@std@@@stdext@@U?$equal_to@K@std@@V?$libc_allocator_with_realloc@U?$pair@$$CBKPAUCModelAllocData@@@std@@@google@@@google@@QAEAAPAUCModelAllocData@@ABK@Z 10013d20 f i PatchMW2CModels.obj
 0001:00012d40       ?set_empty_key@?$dense_hash_map@KPAUCModelAllocData@@V?$hash_compare@KU?$less@K@std@@@stdext@@U?$equal_to@K@std@@V?$libc_allocator_with_realloc@U?$pair@$$CBKPAUCModelAllocData@@@std@@@google@@@google@@QAEXABK@Z 10013d40 f i PatchMW2CModels.obj
 0001:00012d40       ?set_empty_key@?$dense_hash_map@KPAXV?$hash_compare@KU?$less@K@std@@@stdext@@U?$equal_to@K@std@@V?$libc_allocator_with_realloc@U?$pair@$$CBKPAX@std@@@google@@@google@@QAEXABK@Z 10013d40 f i PatchMW2CModels.obj
 0001:00012d70       ?end@?$dense_hash_map@KPAUCModelAllocData@@V?$hash_compare@KU?$less@K@std@@@stdext@@U?$equal_to@K@std@@V?$libc_allocator_with_realloc@U?$pair@$$CBKPAUCModelAllocData@@@std@@@google@@@google@@QAE?AU?$dense_hashtable_iterator@U?$pair@$$CBKPAUCModelAllocData@@@std@@KV?$hash_compare@KU?$less@K@std@@@stdext@@USelectKey@?$dense_hash_map@KPAUCModelAllocData@@V?$hash_compare@KU?$less@K@std@@@stdext@@U?$equal_to@K@std@@V?$libc_allocator_with_realloc@U?$pair@$$CBKPAUCModelAllocData@@@std@@@google@@@google@@USetKey@67@U?$equal_to@K@2@V?$libc_allocator_with_realloc@U?$pair@$$CBKPAUCModelAllocData@@@std@@@7@@2@XZ 10013d70 f i PatchMW2CModels.obj
 0001:00012d70       ?end@?$dense_hash_map@KPAXV?$hash_compare@KU?$less@K@std@@@stdext@@U?$equal_to@K@std@@V?$libc_allocator_with_realloc@U?$pair@$$CBKPAX@std@@@google@@@google@@QAE?AU?$dense_hashtable_iterator@U?$pair@$$CBKPAX@std@@KV?$hash_compare@KU?$less@K@std@@@stdext@@USelectKey@?$dense_hash_map@KPAXV?$hash_compare@KU?$less@K@std@@@stdext@@U?$equal_to@K@std@@V?$libc_allocator_with_realloc@U?$pair@$$CBKPAX@std@@@google@@@google@@USetKey@67@U?$equal_to@K@2@V?$libc_allocator_with_realloc@U?$pair@$$CBKPAX@std@@@7@@2@XZ 10013d70 f i PatchMW2CModels.obj
 0001:00012d90       ?erase@?$dense_hash_map@KPAXV?$hash_compare@KU?$less@K@std@@@stdext@@U?$equal_to@K@std@@V?$libc_allocator_with_realloc@U?$pair@$$CBKPAX@std@@@google@@@google@@QAEXU?$dense_hashtable_iterator@U?$pair@$$CBKPAX@std@@KV?$hash_compare@KU?$less@K@std@@@stdext@@USelectKey@?$dense_hash_map@KPAXV?$hash_compare@KU?$less@K@std@@@stdext@@U?$equal_to@K@std@@V?$libc_allocator_with_realloc@U?$pair@$$CBKPAX@std@@@google@@@google@@USetKey@67@U?$equal_to@K@2@V?$libc_allocator_with_realloc@U?$pair@$$CBKPAX@std@@@7@@2@@Z 10013d90 f i PatchMW2CModels.obj
 0001:00012d90       ?erase@?$dense_hash_map@KPAUCModelAllocData@@V?$hash_compare@KU?$less@K@std@@@stdext@@U?$equal_to@K@std@@V?$libc_allocator_with_realloc@U?$pair@$$CBKPAUCModelAllocData@@@std@@@google@@@google@@QAEXU?$dense_hashtable_iterator@U?$pair@$$CBKPAUCModelAllocData@@@std@@KV?$hash_compare@KU?$less@K@std@@@stdext@@USelectKey@?$dense_hash_map@KPAUCModelAllocData@@V?$hash_compare@KU?$less@K@std@@@stdext@@U?$equal_to@K@std@@V?$libc_allocator_with_realloc@U?$pair@$$CBKPAUCModelAllocData@@@std@@@google@@@google@@USetKey@67@U?$equal_to@K@2@V?$libc_allocator_with_realloc@U?$pair@$$CBKPAUCModelAllocData@@@std@@@7@@2@@Z 10013d90 f i PatchMW2CModels.obj
 0001:00012dc0       ??0?$dense_hashtable_const_iterator@U?$pair@$$CBV?$basic_string@DU?$char_traits@D@std@@V?$allocator@D@2@@std@@V12@@std@@V?$basic_string@DU?$char_traits@D@std@@V?$allocator@D@2@@2@V?$hash_compare@V?$basic_string@DU?$char_traits@D@std@@V?$allocator@D@2@@std@@U?$less@V?$basic_string@DU?$char_traits@D@std@@V?$allocator@D@2@@std@@@2@@stdext@@USelectKey@?$dense_hash_map@V?$basic_string@DU?$char_traits@D@std@@V?$allocator@D@2@@std@@V12@V?$hash_compare@V?$basic_string@DU?$char_traits@D@std@@V?$allocator@D@2@@std@@U?$less@V?$basic_string@DU?$char_traits@D@std@@V?$allocator@D@2@@std@@@2@@stdext@@U?$equal_to@V?$basic_string@DU?$char_traits@D@std@@V?$allocator@D@2@@std@@@2@V?$libc_allocator_with_realloc@U?$pair@$$CBV?$basic_string@DU?$char_traits@D@std@@V?$allocator@D@2@@std@@V12@@std@@@google@@@google@@USetKey@78@U?$equal_to@V?$basic_string@DU?$char_traits@D@std@@V?$allocator@D@2@@std@@@2@V?$libc_allocator_with_realloc@U?$pair@$$CBV?$basic_string@DU?$char_traits@D@std@@V?$allocator@D@2@@std@@V12@@std@@@8@@google@@QAE@ABU?$dense_hashtable_iterator@U?$pair@$$CBV?$basic_string@DU?$char_traits@D@std@@V?$allocator@D@2@@std@@V12@@std@@V?$basic_string@DU?$char_traits@D@std@@V?$allocator@D@2@@2@V?$hash_compare@V?$basic_string@DU?$char_traits@D@std@@V?$allocator@D@2@@std@@U?$less@V?$basic_string@DU?$char_traits@D@std@@V?$allocator@D@2@@std@@@2@@stdext@@USelectKey@?$dense_hash_map@V?$basic_string@DU?$char_traits@D@std@@V?$allocator@D@2@@std@@V12@V?$hash_compare@V?$basic_string@DU?$char_traits@D@std@@V?$allocator@D@2@@std@@U?$less@V?$basic_string@DU?$char_traits@D@std@@V?$allocator@D@2@@std@@@2@@stdext@@U?$equal_to@V?$basic_string@DU?$char_traits@D@std@@V?$allocator@D@2@@std@@@2@V?$libc_allocator_with_realloc@U?$pair@$$CBV?$basic_string@DU?$char_traits@D@std@@V?$allocator@D@2@@std@@V12@@std@@@google@@@google@@USetKey@78@U?$equal_to@V?$basic_string@DU?$char_traits@D@std@@V?$allocator@D@2@@std@@@2@V?$libc_allocator_with_realloc@U?$pair@$$CBV?$basic_string@DU?$char_traits@D@std@@V?$allocator@D@2@@std@@V12@@std@@@8@@1@@Z 10013dc0 f i PatchMW2LocalizedStrings.obj
 0001:00012dc0       ??0?$dense_hashtable_const_iterator@U?$pair@$$CBV?$basic_string@DU?$char_traits@D@std@@V?$allocator@D@2@@std@@PAUMaterial@@@std@@V?$basic_string@DU?$char_traits@D@std@@V?$allocator@D@2@@2@V?$hash_compare@V?$basic_string@DU?$char_traits@D@std@@V?$allocator@D@2@@std@@U?$less@V?$basic_string@DU?$char_traits@D@std@@V?$allocator@D@2@@std@@@2@@stdext@@USelectKey@?$dense_hash_map@V?$basic_string@DU?$char_traits@D@std@@V?$allocator@D@2@@std@@PAUMaterial@@V?$hash_compare@V?$basic_string@DU?$char_traits@D@std@@V?$allocator@D@2@@std@@U?$less@V?$basic_string@DU?$char_traits@D@std@@V?$allocator@D@2@@std@@@2@@stdext@@U?$equal_to@V?$basic_string@DU?$char_traits@D@std@@V?$allocator@D@2@@std@@@2@V?$libc_allocator_with_realloc@U?$pair@$$CBV?$basic_string@DU?$char_traits@D@std@@V?$allocator@D@2@@std@@PAUMaterial@@@std@@@google@@@google@@USetKey@78@U?$equal_to@V?$basic_string@DU?$char_traits@D@std@@V?$allocator@D@2@@std@@@2@V?$libc_allocator_with_realloc@U?$pair@$$CBV?$basic_string@DU?$char_traits@D@std@@V?$allocator@D@2@@std@@PAUMaterial@@@std@@@8@@google@@QAE@ABU?$dense_hashtable_iterator@U?$pair@$$CBV?$basic_string@DU?$char_traits@D@std@@V?$allocator@D@2@@std@@PAUMaterial@@@std@@V?$basic_string@DU?$char_traits@D@std@@V?$allocator@D@2@@2@V?$hash_compare@V?$basic_string@DU?$char_traits@D@std@@V?$allocator@D@2@@std@@U?$less@V?$basic_string@DU?$char_traits@D@std@@V?$allocator@D@2@@std@@@2@@stdext@@USelectKey@?$dense_hash_map@V?$basic_string@DU?$char_traits@D@std@@V?$allocator@D@2@@std@@PAUMaterial@@V?$hash_compare@V?$basic_string@DU?$char_traits@D@std@@V?$allocator@D@2@@std@@U?$less@V?$basic_string@DU?$char_traits@D@std@@V?$allocator@D@2@@std@@@2@@stdext@@U?$equal_to@V?$basic_string@DU?$char_traits@D@std@@V?$allocator@D@2@@std@@@2@V?$libc_allocator_with_realloc@U?$pair@$$CBV?$basic_string@DU?$char_traits@D@std@@V?$allocator@D@2@@std@@PAUMaterial@@@std@@@google@@@google@@USetKey@78@U?$equal_to@V?$basic_string@DU?$char_traits@D@std@@V?$allocator@D@2@@std@@@2@V?$libc_allocator_with_realloc@U?$pair@$$CBV?$basic_string@DU?$char_traits@D@std@@V?$allocator@D@2@@std@@PAUMaterial@@@std@@@8@@1@@Z 10013dc0 f i PatchMW2Materialism.obj
 0001:00012dc0       ??0?$dense_hashtable_const_iterator@U?$pair@$$CBKPAX@std@@KV?$hash_compare@KU?$less@K@std@@@stdext@@USelectKey@?$dense_hash_map@KPAXV?$hash_compare@KU?$less@K@std@@@stdext@@U?$equal_to@K@std@@V?$libc_allocator_with_realloc@U?$pair@$$CBKPAX@std@@@google@@@google@@USetKey@67@U?$equal_to@K@2@V?$libc_allocator_with_realloc@U?$pair@$$CBKPAX@std@@@7@@google@@QAE@ABU?$dense_hashtable_iterator@U?$pair@$$CBKPAX@std@@KV?$hash_compare@KU?$less@K@std@@@stdext@@USelectKey@?$dense_hash_map@KPAXV?$hash_compare@KU?$less@K@std@@@stdext@@U?$equal_to@K@std@@V?$libc_allocator_with_realloc@U?$pair@$$CBKPAX@std@@@google@@@google@@USetKey@67@U?$equal_to@K@2@V?$libc_allocator_with_realloc@U?$pair@$$CBKPAX@std@@@7@@1@@Z 10013dc0 f i PatchMW2CModels.obj
 0001:00012dc0       ??0?$dense_hashtable_const_iterator@U?$pair@$$CBV?$basic_string@DU?$char_traits@D@std@@V?$allocator@D@2@@std@@G@std@@V?$basic_string@DU?$char_traits@D@std@@V?$allocator@D@2@@2@V?$hash_compare@V?$basic_string@DU?$char_traits@D@std@@V?$allocator@D@2@@std@@U?$less@V?$basic_string@DU?$char_traits@D@std@@V?$allocator@D@2@@std@@@2@@stdext@@USelectKey@?$dense_hash_map@V?$basic_string@DU?$char_traits@D@std@@V?$allocator@D@2@@std@@GV?$hash_compare@V?$basic_string@DU?$char_traits@D@std@@V?$allocator@D@2@@std@@U?$less@V?$basic_string@DU?$char_traits@D@std@@V?$allocator@D@2@@std@@@2@@stdext@@U?$equal_to@V?$basic_string@DU?$char_traits@D@std@@V?$allocator@D@2@@std@@@2@V?$libc_allocator_with_realloc@U?$pair@$$CBV?$basic_string@DU?$char_traits@D@std@@V?$allocator@D@2@@std@@G@std@@@google@@@google@@USetKey@78@U?$equal_to@V?$basic_string@DU?$char_traits@D@std@@V?$allocator@D@2@@std@@@2@V?$libc_allocator_with_realloc@U?$pair@$$CBV?$basic_string@DU?$char_traits@D@std@@V?$allocator@D@2@@std@@G@std@@@8@@google@@QAE@ABU?$dense_hashtable_iterator@U?$pair@$$CBV?$basic_string@DU?$char_traits@D@std@@V?$allocator@D@2@@std@@G@std@@V?$basic_string@DU?$char_traits@D@std@@V?$allocator@D@2@@2@V?$hash_compare@V?$basic_string@DU?$char_traits@D@std@@V?$allocator@D@2@@std@@U?$less@V?$basic_string@DU?$char_traits@D@std@@V?$allocator@D@2@@std@@@2@@stdext@@USelectKey@?$dense_hash_map@V?$basic_string@DU?$char_traits@D@std@@V?$allocator@D@2@@std@@GV?$hash_compare@V?$basic_string@DU?$char_traits@D@std@@V?$allocator@D@2@@std@@U?$less@V?$basic_string@DU?$char_traits@D@std@@V?$allocator@D@2@@std@@@2@@stdext@@U?$equal_to@V?$basic_string@DU?$char_traits@D@std@@V?$allocator@D@2@@std@@@2@V?$libc_allocator_with_realloc@U?$pair@$$CBV?$basic_string@DU?$char_traits@D@std@@V?$allocator@D@2@@std@@G@std@@@google@@@google@@USetKey@78@U?$equal_to@V?$basic_string@DU?$char_traits@D@std@@V?$allocator@D@2@@std@@@2@V?$libc_allocator_with_realloc@U?$pair@$$CBV?$basic_string@DU?$char_traits@D@std@@V?$allocator@D@2@@std@@G@std@@@8@@1@@Z 10013dc0 f i PatchMW2StringList.obj
 0001:00012e00       ??E?$dense_hashtable_const_iterator@U?$pair@$$CBKPAX@std@@KV?$hash_compare@KU?$less@K@std@@@stdext@@USelectKey@?$dense_hash_map@KPAXV?$hash_compare@KU?$less@K@std@@@stdext@@U?$equal_to@K@std@@V?$libc_allocator_with_realloc@U?$pair@$$CBKPAX@std@@@google@@@google@@USetKey@67@U?$equal_to@K@2@V?$libc_allocator_with_realloc@U?$pair@$$CBKPAX@std@@@7@@google@@QAE?AU01@H@Z 10013e00 f i PatchMW2CModels.obj
 0001:00012e50       ?set_empty_key@?$dense_hashtable@U?$pair@$$CBKPAX@std@@KV?$hash_compare@KU?$less@K@std@@@stdext@@USelectKey@?$dense_hash_map@KPAXV?$hash_compare@KU?$less@K@std@@@stdext@@U?$equal_to@K@std@@V?$libc_allocator_with_realloc@U?$pair@$$CBKPAX@std@@@google@@@google@@USetKey@67@U?$equal_to@K@2@V?$libc_allocator_with_realloc@U?$pair@$$CBKPAX@std@@@7@@google@@QAEXABU?$pair@$$CBKPAX@std@@@Z 10013e50 f i PatchMW2CModels.obj
 0001:00012e50       ?set_empty_key@?$dense_hashtable@U?$pair@$$CBKPAUCModelAllocData@@@std@@KV?$hash_compare@KU?$less@K@std@@@stdext@@USelectKey@?$dense_hash_map@KPAUCModelAllocData@@V?$hash_compare@KU?$less@K@std@@@stdext@@U?$equal_to@K@std@@V?$libc_allocator_with_realloc@U?$pair@$$CBKPAUCModelAllocData@@@std@@@google@@@google@@USetKey@67@U?$equal_to@K@2@V?$libc_allocator_with_realloc@U?$pair@$$CBKPAUCModelAllocData@@@std@@@7@@google@@QAEXABU?$pair@$$CBKPAUCModelAllocData@@@std@@@Z 10013e50 f i PatchMW2CModels.obj
 0001:00012ec0       ?clear@?$dense_hashtable@U?$pair@$$CBKPAX@std@@KV?$hash_compare@KU?$less@K@std@@@stdext@@USelectKey@?$dense_hash_map@KPAXV?$hash_compare@KU?$less@K@std@@@stdext@@U?$equal_to@K@std@@V?$libc_allocator_with_realloc@U?$pair@$$CBKPAX@std@@@google@@@google@@USetKey@67@U?$equal_to@K@2@V?$libc_allocator_with_realloc@U?$pair@$$CBKPAX@std@@@7@@google@@QAEXXZ 10013ec0 f i PatchMW2CModels.obj
 0001:00012f00       ?find@?$dense_hashtable@U?$pair@$$CBKPAX@std@@KV?$hash_compare@KU?$less@K@std@@@stdext@@USelectKey@?$dense_hash_map@KPAXV?$hash_compare@KU?$less@K@std@@@stdext@@U?$equal_to@K@std@@V?$libc_allocator_with_realloc@U?$pair@$$CBKPAX@std@@@google@@@google@@USetKey@67@U?$equal_to@K@2@V?$libc_allocator_with_realloc@U?$pair@$$CBKPAX@std@@@7@@google@@QAE?AU?$dense_hashtable_iterator@U?$pair@$$CBKPAX@std@@KV?$hash_compare@KU?$less@K@std@@@stdext@@USelectKey@?$dense_hash_map@KPAXV?$hash_compare@KU?$less@K@std@@@stdext@@U?$equal_to@K@std@@V?$libc_allocator_with_realloc@U?$pair@$$CBKPAX@std@@@google@@@google@@USetKey@67@U?$equal_to@K@2@V?$libc_allocator_with_realloc@U?$pair@$$CBKPAX@std@@@7@@2@ABK@Z 10013f00 f i PatchMW2CModels.obj
 0001:00012f00       ?find@?$dense_hashtable@U?$pair@$$CBKPAUCModelAllocData@@@std@@KV?$hash_compare@KU?$less@K@std@@@stdext@@USelectKey@?$dense_hash_map@KPAUCModelAllocData@@V?$hash_compare@KU?$less@K@std@@@stdext@@U?$equal_to@K@std@@V?$libc_allocator_with_realloc@U?$pair@$$CBKPAUCModelAllocData@@@std@@@google@@@google@@USetKey@67@U?$equal_to@K@2@V?$libc_allocator_with_realloc@U?$pair@$$CBKPAUCModelAllocData@@@std@@@7@@google@@QAE?AU?$dense_hashtable_iterator@U?$pair@$$CBKPAUCModelAllocData@@@std@@KV?$hash_compare@KU?$less@K@std@@@stdext@@USelectKey@?$dense_hash_map@KPAUCModelAllocData@@V?$hash_compare@KU?$less@K@std@@@stdext@@U?$equal_to@K@std@@V?$libc_allocator_with_realloc@U?$pair@$$CBKPAUCModelAllocData@@@std@@@google@@@google@@USetKey@67@U?$equal_to@K@2@V?$libc_allocator_with_realloc@U?$pair@$$CBKPAUCModelAllocData@@@std@@@7@@2@ABK@Z 10013f00 f i PatchMW2CModels.obj
 0001:00012f90       ?erase@?$dense_hashtable@U?$pair@$$CBKPAX@std@@KV?$hash_compare@KU?$less@K@std@@@stdext@@USelectKey@?$dense_hash_map@KPAXV?$hash_compare@KU?$less@K@std@@@stdext@@U?$equal_to@K@std@@V?$libc_allocator_with_realloc@U?$pair@$$CBKPAX@std@@@google@@@google@@USetKey@67@U?$equal_to@K@2@V?$libc_allocator_with_realloc@U?$pair@$$CBKPAX@std@@@7@@google@@QAEXU?$dense_hashtable_iterator@U?$pair@$$CBKPAX@std@@KV?$hash_compare@KU?$less@K@std@@@stdext@@USelectKey@?$dense_hash_map@KPAXV?$hash_compare@KU?$less@K@std@@@stdext@@U?$equal_to@K@std@@V?$libc_allocator_with_realloc@U?$pair@$$CBKPAX@std@@@google@@@google@@USetKey@67@U?$equal_to@K@2@V?$libc_allocator_with_realloc@U?$pair@$$CBKPAX@std@@@7@@2@@Z 10013f90 f i PatchMW2CModels.obj
 0001:00012f90       ?erase@?$dense_hashtable@U?$pair@$$CBKPAUCModelAllocData@@@std@@KV?$hash_compare@KU?$less@K@std@@@stdext@@USelectKey@?$dense_hash_map@KPAUCModelAllocData@@V?$hash_compare@KU?$less@K@std@@@stdext@@U?$equal_to@K@std@@V?$libc_allocator_with_realloc@U?$pair@$$CBKPAUCModelAllocData@@@std@@@google@@@google@@USetKey@67@U?$equal_to@K@2@V?$libc_allocator_with_realloc@U?$pair@$$CBKPAUCModelAllocData@@@std@@@7@@google@@QAEXU?$dense_hashtable_iterator@U?$pair@$$CBKPAUCModelAllocData@@@std@@KV?$hash_compare@KU?$less@K@std@@@stdext@@USelectKey@?$dense_hash_map@KPAUCModelAllocData@@V?$hash_compare@KU?$less@K@std@@@stdext@@U?$equal_to@K@std@@V?$libc_allocator_with_realloc@U?$pair@$$CBKPAUCModelAllocData@@@std@@@google@@@google@@USetKey@67@U?$equal_to@K@2@V?$libc_allocator_with_realloc@U?$pair@$$CBKPAUCModelAllocData@@@std@@@7@@2@@Z 10013f90 f i PatchMW2CModels.obj
 0001:00012ff0       ??0?$pair@$$CBKPAX@std@@QAE@ABK$$QAPAX@Z 10013ff0 f i PatchMW2CModels.obj
 0001:00012ff0       ??0?$pair@QAXK@std@@QAE@ABQAX$$QAK@Z 10013ff0 f i PatchMW2FilePointers.obj
 0001:00012ff0       ??0?$pair@$$CBKPAUCModelAllocData@@@std@@QAE@ABK$$QAPAUCModelAllocData@@@Z 10013ff0 f i PatchMW2CModels.obj
 0001:00012ff0       ??0?$pair@$$CBHPAUnewWeapon@@@std@@QAE@ABH$$QAPAUnewWeapon@@@Z 10013ff0 f i PatchMW2PlayerdataDefinition.obj
 0001:00012ff0       ??0?$pair@$$CBKK@std@@QAE@ABK$$QAK@Z 10013ff0 f i PatchMW2FilePointers.obj
 0001:00013020       ??D?$dense_hashtable_const_iterator@U?$pair@$$CBKPAUCModelAllocData@@@std@@KV?$hash_compare@KU?$less@K@std@@@stdext@@USelectKey@?$dense_hash_map@KPAUCModelAllocData@@V?$hash_compare@KU?$less@K@std@@@stdext@@U?$equal_to@K@std@@V?$libc_allocator_with_realloc@U?$pair@$$CBKPAUCModelAllocData@@@std@@@google@@@google@@USetKey@67@U?$equal_to@K@2@V?$libc_allocator_with_realloc@U?$pair@$$CBKPAUCModelAllocData@@@std@@@7@@google@@QBEABU?$pair@$$CBKPAUCModelAllocData@@@std@@XZ 10014020 f i PatchMW2CModels.obj
 0001:00013020       ??D?$dense_hashtable_const_iterator@U?$pair@$$CBV?$basic_string@DU?$char_traits@D@std@@V?$allocator@D@2@@std@@PAUstringTable_s@@@std@@V?$basic_string@DU?$char_traits@D@std@@V?$allocator@D@2@@2@V?$hash_compare@V?$basic_string@DU?$char_traits@D@std@@V?$allocator@D@2@@std@@U?$less@V?$basic_string@DU?$char_traits@D@std@@V?$allocator@D@2@@std@@@2@@stdext@@USelectKey@?$dense_hash_map@V?$basic_string@DU?$char_traits@D@std@@V?$allocator@D@2@@std@@PAUstringTable_s@@V?$hash_compare@V?$basic_string@DU?$char_traits@D@std@@V?$allocator@D@2@@std@@U?$less@V?$basic_string@DU?$char_traits@D@std@@V?$allocator@D@2@@std@@@2@@stdext@@U?$equal_to@V?$basic_string@DU?$char_traits@D@std@@V?$allocator@D@2@@std@@@2@V?$libc_allocator_with_realloc@U?$pair@$$CBV?$basic_string@DU?$char_traits@D@std@@V?$allocator@D@2@@std@@PAUstringTable_s@@@std@@@google@@@google@@USetKey@78@U?$equal_to@V?$basic_string@DU?$char_traits@D@std@@V?$allocator@D@2@@std@@@2@V?$libc_allocator_with_realloc@U?$pair@$$CBV?$basic_string@DU?$char_traits@D@std@@V?$allocator@D@2@@std@@PAUstringTable_s@@@std@@@8@@google@@QBEABU?$pair@$$CBV?$basic_string@DU?$char_traits@D@std@@V?$allocator@D@2@@std@@PAUstringTable_s@@@std@@XZ 10014020 f i PatchMW2StringTable.obj
 0001:00013020       ?size@?$list@U?$pair@$$CBV?$basic_string@DU?$char_traits@D@std@@V?$allocator@D@2@@std@@_N@std@@V?$allocator@U?$pair@$$CBV?$basic_string@DU?$char_traits@D@std@@V?$allocator@D@2@@std@@_N@std@@@2@@std@@QBEIXZ 10014020 f i PatchMW2Experiments.obj
 0001:00013020       ?size@?$list@U?$pair@$$CBV?$basic_string@DU?$char_traits@D@std@@V?$allocator@D@2@@std@@P6AXH@Z@std@@V?$allocator@U?$pair@$$CBV?$basic_string@DU?$char_traits@D@std@@V?$allocator@D@2@@std@@P6AXH@Z@std@@@2@@std@@QBEIXZ 10014020 f i GameInterface.obj
 0001:00013020       ??D?$dense_hashtable_const_iterator@U?$pair@$$CBV?$basic_string@DU?$char_traits@D@std@@V?$allocator@D@2@@std@@G@std@@V?$basic_string@DU?$char_traits@D@std@@V?$allocator@D@2@@2@V?$hash_compare@V?$basic_string@DU?$char_traits@D@std@@V?$allocator@D@2@@std@@U?$less@V?$basic_string@DU?$char_traits@D@std@@V?$allocator@D@2@@std@@@2@@stdext@@USelectKey@?$dense_hash_map@V?$basic_string@DU?$char_traits@D@std@@V?$allocator@D@2@@std@@GV?$hash_compare@V?$basic_string@DU?$char_traits@D@std@@V?$allocator@D@2@@std@@U?$less@V?$basic_string@DU?$char_traits@D@std@@V?$allocator@D@2@@std@@@2@@stdext@@U?$equal_to@V?$basic_string@DU?$char_traits@D@std@@V?$allocator@D@2@@std@@@2@V?$libc_allocator_with_realloc@U?$pair@$$CBV?$basic_string@DU?$char_traits@D@std@@V?$allocator@D@2@@std@@G@std@@@google@@@google@@USetKey@78@U?$equal_to@V?$basic_string@DU?$char_traits@D@std@@V?$allocator@D@2@@std@@@2@V?$libc_allocator_with_realloc@U?$pair@$$CBV?$basic_string@DU?$char_traits@D@std@@V?$allocator@D@2@@std@@G@std@@@8@@google@@QBEABU?$pair@$$CBV?$basic_string@DU?$char_traits@D@std@@V?$allocator@D@2@@std@@G@std@@XZ 10014020 f i PatchMW2StringList.obj
 0001:00013020       ??D?$dense_hashtable_const_iterator@U?$pair@$$CBV?$basic_string@DU?$char_traits@D@std@@V?$allocator@D@2@@std@@PAUXModel@@@std@@V?$basic_string@DU?$char_traits@D@std@@V?$allocator@D@2@@2@V?$hash_compare@V?$basic_string@DU?$char_traits@D@std@@V?$allocator@D@2@@std@@U?$less@V?$basic_string@DU?$char_traits@D@std@@V?$allocator@D@2@@std@@@2@@stdext@@USelectKey@?$dense_hash_map@V?$basic_string@DU?$char_traits@D@std@@V?$allocator@D@2@@std@@PAUXModel@@V?$hash_compare@V?$basic_string@DU?$char_traits@D@std@@V?$allocator@D@2@@std@@U?$less@V?$basic_string@DU?$char_traits@D@std@@V?$allocator@D@2@@std@@@2@@stdext@@U?$equal_to@V?$basic_string@DU?$char_traits@D@std@@V?$allocator@D@2@@std@@@2@V?$libc_allocator_with_realloc@U?$pair@$$CBV?$basic_string@DU?$char_traits@D@std@@V?$allocator@D@2@@std@@PAUXModel@@@std@@@google@@@google@@USetKey@78@U?$equal_to@V?$basic_string@DU?$char_traits@D@std@@V?$allocator@D@2@@std@@@2@V?$libc_allocator_with_realloc@U?$pair@$$CBV?$basic_string@DU?$char_traits@D@std@@V?$allocator@D@2@@std@@PAUXModel@@@std@@@8@@google@@QBEABU?$pair@$$CBV?$basic_string@DU?$char_traits@D@std@@V?$allocator@D@2@@std@@PAUXModel@@@std@@XZ 10014020 f i PatchMW2WeaponCamos.obj
 0001:00013020       ??D?$dense_hashtable_const_iterator@U?$pair@$$CBV?$basic_string@DU?$char_traits@D@std@@V?$allocator@D@2@@std@@V12@@std@@V?$basic_string@DU?$char_traits@D@std@@V?$allocator@D@2@@2@V?$hash_compare@V?$basic_string@DU?$char_traits@D@std@@V?$allocator@D@2@@std@@U?$less@V?$basic_string@DU?$char_traits@D@std@@V?$allocator@D@2@@std@@@2@@stdext@@USelectKey@?$dense_hash_map@V?$basic_string@DU?$char_traits@D@std@@V?$allocator@D@2@@std@@V12@V?$hash_compare@V?$basic_string@DU?$char_traits@D@std@@V?$allocator@D@2@@std@@U?$less@V?$basic_string@DU?$char_traits@D@std@@V?$allocator@D@2@@std@@@2@@stdext@@U?$equal_to@V?$basic_string@DU?$char_traits@D@std@@V?$allocator@D@2@@std@@@2@V?$libc_allocator_with_realloc@U?$pair@$$CBV?$basic_string@DU?$char_traits@D@std@@V?$allocator@D@2@@std@@V12@@std@@@google@@@google@@USetKey@78@U?$equal_to@V?$basic_string@DU?$char_traits@D@std@@V?$allocator@D@2@@std@@@2@V?$libc_allocator_with_realloc@U?$pair@$$CBV?$basic_string@DU?$char_traits@D@std@@V?$allocator@D@2@@std@@V12@@std@@@8@@google@@QBEABU?$pair@$$CBV?$basic_string@DU?$char_traits@D@std@@V?$allocator@D@2@@std@@V12@@std@@XZ 10014020 f i PatchMW2LocalizedStrings.obj
 0001:00013020       ?size@?$list@U?$pair@$$CB_K_N@std@@V?$allocator@U?$pair@$$CB_K_N@std@@@2@@std@@QBEIXZ 10014020 f i SteamBase.obj
 0001:00013020       ??D?$dense_hashtable_iterator@U?$pair@$$CBV?$basic_string@DU?$char_traits@D@std@@V?$allocator@D@2@@std@@G@std@@V?$basic_string@DU?$char_traits@D@std@@V?$allocator@D@2@@2@V?$hash_compare@V?$basic_string@DU?$char_traits@D@std@@V?$allocator@D@2@@std@@U?$less@V?$basic_string@DU?$char_traits@D@std@@V?$allocator@D@2@@std@@@2@@stdext@@USelectKey@?$dense_hash_map@V?$basic_string@DU?$char_traits@D@std@@V?$allocator@D@2@@std@@GV?$hash_compare@V?$basic_string@DU?$char_traits@D@std@@V?$allocator@D@2@@std@@U?$less@V?$basic_string@DU?$char_traits@D@std@@V?$allocator@D@2@@std@@@2@@stdext@@U?$equal_to@V?$basic_string@DU?$char_traits@D@std@@V?$allocator@D@2@@std@@@2@V?$libc_allocator_with_realloc@U?$pair@$$CBV?$basic_string@DU?$char_traits@D@std@@V?$allocator@D@2@@std@@G@std@@@google@@@google@@USetKey@78@U?$equal_to@V?$basic_string@DU?$char_traits@D@std@@V?$allocator@D@2@@std@@@2@V?$libc_allocator_with_realloc@U?$pair@$$CBV?$basic_string@DU?$char_traits@D@std@@V?$allocator@D@2@@std@@G@std@@@8@@google@@QBEAAU?$pair@$$CBV?$basic_string@DU?$char_traits@D@std@@V?$allocator@D@2@@std@@G@std@@XZ 10014020 f i PatchMW2StringList.obj
 0001:00013020       ??D?$dense_hashtable_iterator@U?$pair@$$CBKPAX@std@@KV?$hash_compare@KU?$less@K@std@@@stdext@@USelectKey@?$dense_hash_map@KPAXV?$hash_compare@KU?$less@K@std@@@stdext@@U?$equal_to@K@std@@V?$libc_allocator_with_realloc@U?$pair@$$CBKPAX@std@@@google@@@google@@USetKey@67@U?$equal_to@K@2@V?$libc_allocator_with_realloc@U?$pair@$$CBKPAX@std@@@7@@google@@QBEAAU?$pair@$$CBKPAX@std@@XZ 10014020 f i PatchMW2CModels.obj
 0001:00013020       ??D?$dense_hashtable_const_iterator@U?$pair@$$CBKPAX@std@@KV?$hash_compare@KU?$less@K@std@@@stdext@@USelectKey@?$dense_hash_map@KPAXV?$hash_compare@KU?$less@K@std@@@stdext@@U?$equal_to@K@std@@V?$libc_allocator_with_realloc@U?$pair@$$CBKPAX@std@@@google@@@google@@USetKey@67@U?$equal_to@K@2@V?$libc_allocator_with_realloc@U?$pair@$$CBKPAX@std@@@7@@google@@QBEABU?$pair@$$CBKPAX@std@@XZ 10014020 f i PatchMW2CModels.obj
 0001:00013020       ??D?$dense_hashtable_iterator@U?$pair@$$CBV?$basic_string@DU?$char_traits@D@std@@V?$allocator@D@2@@std@@V12@@std@@V?$basic_string@DU?$char_traits@D@std@@V?$allocator@D@2@@2@V?$hash_compare@V?$basic_string@DU?$char_traits@D@std@@V?$allocator@D@2@@std@@U?$less@V?$basic_string@DU?$char_traits@D@std@@V?$allocator@D@2@@std@@@2@@stdext@@USelectKey@?$dense_hash_map@V?$basic_string@DU?$char_traits@D@std@@V?$allocator@D@2@@std@@V12@V?$hash_compare@V?$basic_string@DU?$char_traits@D@std@@V?$allocator@D@2@@std@@U?$less@V?$basic_string@DU?$char_traits@D@std@@V?$allocator@D@2@@std@@@2@@stdext@@U?$equal_to@V?$basic_string@DU?$char_traits@D@std@@V?$allocator@D@2@@std@@@2@V?$libc_allocator_with_realloc@U?$pair@$$CBV?$basic_string@DU?$char_traits@D@std@@V?$allocator@D@2@@std@@V12@@std@@@google@@@google@@USetKey@78@U?$equal_to@V?$basic_string@DU?$char_traits@D@std@@V?$allocator@D@2@@std@@@2@V?$libc_allocator_with_realloc@U?$pair@$$CBV?$basic_string@DU?$char_traits@D@std@@V?$allocator@D@2@@std@@V12@@std@@@8@@google@@QBEAAU?$pair@$$CBV?$basic_string@DU?$char_traits@D@std@@V?$allocator@D@2@@std@@V12@@std@@XZ 10014020 f i PatchMW2LocalizedStrings.obj
 0001:00013020       ??D?$dense_hashtable_iterator@U?$pair@$$CBV?$basic_string@DU?$char_traits@D@std@@V?$allocator@D@2@@std@@PAUXModel@@@std@@V?$basic_string@DU?$char_traits@D@std@@V?$allocator@D@2@@2@V?$hash_compare@V?$basic_string@DU?$char_traits@D@std@@V?$allocator@D@2@@std@@U?$less@V?$basic_string@DU?$char_traits@D@std@@V?$allocator@D@2@@std@@@2@@stdext@@USelectKey@?$dense_hash_map@V?$basic_string@DU?$char_traits@D@std@@V?$allocator@D@2@@std@@PAUXModel@@V?$hash_compare@V?$basic_string@DU?$char_traits@D@std@@V?$allocator@D@2@@std@@U?$less@V?$basic_string@DU?$char_traits@D@std@@V?$allocator@D@2@@std@@@2@@stdext@@U?$equal_to@V?$basic_string@DU?$char_traits@D@std@@V?$allocator@D@2@@std@@@2@V?$libc_allocator_with_realloc@U?$pair@$$CBV?$basic_string@DU?$char_traits@D@std@@V?$allocator@D@2@@std@@PAUXModel@@@std@@@google@@@google@@USetKey@78@U?$equal_to@V?$basic_string@DU?$char_traits@D@std@@V?$allocator@D@2@@std@@@2@V?$libc_allocator_with_realloc@U?$pair@$$CBV?$basic_string@DU?$char_traits@D@std@@V?$allocator@D@2@@std@@PAUXModel@@@std@@@8@@google@@QBEAAU?$pair@$$CBV?$basic_string@DU?$char_traits@D@std@@V?$allocator@D@2@@std@@PAUXModel@@@std@@XZ 10014020 f i PatchMW2WeaponCamos.obj
 0001:00013020       ?enlarge_threshold@?$sh_hashtable_settings@V?$basic_string@DU?$char_traits@D@std@@V?$allocator@D@2@@std@@V?$hash_compare@V?$basic_string@DU?$char_traits@D@std@@V?$allocator@D@2@@std@@U?$less@V?$basic_string@DU?$char_traits@D@std@@V?$allocator@D@2@@std@@@2@@stdext@@I$03@@QBEIXZ 10014020 f i PatchMW2LocalizedStrings.obj
 0001:00013020       ?enlarge_threshold@?$sh_hashtable_settings@KV?$hash_compare@KU?$less@K@std@@@stdext@@I$03@@QBEIXZ 10014020 f i PatchMW2CModels.obj
 0001:00013020       ?size@?$list@U?$pair@$$CBKPAX@std@@V?$allocator@U?$pair@$$CBKPAX@std@@@2@@std@@QBEIXZ 10014020 f i PatchMW2FilePointers.obj
 0001:00013020       ??D?$dense_hashtable_iterator@U?$pair@$$CBKPAUCModelAllocData@@@std@@KV?$hash_compare@KU?$less@K@std@@@stdext@@USelectKey@?$dense_hash_map@KPAUCModelAllocData@@V?$hash_compare@KU?$less@K@std@@@stdext@@U?$equal_to@K@std@@V?$libc_allocator_with_realloc@U?$pair@$$CBKPAUCModelAllocData@@@std@@@google@@@google@@USetKey@67@U?$equal_to@K@2@V?$libc_allocator_with_realloc@U?$pair@$$CBKPAUCModelAllocData@@@std@@@7@@google@@QBEAAU?$pair@$$CBKPAUCModelAllocData@@@std@@XZ 10014020 f i PatchMW2CModels.obj
 0001:00013020       ??D?$dense_hashtable_iterator@U?$pair@$$CBV?$basic_string@DU?$char_traits@D@std@@V?$allocator@D@2@@std@@PAUMaterial@@@std@@V?$basic_string@DU?$char_traits@D@std@@V?$allocator@D@2@@2@V?$hash_compare@V?$basic_string@DU?$char_traits@D@std@@V?$allocator@D@2@@std@@U?$less@V?$basic_string@DU?$char_traits@D@std@@V?$allocator@D@2@@std@@@2@@stdext@@USelectKey@?$dense_hash_map@V?$basic_string@DU?$char_traits@D@std@@V?$allocator@D@2@@std@@PAUMaterial@@V?$hash_compare@V?$basic_string@DU?$char_traits@D@std@@V?$allocator@D@2@@std@@U?$less@V?$basic_string@DU?$char_traits@D@std@@V?$allocator@D@2@@std@@@2@@stdext@@U?$equal_to@V?$basic_string@DU?$char_traits@D@std@@V?$allocator@D@2@@std@@@2@V?$libc_allocator_with_realloc@U?$pair@$$CBV?$basic_string@DU?$char_traits@D@std@@V?$allocator@D@2@@std@@PAUMaterial@@@std@@@google@@@google@@USetKey@78@U?$equal_to@V?$basic_string@DU?$char_traits@D@std@@V?$allocator@D@2@@std@@@2@V?$libc_allocator_with_realloc@U?$pair@$$CBV?$basic_string@DU?$char_traits@D@std@@V?$allocator@D@2@@std@@PAUMaterial@@@std@@@8@@google@@QBEAAU?$pair@$$CBV?$basic_string@DU?$char_traits@D@std@@V?$allocator@D@2@@std@@PAUMaterial@@@std@@XZ 10014020 f i PatchMW2Materialism.obj
 0001:00013020       ??D?$dense_hashtable_const_iterator@U?$pair@$$CBV?$basic_string@DU?$char_traits@D@std@@V?$allocator@D@2@@std@@PAUMaterial@@@std@@V?$basic_string@DU?$char_traits@D@std@@V?$allocator@D@2@@2@V?$hash_compare@V?$basic_string@DU?$char_traits@D@std@@V?$allocator@D@2@@std@@U?$less@V?$basic_string@DU?$char_traits@D@std@@V?$allocator@D@2@@std@@@2@@stdext@@USelectKey@?$dense_hash_map@V?$basic_string@DU?$char_traits@D@std@@V?$allocator@D@2@@std@@PAUMaterial@@V?$hash_compare@V?$basic_string@DU?$char_traits@D@std@@V?$allocator@D@2@@std@@U?$less@V?$basic_string@DU?$char_traits@D@std@@V?$allocator@D@2@@std@@@2@@stdext@@U?$equal_to@V?$basic_string@DU?$char_traits@D@std@@V?$allocator@D@2@@std@@@2@V?$libc_allocator_with_realloc@U?$pair@$$CBV?$basic_string@DU?$char_traits@D@std@@V?$allocator@D@2@@std@@PAUMaterial@@@std@@@google@@@google@@USetKey@78@U?$equal_to@V?$basic_string@DU?$char_traits@D@std@@V?$allocator@D@2@@std@@@2@V?$libc_allocator_with_realloc@U?$pair@$$CBV?$basic_string@DU?$char_traits@D@std@@V?$allocator@D@2@@std@@PAUMaterial@@@std@@@8@@google@@QBEABU?$pair@$$CBV?$basic_string@DU?$char_traits@D@std@@V?$allocator@D@2@@std@@PAUMaterial@@@std@@XZ 10014020 f i PatchMW2Materialism.obj
 0001:00013020       ?size@?$list@U?$pair@$$CBKK@std@@V?$allocator@U?$pair@$$CBKK@std@@@2@@std@@QBEIXZ 10014020 f i PatchMW2FilePointers.obj
 0001:00013020       ?size@?$list@U?$pair@$$CB_KPAVCCallbackBase@@@std@@V?$allocator@U?$pair@$$CB_KPAVCCallbackBase@@@std@@@2@@std@@QBEIXZ 10014020 f i SteamBase.obj
 0001:00013020       ?size@?$list@UAttachmentPatch@@V?$allocator@UAttachmentPatch@@@std@@@std@@QBEIXZ 10014020 f i PatchMW2PartialWeaponry.obj
 0001:00013020       ?size@?$list@U?$pair@$$CBHUNPFriend@@@std@@V?$allocator@U?$pair@$$CBHUNPFriend@@@std@@@2@@std@@QBEIXZ 10014020 f i PatchMW2Friends.obj
 0001:00013020       ?size@?$list@U?$pair@QAXK@std@@V?$allocator@U?$pair@QAXK@std@@@2@@std@@QBEIXZ 10014020 f i PatchMW2FilePointers.obj
 0001:00013020       ?size@?$list@U?$pair@$$CBV?$basic_string@DU?$char_traits@D@std@@V?$allocator@D@2@@std@@PAUVehicleDef@@@std@@V?$allocator@U?$pair@$$CBV?$basic_string@DU?$char_traits@D@std@@V?$allocator@D@2@@std@@PAUVehicleDef@@@std@@@2@@std@@QBEIXZ 10014020 f i PatchMW2LoadVehicleDef.obj
 0001:00013020       ??D?$dense_hashtable_iterator@U?$pair@$$CBV?$basic_string@DU?$char_traits@D@std@@V?$allocator@D@2@@std@@PAUstringTable_s@@@std@@V?$basic_string@DU?$char_traits@D@std@@V?$allocator@D@2@@2@V?$hash_compare@V?$basic_string@DU?$char_traits@D@std@@V?$allocator@D@2@@std@@U?$less@V?$basic_string@DU?$char_traits@D@std@@V?$allocator@D@2@@std@@@2@@stdext@@USelectKey@?$dense_hash_map@V?$basic_string@DU?$char_traits@D@std@@V?$allocator@D@2@@std@@PAUstringTable_s@@V?$hash_compare@V?$basic_string@DU?$char_traits@D@std@@V?$allocator@D@2@@std@@U?$less@V?$basic_string@DU?$char_traits@D@std@@V?$allocator@D@2@@std@@@2@@stdext@@U?$equal_to@V?$basic_string@DU?$char_traits@D@std@@V?$allocator@D@2@@std@@@2@V?$libc_allocator_with_realloc@U?$pair@$$CBV?$basic_string@DU?$char_traits@D@std@@V?$allocator@D@2@@std@@PAUstringTable_s@@@std@@@google@@@google@@USetKey@78@U?$equal_to@V?$basic_string@DU?$char_traits@D@std@@V?$allocator@D@2@@std@@@2@V?$libc_allocator_with_realloc@U?$pair@$$CBV?$basic_string@DU?$char_traits@D@std@@V?$allocator@D@2@@std@@PAUstringTable_s@@@std@@@8@@google@@QBEAAU?$pair@$$CBV?$basic_string@DU?$char_traits@D@std@@V?$allocator@D@2@@std@@PAUstringTable_s@@@std@@XZ 10014020 f i PatchMW2StringTable.obj
 0001:00013040       ??E?$dense_hashtable_const_iterator@U?$pair@$$CBKPAUCModelAllocData@@@std@@KV?$hash_compare@KU?$less@K@std@@@stdext@@USelectKey@?$dense_hash_map@KPAUCModelAllocData@@V?$hash_compare@KU?$less@K@std@@@stdext@@U?$equal_to@K@std@@V?$libc_allocator_with_realloc@U?$pair@$$CBKPAUCModelAllocData@@@std@@@google@@@google@@USetKey@67@U?$equal_to@K@2@V?$libc_allocator_with_realloc@U?$pair@$$CBKPAUCModelAllocData@@@std@@@7@@google@@QAEAAU01@XZ 10014040 f i PatchMW2CModels.obj
 0001:00013040       ??E?$dense_hashtable_const_iterator@U?$pair@$$CBKPAX@std@@KV?$hash_compare@KU?$less@K@std@@@stdext@@USelectKey@?$dense_hash_map@KPAXV?$hash_compare@KU?$less@K@std@@@stdext@@U?$equal_to@K@std@@V?$libc_allocator_with_realloc@U?$pair@$$CBKPAX@std@@@google@@@google@@USetKey@67@U?$equal_to@K@2@V?$libc_allocator_with_realloc@U?$pair@$$CBKPAX@std@@@7@@google@@QAEAAU01@XZ 10014040 f i PatchMW2CModels.obj
 0001:00013070       ?set_value@?$dense_hashtable@U?$pair@$$CBKPAUCModelAllocData@@@std@@KV?$hash_compare@KU?$less@K@std@@@stdext@@USelectKey@?$dense_hash_map@KPAUCModelAllocData@@V?$hash_compare@KU?$less@K@std@@@stdext@@U?$equal_to@K@std@@V?$libc_allocator_with_realloc@U?$pair@$$CBKPAUCModelAllocData@@@std@@@google@@@google@@USetKey@67@U?$equal_to@K@2@V?$libc_allocator_with_realloc@U?$pair@$$CBKPAUCModelAllocData@@@std@@@7@@google@@AAEXPAU?$pair@$$CBKPAUCModelAllocData@@@std@@ABU34@@Z 10014070 f i PatchMW2CModels.obj
 0001:00013070       ?set_value@?$dense_hashtable@U?$pair@$$CBKPAX@std@@KV?$hash_compare@KU?$less@K@std@@@stdext@@USelectKey@?$dense_hash_map@KPAXV?$hash_compare@KU?$less@K@std@@@stdext@@U?$equal_to@K@std@@V?$libc_allocator_with_realloc@U?$pair@$$CBKPAX@std@@@google@@@google@@USetKey@67@U?$equal_to@K@2@V?$libc_allocator_with_realloc@U?$pair@$$CBKPAX@std@@@7@@google@@AAEXPAU?$pair@$$CBKPAX@std@@ABU34@@Z 10014070 f i PatchMW2CModels.obj
 0001:000130f0       ?fill_range_with_empty@?$dense_hashtable@U?$pair@$$CBKPAX@std@@KV?$hash_compare@KU?$less@K@std@@@stdext@@USelectKey@?$dense_hash_map@KPAXV?$hash_compare@KU?$less@K@std@@@stdext@@U?$equal_to@K@std@@V?$libc_allocator_with_realloc@U?$pair@$$CBKPAX@std@@@google@@@google@@USetKey@67@U?$equal_to@K@2@V?$libc_allocator_with_realloc@U?$pair@$$CBKPAX@std@@@7@@google@@AAEXPAU?$pair@$$CBKPAX@std@@0@Z 100140f0 f i PatchMW2CModels.obj
 0001:000130f0       ?fill_range_with_empty@?$dense_hashtable@U?$pair@$$CBKPAUCModelAllocData@@@std@@KV?$hash_compare@KU?$less@K@std@@@stdext@@USelectKey@?$dense_hash_map@KPAUCModelAllocData@@V?$hash_compare@KU?$less@K@std@@@stdext@@U?$equal_to@K@std@@V?$libc_allocator_with_realloc@U?$pair@$$CBKPAUCModelAllocData@@@std@@@google@@@google@@USetKey@67@U?$equal_to@K@2@V?$libc_allocator_with_realloc@U?$pair@$$CBKPAUCModelAllocData@@@std@@@7@@google@@AAEXPAU?$pair@$$CBKPAUCModelAllocData@@@std@@0@Z 100140f0 f i PatchMW2CModels.obj
 0001:00013120       ?size@?$dense_hashtable@U?$pair@$$CBKPAUCModelAllocData@@@std@@KV?$hash_compare@KU?$less@K@std@@@stdext@@USelectKey@?$dense_hash_map@KPAUCModelAllocData@@V?$hash_compare@KU?$less@K@std@@@stdext@@U?$equal_to@K@std@@V?$libc_allocator_with_realloc@U?$pair@$$CBKPAUCModelAllocData@@@std@@@google@@@google@@USetKey@67@U?$equal_to@K@2@V?$libc_allocator_with_realloc@U?$pair@$$CBKPAUCModelAllocData@@@std@@@7@@google@@QBEIXZ 10014120 f i PatchMW2CModels.obj
 0001:00013120       ?size@?$dense_hashtable@U?$pair@$$CBKPAX@std@@KV?$hash_compare@KU?$less@K@std@@@stdext@@USelectKey@?$dense_hash_map@KPAXV?$hash_compare@KU?$less@K@std@@@stdext@@U?$equal_to@K@std@@V?$libc_allocator_with_realloc@U?$pair@$$CBKPAX@std@@@google@@@google@@USetKey@67@U?$equal_to@K@2@V?$libc_allocator_with_realloc@U?$pair@$$CBKPAX@std@@@7@@google@@QBEIXZ 10014120 f i PatchMW2CModels.obj
 0001:00013140       ?clear_to_size@?$dense_hashtable@U?$pair@$$CBKPAX@std@@KV?$hash_compare@KU?$less@K@std@@@stdext@@USelectKey@?$dense_hash_map@KPAXV?$hash_compare@KU?$less@K@std@@@stdext@@U?$equal_to@K@std@@V?$libc_allocator_with_realloc@U?$pair@$$CBKPAX@std@@@google@@@google@@USetKey@67@U?$equal_to@K@2@V?$libc_allocator_with_realloc@U?$pair@$$CBKPAX@std@@@7@@google@@AAEXI@Z 10014140 f i PatchMW2CModels.obj
 0001:00013140       ?clear_to_size@?$dense_hashtable@U?$pair@$$CBKPAUCModelAllocData@@@std@@KV?$hash_compare@KU?$less@K@std@@@stdext@@USelectKey@?$dense_hash_map@KPAUCModelAllocData@@V?$hash_compare@KU?$less@K@std@@@stdext@@U?$equal_to@K@std@@V?$libc_allocator_with_realloc@U?$pair@$$CBKPAUCModelAllocData@@@std@@@google@@@google@@USetKey@67@U?$equal_to@K@2@V?$libc_allocator_with_realloc@U?$pair@$$CBKPAUCModelAllocData@@@std@@@7@@google@@AAEXI@Z 10014140 f i PatchMW2CModels.obj
 0001:00013200       ?destroy_buckets@?$dense_hashtable@U?$pair@$$CBKPAX@std@@KV?$hash_compare@KU?$less@K@std@@@stdext@@USelectKey@?$dense_hash_map@KPAXV?$hash_compare@KU?$less@K@std@@@stdext@@U?$equal_to@K@std@@V?$libc_allocator_with_realloc@U?$pair@$$CBKPAX@std@@@google@@@google@@USetKey@67@U?$equal_to@K@2@V?$libc_allocator_with_realloc@U?$pair@$$CBKPAX@std@@@7@@google@@AAEXII@Z 10014200 f i PatchMW2CModels.obj
 0001:00013200       ?destroy_buckets@?$dense_hashtable@U?$pair@$$CBKPAUCModelAllocData@@@std@@KV?$hash_compare@KU?$less@K@std@@@stdext@@USelectKey@?$dense_hash_map@KPAUCModelAllocData@@V?$hash_compare@KU?$less@K@std@@@stdext@@U?$equal_to@K@std@@V?$libc_allocator_with_realloc@U?$pair@$$CBKPAUCModelAllocData@@@std@@@google@@@google@@USetKey@67@U?$equal_to@K@2@V?$libc_allocator_with_realloc@U?$pair@$$CBKPAUCModelAllocData@@@std@@@7@@google@@AAEXII@Z 10014200 f i PatchMW2CModels.obj
 0001:00013230       ?find_position@?$dense_hashtable@U?$pair@$$CBKPAX@std@@KV?$hash_compare@KU?$less@K@std@@@stdext@@USelectKey@?$dense_hash_map@KPAXV?$hash_compare@KU?$less@K@std@@@stdext@@U?$equal_to@K@std@@V?$libc_allocator_with_realloc@U?$pair@$$CBKPAX@std@@@google@@@google@@USetKey@67@U?$equal_to@K@2@V?$libc_allocator_with_realloc@U?$pair@$$CBKPAX@std@@@7@@google@@ABE?AU?$pair@II@std@@ABK@Z 10014230 f i PatchMW2CModels.obj
 0001:00013230       ?find_position@?$dense_hashtable@U?$pair@$$CBKPAUCModelAllocData@@@std@@KV?$hash_compare@KU?$less@K@std@@@stdext@@USelectKey@?$dense_hash_map@KPAUCModelAllocData@@V?$hash_compare@KU?$less@K@std@@@stdext@@U?$equal_to@K@std@@V?$libc_allocator_with_realloc@U?$pair@$$CBKPAUCModelAllocData@@@std@@@google@@@google@@USetKey@67@U?$equal_to@K@2@V?$libc_allocator_with_realloc@U?$pair@$$CBKPAUCModelAllocData@@@std@@@7@@google@@ABE?AU?$pair@II@std@@ABK@Z 10014230 f i PatchMW2CModels.obj
 0001:00013340       ?reset_thresholds@?$sh_hashtable_settings@KV?$hash_compare@KU?$less@K@std@@@stdext@@I$03@@QAEXI@Z 10014340 f i PatchMW2CModels.obj
 0001:00013340       ?reset_thresholds@?$sh_hashtable_settings@V?$basic_string@DU?$char_traits@D@std@@V?$allocator@D@2@@std@@V?$hash_compare@V?$basic_string@DU?$char_traits@D@std@@V?$allocator@D@2@@std@@U?$less@V?$basic_string@DU?$char_traits@D@std@@V?$allocator@D@2@@std@@@2@@stdext@@I$03@@QAEXI@Z 10014340 f i PatchMW2LocalizedStrings.obj
 0001:00013390       ??0?$_Pair_base@$$CBKPAUCModelAllocData@@@std@@QAE@ABK$$QAPAUCModelAllocData@@@Z 10014390 f i PatchMW2CModels.obj
 0001:00013390       ??0?$_Pair_base@$$CBKPAX@std@@QAE@ABK$$QAPAX@Z 10014390 f i PatchMW2CModels.obj
 0001:00013390       ??0?$_Pair_base@$$CBKK@std@@QAE@ABK$$QAK@Z 10014390 f i PatchMW2FilePointers.obj
 0001:00013390       ??0?$_Pair_base@$$CBHPAUnewWeapon@@@std@@QAE@ABH$$QAPAUnewWeapon@@@Z 10014390 f i PatchMW2PlayerdataDefinition.obj
 0001:00013390       ??0?$_Pair_base@QAXK@std@@QAE@ABQAX$$QAK@Z 10014390 f i PatchMW2FilePointers.obj
 0001:000133c0       ?set_deleted@?$dense_hashtable@U?$pair@$$CBKPAX@std@@KV?$hash_compare@KU?$less@K@std@@@stdext@@USelectKey@?$dense_hash_map@KPAXV?$hash_compare@KU?$less@K@std@@@stdext@@U?$equal_to@K@std@@V?$libc_allocator_with_realloc@U?$pair@$$CBKPAX@std@@@google@@@google@@USetKey@67@U?$equal_to@K@2@V?$libc_allocator_with_realloc@U?$pair@$$CBKPAX@std@@@7@@google@@AAE_NAAU?$dense_hashtable_iterator@U?$pair@$$CBKPAX@std@@KV?$hash_compare@KU?$less@K@std@@@stdext@@USelectKey@?$dense_hash_map@KPAXV?$hash_compare@KU?$less@K@std@@@stdext@@U?$equal_to@K@std@@V?$libc_allocator_with_realloc@U?$pair@$$CBKPAX@std@@@google@@@google@@USetKey@67@U?$equal_to@K@2@V?$libc_allocator_with_realloc@U?$pair@$$CBKPAX@std@@@7@@2@@Z 100143c0 f i PatchMW2CModels.obj
 0001:000133c0       ?set_deleted@?$dense_hashtable@U?$pair@$$CBKPAUCModelAllocData@@@std@@KV?$hash_compare@KU?$less@K@std@@@stdext@@USelectKey@?$dense_hash_map@KPAUCModelAllocData@@V?$hash_compare@KU?$less@K@std@@@stdext@@U?$equal_to@K@std@@V?$libc_allocator_with_realloc@U?$pair@$$CBKPAUCModelAllocData@@@std@@@google@@@google@@USetKey@67@U?$equal_to@K@2@V?$libc_allocator_with_realloc@U?$pair@$$CBKPAUCModelAllocData@@@std@@@7@@google@@AAE_NAAU?$dense_hashtable_iterator@U?$pair@$$CBKPAUCModelAllocData@@@std@@KV?$hash_compare@KU?$less@K@std@@@stdext@@USelectKey@?$dense_hash_map@KPAUCModelAllocData@@V?$hash_compare@KU?$less@K@std@@@stdext@@U?$equal_to@K@std@@V?$libc_allocator_with_realloc@U?$pair@$$CBKPAUCModelAllocData@@@std@@@google@@@google@@USetKey@67@U?$equal_to@K@2@V?$libc_allocator_with_realloc@U?$pair@$$CBKPAUCModelAllocData@@@std@@@7@@2@@Z 100143c0 f i PatchMW2CModels.obj
 0001:00013410       ?bucket_count@?$dense_hashtable@U?$pair@$$CBKPAX@std@@KV?$hash_compare@KU?$less@K@std@@@stdext@@USelectKey@?$dense_hash_map@KPAXV?$hash_compare@KU?$less@K@std@@@stdext@@U?$equal_to@K@std@@V?$libc_allocator_with_realloc@U?$pair@$$CBKPAX@std@@@google@@@google@@USetKey@67@U?$equal_to@K@2@V?$libc_allocator_with_realloc@U?$pair@$$CBKPAX@std@@@7@@google@@QBEIXZ 10014410 f i PatchMW2CModels.obj
 0001:00013410       ?bucket_count@?$dense_hashtable@U?$pair@$$CBKPAUCModelAllocData@@@std@@KV?$hash_compare@KU?$less@K@std@@@stdext@@USelectKey@?$dense_hash_map@KPAUCModelAllocData@@V?$hash_compare@KU?$less@K@std@@@stdext@@U?$equal_to@K@std@@V?$libc_allocator_with_realloc@U?$pair@$$CBKPAUCModelAllocData@@@std@@@google@@@google@@USetKey@67@U?$equal_to@K@2@V?$libc_allocator_with_realloc@U?$pair@$$CBKPAUCModelAllocData@@@std@@@7@@google@@QBEIXZ 10014410 f i PatchMW2CModels.obj
 0001:00013430       ?allocate@?$libc_allocator_with_realloc@U?$pair@$$CBKPAX@std@@@google@@QAEPAU?$pair@$$CBKPAX@std@@IPBU34@@Z 10014430 f i PatchMW2CModels.obj
 0001:00013430       ?allocate@?$libc_allocator_with_realloc@U?$pair@$$CBKPAUCModelAllocData@@@std@@@google@@QAEPAU?$pair@$$CBKPAUCModelAllocData@@@std@@IPBU34@@Z 10014430 f i PatchMW2CModels.obj
 0001:00013450       ??8?$_Deque_unchecked_const_iterator@U?$pair@PAEPAE@std@@V?$allocator@U?$pair@PAEPAE@std@@@2@@std@@QBE_NABV01@@Z 10014450 f i PatchMW2StringTable.obj
 0001:00013450       ??8?$dense_hashtable_iterator@U?$pair@$$CBKPAX@std@@KV?$hash_compare@KU?$less@K@std@@@stdext@@USelectKey@?$dense_hash_map@KPAXV?$hash_compare@KU?$less@K@std@@@stdext@@U?$equal_to@K@std@@V?$libc_allocator_with_realloc@U?$pair@$$CBKPAX@std@@@google@@@google@@USetKey@67@U?$equal_to@K@2@V?$libc_allocator_with_realloc@U?$pair@$$CBKPAX@std@@@7@@google@@QBE_NABU01@@Z 10014450 f i PatchMW2CModels.obj
 0001:00013450       ??8?$dense_hashtable_iterator@U?$pair@$$CBKPAUCModelAllocData@@@std@@KV?$hash_compare@KU?$less@K@std@@@stdext@@USelectKey@?$dense_hash_map@KPAUCModelAllocData@@V?$hash_compare@KU?$less@K@std@@@stdext@@U?$equal_to@K@std@@V?$libc_allocator_with_realloc@U?$pair@$$CBKPAUCModelAllocData@@@std@@@google@@@google@@USetKey@67@U?$equal_to@K@2@V?$libc_allocator_with_realloc@U?$pair@$$CBKPAUCModelAllocData@@@std@@@7@@google@@QBE_NABU01@@Z 10014450 f i PatchMW2CModels.obj
 0001:00013470       ?advance_past_empty_and_deleted@?$dense_hashtable_iterator@U?$pair@$$CBKPAX@std@@KV?$hash_compare@KU?$less@K@std@@@stdext@@USelectKey@?$dense_hash_map@KPAXV?$hash_compare@KU?$less@K@std@@@stdext@@U?$equal_to@K@std@@V?$libc_allocator_with_realloc@U?$pair@$$CBKPAX@std@@@google@@@google@@USetKey@67@U?$equal_to@K@2@V?$libc_allocator_with_realloc@U?$pair@$$CBKPAX@std@@@7@@google@@QAEXXZ 10014470 f i PatchMW2CModels.obj
 0001:00013470       ?advance_past_empty_and_deleted@?$dense_hashtable_const_iterator@U?$pair@$$CBKPAUCModelAllocData@@@std@@KV?$hash_compare@KU?$less@K@std@@@stdext@@USelectKey@?$dense_hash_map@KPAUCModelAllocData@@V?$hash_compare@KU?$less@K@std@@@stdext@@U?$equal_to@K@std@@V?$libc_allocator_with_realloc@U?$pair@$$CBKPAUCModelAllocData@@@std@@@google@@@google@@USetKey@67@U?$equal_to@K@2@V?$libc_allocator_with_realloc@U?$pair@$$CBKPAUCModelAllocData@@@std@@@7@@google@@QAEXXZ 10014470 f i PatchMW2CModels.obj
 0001:00013470       ?advance_past_empty_and_deleted@?$dense_hashtable_iterator@U?$pair@$$CBKPAUCModelAllocData@@@std@@KV?$hash_compare@KU?$less@K@std@@@stdext@@USelectKey@?$dense_hash_map@KPAUCModelAllocData@@V?$hash_compare@KU?$less@K@std@@@stdext@@U?$equal_to@K@std@@V?$libc_allocator_with_realloc@U?$pair@$$CBKPAUCModelAllocData@@@std@@@google@@@google@@USetKey@67@U?$equal_to@K@2@V?$libc_allocator_with_realloc@U?$pair@$$CBKPAUCModelAllocData@@@std@@@7@@google@@QAEXXZ 10014470 f i PatchMW2CModels.obj
 0001:00013470       ?advance_past_empty_and_deleted@?$dense_hashtable_const_iterator@U?$pair@$$CBKPAX@std@@KV?$hash_compare@KU?$less@K@std@@@stdext@@USelectKey@?$dense_hash_map@KPAXV?$hash_compare@KU?$less@K@std@@@stdext@@U?$equal_to@K@std@@V?$libc_allocator_with_realloc@U?$pair@$$CBKPAX@std@@@google@@@google@@USetKey@67@U?$equal_to@K@2@V?$libc_allocator_with_realloc@U?$pair@$$CBKPAX@std@@@7@@google@@QAEXXZ 10014470 f i PatchMW2CModels.obj
 0001:000134d0       ??0length_error@std@@QAE@ABV01@@Z 100144d0 f i PatchMW2CModels.obj
 0001:00013500       ??0logic_error@std@@QAE@ABV01@@Z 10014500 f i PatchMW2CModels.obj
 0001:00013530       ??0?$pair@PAEPAE@std@@QAE@ABU01@@Z 10014530 f i PatchMW2StringTable.obj
 0001:00013530       ??0?$pair@$$CBKPAUCModelAllocData@@@std@@QAE@ABU01@@Z 10014530 f i PatchMW2CModels.obj
 0001:00013530       ??0?$pair@$$CBKPAX@std@@QAE@ABU01@@Z 10014530 f i PatchMW2CModels.obj
 0001:00013550       ?test_deleted@?$dense_hashtable@U?$pair@$$CBKPAX@std@@KV?$hash_compare@KU?$less@K@std@@@stdext@@USelectKey@?$dense_hash_map@KPAXV?$hash_compare@KU?$less@K@std@@@stdext@@U?$equal_to@K@std@@V?$libc_allocator_with_realloc@U?$pair@$$CBKPAX@std@@@google@@@google@@USetKey@67@U?$equal_to@K@2@V?$libc_allocator_with_realloc@U?$pair@$$CBKPAX@std@@@7@@google@@QBE_NI@Z 10014550 f i PatchMW2CModels.obj
 0001:00013550       ?test_deleted@?$dense_hashtable@U?$pair@$$CBKPAUCModelAllocData@@@std@@KV?$hash_compare@KU?$less@K@std@@@stdext@@USelectKey@?$dense_hash_map@KPAUCModelAllocData@@V?$hash_compare@KU?$less@K@std@@@stdext@@U?$equal_to@K@std@@V?$libc_allocator_with_realloc@U?$pair@$$CBKPAUCModelAllocData@@@std@@@google@@@google@@USetKey@67@U?$equal_to@K@2@V?$libc_allocator_with_realloc@U?$pair@$$CBKPAUCModelAllocData@@@std@@@7@@google@@QBE_NI@Z 10014550 f i PatchMW2CModels.obj
 0001:00013580       ?test_deleted@?$dense_hashtable@U?$pair@$$CBKPAX@std@@KV?$hash_compare@KU?$less@K@std@@@stdext@@USelectKey@?$dense_hash_map@KPAXV?$hash_compare@KU?$less@K@std@@@stdext@@U?$equal_to@K@std@@V?$libc_allocator_with_realloc@U?$pair@$$CBKPAX@std@@@google@@@google@@USetKey@67@U?$equal_to@K@2@V?$libc_allocator_with_realloc@U?$pair@$$CBKPAX@std@@@7@@google@@QBE_NABU?$dense_hashtable_const_iterator@U?$pair@$$CBKPAX@std@@KV?$hash_compare@KU?$less@K@std@@@stdext@@USelectKey@?$dense_hash_map@KPAXV?$hash_compare@KU?$less@K@std@@@stdext@@U?$equal_to@K@std@@V?$libc_allocator_with_realloc@U?$pair@$$CBKPAX@std@@@google@@@google@@USetKey@67@U?$equal_to@K@2@V?$libc_allocator_with_realloc@U?$pair@$$CBKPAX@std@@@7@@2@@Z 10014580 f i PatchMW2CModels.obj
 0001:00013580       ?test_deleted@?$dense_hashtable@U?$pair@$$CBKPAX@std@@KV?$hash_compare@KU?$less@K@std@@@stdext@@USelectKey@?$dense_hash_map@KPAXV?$hash_compare@KU?$less@K@std@@@stdext@@U?$equal_to@K@std@@V?$libc_allocator_with_realloc@U?$pair@$$CBKPAX@std@@@google@@@google@@USetKey@67@U?$equal_to@K@2@V?$libc_allocator_with_realloc@U?$pair@$$CBKPAX@std@@@7@@google@@QBE_NABU?$dense_hashtable_iterator@U?$pair@$$CBKPAX@std@@KV?$hash_compare@KU?$less@K@std@@@stdext@@USelectKey@?$dense_hash_map@KPAXV?$hash_compare@KU?$less@K@std@@@stdext@@U?$equal_to@K@std@@V?$libc_allocator_with_realloc@U?$pair@$$CBKPAX@std@@@google@@@google@@USetKey@67@U?$equal_to@K@2@V?$libc_allocator_with_realloc@U?$pair@$$CBKPAX@std@@@7@@2@@Z 10014580 f i PatchMW2CModels.obj
 0001:00013580       ?test_deleted@?$dense_hashtable@U?$pair@$$CBKPAUCModelAllocData@@@std@@KV?$hash_compare@KU?$less@K@std@@@stdext@@USelectKey@?$dense_hash_map@KPAUCModelAllocData@@V?$hash_compare@KU?$less@K@std@@@stdext@@U?$equal_to@K@std@@V?$libc_allocator_with_realloc@U?$pair@$$CBKPAUCModelAllocData@@@std@@@google@@@google@@USetKey@67@U?$equal_to@K@2@V?$libc_allocator_with_realloc@U?$pair@$$CBKPAUCModelAllocData@@@std@@@7@@google@@QBE_NABU?$dense_hashtable_const_iterator@U?$pair@$$CBKPAUCModelAllocData@@@std@@KV?$hash_compare@KU?$less@K@std@@@stdext@@USelectKey@?$dense_hash_map@KPAUCModelAllocData@@V?$hash_compare@KU?$less@K@std@@@stdext@@U?$equal_to@K@std@@V?$libc_allocator_with_realloc@U?$pair@$$CBKPAUCModelAllocData@@@std@@@google@@@google@@USetKey@67@U?$equal_to@K@2@V?$libc_allocator_with_realloc@U?$pair@$$CBKPAUCModelAllocData@@@std@@@7@@2@@Z 10014580 f i PatchMW2CModels.obj
 0001:00013580       ?test_deleted@?$dense_hashtable@U?$pair@$$CBKPAUCModelAllocData@@@std@@KV?$hash_compare@KU?$less@K@std@@@stdext@@USelectKey@?$dense_hash_map@KPAUCModelAllocData@@V?$hash_compare@KU?$less@K@std@@@stdext@@U?$equal_to@K@std@@V?$libc_allocator_with_realloc@U?$pair@$$CBKPAUCModelAllocData@@@std@@@google@@@google@@USetKey@67@U?$equal_to@K@2@V?$libc_allocator_with_realloc@U?$pair@$$CBKPAUCModelAllocData@@@std@@@7@@google@@QBE_NABU?$dense_hashtable_iterator@U?$pair@$$CBKPAUCModelAllocData@@@std@@KV?$hash_compare@KU?$less@K@std@@@stdext@@USelectKey@?$dense_hash_map@KPAUCModelAllocData@@V?$hash_compare@KU?$less@K@std@@@stdext@@U?$equal_to@K@std@@V?$libc_allocator_with_realloc@U?$pair@$$CBKPAUCModelAllocData@@@std@@@google@@@google@@USetKey@67@U?$equal_to@K@2@V?$libc_allocator_with_realloc@U?$pair@$$CBKPAUCModelAllocData@@@std@@@7@@2@@Z 10014580 f i PatchMW2CModels.obj
 0001:000135b0       ?test_empty@?$dense_hashtable@U?$pair@$$CBKPAX@std@@KV?$hash_compare@KU?$less@K@std@@@stdext@@USelectKey@?$dense_hash_map@KPAXV?$hash_compare@KU?$less@K@std@@@stdext@@U?$equal_to@K@std@@V?$libc_allocator_with_realloc@U?$pair@$$CBKPAX@std@@@google@@@google@@USetKey@67@U?$equal_to@K@2@V?$libc_allocator_with_realloc@U?$pair@$$CBKPAX@std@@@7@@google@@QBE_NI@Z 100145b0 f i PatchMW2CModels.obj
 0001:000135b0       ?test_empty@?$dense_hashtable@U?$pair@$$CBKPAUCModelAllocData@@@std@@KV?$hash_compare@KU?$less@K@std@@@stdext@@USelectKey@?$dense_hash_map@KPAUCModelAllocData@@V?$hash_compare@KU?$less@K@std@@@stdext@@U?$equal_to@K@std@@V?$libc_allocator_with_realloc@U?$pair@$$CBKPAUCModelAllocData@@@std@@@google@@@google@@USetKey@67@U?$equal_to@K@2@V?$libc_allocator_with_realloc@U?$pair@$$CBKPAUCModelAllocData@@@std@@@7@@google@@QBE_NI@Z 100145b0 f i PatchMW2CModels.obj
 0001:000135f0       ?test_empty@?$dense_hashtable@U?$pair@$$CBKPAUCModelAllocData@@@std@@KV?$hash_compare@KU?$less@K@std@@@stdext@@USelectKey@?$dense_hash_map@KPAUCModelAllocData@@V?$hash_compare@KU?$less@K@std@@@stdext@@U?$equal_to@K@std@@V?$libc_allocator_with_realloc@U?$pair@$$CBKPAUCModelAllocData@@@std@@@google@@@google@@USetKey@67@U?$equal_to@K@2@V?$libc_allocator_with_realloc@U?$pair@$$CBKPAUCModelAllocData@@@std@@@7@@google@@QBE_NABU?$dense_hashtable_iterator@U?$pair@$$CBKPAUCModelAllocData@@@std@@KV?$hash_compare@KU?$less@K@std@@@stdext@@USelectKey@?$dense_hash_map@KPAUCModelAllocData@@V?$hash_compare@KU?$less@K@std@@@stdext@@U?$equal_to@K@std@@V?$libc_allocator_with_realloc@U?$pair@$$CBKPAUCModelAllocData@@@std@@@google@@@google@@USetKey@67@U?$equal_to@K@2@V?$libc_allocator_with_realloc@U?$pair@$$CBKPAUCModelAllocData@@@std@@@7@@2@@Z 100145f0 f i PatchMW2CModels.obj
 0001:000135f0       ?test_empty@?$dense_hashtable@U?$pair@$$CBKPAX@std@@KV?$hash_compare@KU?$less@K@std@@@stdext@@USelectKey@?$dense_hash_map@KPAXV?$hash_compare@KU?$less@K@std@@@stdext@@U?$equal_to@K@std@@V?$libc_allocator_with_realloc@U?$pair@$$CBKPAX@std@@@google@@@google@@USetKey@67@U?$equal_to@K@2@V?$libc_allocator_with_realloc@U?$pair@$$CBKPAX@std@@@7@@google@@QBE_NABU?$dense_hashtable_iterator@U?$pair@$$CBKPAX@std@@KV?$hash_compare@KU?$less@K@std@@@stdext@@USelectKey@?$dense_hash_map@KPAXV?$hash_compare@KU?$less@K@std@@@stdext@@U?$equal_to@K@std@@V?$libc_allocator_with_realloc@U?$pair@$$CBKPAX@std@@@google@@@google@@USetKey@67@U?$equal_to@K@2@V?$libc_allocator_with_realloc@U?$pair@$$CBKPAX@std@@@7@@2@@Z 100145f0 f i PatchMW2CModels.obj
 0001:000135f0       ?test_empty@?$dense_hashtable@U?$pair@$$CBKPAX@std@@KV?$hash_compare@KU?$less@K@std@@@stdext@@USelectKey@?$dense_hash_map@KPAXV?$hash_compare@KU?$less@K@std@@@stdext@@U?$equal_to@K@std@@V?$libc_allocator_with_realloc@U?$pair@$$CBKPAX@std@@@google@@@google@@USetKey@67@U?$equal_to@K@2@V?$libc_allocator_with_realloc@U?$pair@$$CBKPAX@std@@@7@@google@@QBE_NABU?$dense_hashtable_const_iterator@U?$pair@$$CBKPAX@std@@KV?$hash_compare@KU?$less@K@std@@@stdext@@USelectKey@?$dense_hash_map@KPAXV?$hash_compare@KU?$less@K@std@@@stdext@@U?$equal_to@K@std@@V?$libc_allocator_with_realloc@U?$pair@$$CBKPAX@std@@@google@@@google@@USetKey@67@U?$equal_to@K@2@V?$libc_allocator_with_realloc@U?$pair@$$CBKPAX@std@@@7@@2@@Z 100145f0 f i PatchMW2CModels.obj
 0001:000135f0       ?test_empty@?$dense_hashtable@U?$pair@$$CBKPAUCModelAllocData@@@std@@KV?$hash_compare@KU?$less@K@std@@@stdext@@USelectKey@?$dense_hash_map@KPAUCModelAllocData@@V?$hash_compare@KU?$less@K@std@@@stdext@@U?$equal_to@K@std@@V?$libc_allocator_with_realloc@U?$pair@$$CBKPAUCModelAllocData@@@std@@@google@@@google@@USetKey@67@U?$equal_to@K@2@V?$libc_allocator_with_realloc@U?$pair@$$CBKPAUCModelAllocData@@@std@@@7@@google@@QBE_NABU?$dense_hashtable_const_iterator@U?$pair@$$CBKPAUCModelAllocData@@@std@@KV?$hash_compare@KU?$less@K@std@@@stdext@@USelectKey@?$dense_hash_map@KPAUCModelAllocData@@V?$hash_compare@KU?$less@K@std@@@stdext@@U?$equal_to@K@std@@V?$libc_allocator_with_realloc@U?$pair@$$CBKPAUCModelAllocData@@@std@@@google@@@google@@USetKey@67@U?$equal_to@K@2@V?$libc_allocator_with_realloc@U?$pair@$$CBKPAUCModelAllocData@@@std@@@7@@2@@Z 100145f0 f i PatchMW2CModels.obj
 0001:00013630       ?resize_table@?$dense_hashtable@U?$pair@$$CBKPAX@std@@KV?$hash_compare@KU?$less@K@std@@@stdext@@USelectKey@?$dense_hash_map@KPAXV?$hash_compare@KU?$less@K@std@@@stdext@@U?$equal_to@K@std@@V?$libc_allocator_with_realloc@U?$pair@$$CBKPAX@std@@@google@@@google@@USetKey@67@U?$equal_to@K@2@V?$libc_allocator_with_realloc@U?$pair@$$CBKPAX@std@@@7@@google@@AAEXIIU?$integral_constant@_N$00@2@@Z 10014630 f i PatchMW2CModels.obj
 0001:00013630       ?resize_table@?$dense_hashtable@U?$pair@$$CBKPAUCModelAllocData@@@std@@KV?$hash_compare@KU?$less@K@std@@@stdext@@USelectKey@?$dense_hash_map@KPAUCModelAllocData@@V?$hash_compare@KU?$less@K@std@@@stdext@@U?$equal_to@K@std@@V?$libc_allocator_with_realloc@U?$pair@$$CBKPAUCModelAllocData@@@std@@@google@@@google@@USetKey@67@U?$equal_to@K@2@V?$libc_allocator_with_realloc@U?$pair@$$CBKPAUCModelAllocData@@@std@@@7@@google@@AAEXIIU?$integral_constant@_N$00@2@@Z 10014630 f i PatchMW2CModels.obj
 0001:00013660       ?hash@?$dense_hashtable@U?$pair@$$CBKPAX@std@@KV?$hash_compare@KU?$less@K@std@@@stdext@@USelectKey@?$dense_hash_map@KPAXV?$hash_compare@KU?$less@K@std@@@stdext@@U?$equal_to@K@std@@V?$libc_allocator_with_realloc@U?$pair@$$CBKPAX@std@@@google@@@google@@USetKey@67@U?$equal_to@K@2@V?$libc_allocator_with_realloc@U?$pair@$$CBKPAX@std@@@7@@google@@ABEIABK@Z 10014660 f i PatchMW2CModels.obj
 0001:00013660       ?hash@?$dense_hashtable@U?$pair@$$CBKPAUCModelAllocData@@@std@@KV?$hash_compare@KU?$less@K@std@@@stdext@@USelectKey@?$dense_hash_map@KPAUCModelAllocData@@V?$hash_compare@KU?$less@K@std@@@stdext@@U?$equal_to@K@std@@V?$libc_allocator_with_realloc@U?$pair@$$CBKPAUCModelAllocData@@@std@@@google@@@google@@USetKey@67@U?$equal_to@K@2@V?$libc_allocator_with_realloc@U?$pair@$$CBKPAUCModelAllocData@@@std@@@7@@google@@ABEIABK@Z 10014660 f i PatchMW2CModels.obj
 0001:00013680       ?equals@?$dense_hashtable@U?$pair@$$CBKPAX@std@@KV?$hash_compare@KU?$less@K@std@@@stdext@@USelectKey@?$dense_hash_map@KPAXV?$hash_compare@KU?$less@K@std@@@stdext@@U?$equal_to@K@std@@V?$libc_allocator_with_realloc@U?$pair@$$CBKPAX@std@@@google@@@google@@USetKey@67@U?$equal_to@K@2@V?$libc_allocator_with_realloc@U?$pair@$$CBKPAX@std@@@7@@google@@ABE_NABK0@Z 10014680 f i PatchMW2CModels.obj
 0001:00013680       ?equals@?$dense_hashtable@U?$pair@$$CBKPAUCModelAllocData@@@std@@KV?$hash_compare@KU?$less@K@std@@@stdext@@USelectKey@?$dense_hash_map@KPAUCModelAllocData@@V?$hash_compare@KU?$less@K@std@@@stdext@@U?$equal_to@K@std@@V?$libc_allocator_with_realloc@U?$pair@$$CBKPAUCModelAllocData@@@std@@@google@@@google@@USetKey@67@U?$equal_to@K@2@V?$libc_allocator_with_realloc@U?$pair@$$CBKPAUCModelAllocData@@@std@@@7@@google@@ABE_NABK0@Z 10014680 f i PatchMW2CModels.obj
 0001:000136a0       ?enlarge_factor@?$sh_hashtable_settings@V?$basic_string@DU?$char_traits@D@std@@V?$allocator@D@2@@std@@V?$hash_compare@V?$basic_string@DU?$char_traits@D@std@@V?$allocator@D@2@@std@@U?$less@V?$basic_string@DU?$char_traits@D@std@@V?$allocator@D@2@@std@@@2@@stdext@@I$03@@QBEMXZ 100146a0 f i PatchMW2LocalizedStrings.obj
 0001:000136a0       ?enlarge_factor@?$sh_hashtable_settings@KV?$hash_compare@KU?$less@K@std@@@stdext@@I$03@@QBEMXZ 100146a0 f i PatchMW2CModels.obj
 0001:000136c0       ?enlarge_size@?$sh_hashtable_settings@KV?$hash_compare@KU?$less@K@std@@@stdext@@I$03@@QBEII@Z 100146c0 f i PatchMW2CModels.obj
 0001:000136c0       ?enlarge_size@?$sh_hashtable_settings@V?$basic_string@DU?$char_traits@D@std@@V?$allocator@D@2@@std@@V?$hash_compare@V?$basic_string@DU?$char_traits@D@std@@V?$allocator@D@2@@std@@U?$less@V?$basic_string@DU?$char_traits@D@std@@V?$allocator@D@2@@std@@@2@@stdext@@I$03@@QBEII@Z 100146c0 f i PatchMW2LocalizedStrings.obj
 0001:00013700       ?shrink_size@?$sh_hashtable_settings@KV?$hash_compare@KU?$less@K@std@@@stdext@@I$03@@QBEII@Z 10014700 f i PatchMW2CModels.obj
 0001:00013700       ?shrink_size@?$sh_hashtable_settings@V?$basic_string@DU?$char_traits@D@std@@V?$allocator@D@2@@std@@V?$hash_compare@V?$basic_string@DU?$char_traits@D@std@@V?$allocator@D@2@@std@@U?$less@V?$basic_string@DU?$char_traits@D@std@@V?$allocator@D@2@@std@@@2@@stdext@@I$03@@QBEII@Z 10014700 f i PatchMW2LocalizedStrings.obj
 0001:00013740       ?set_key@?$dense_hashtable@U?$pair@$$CBKPAX@std@@KV?$hash_compare@KU?$less@K@std@@@stdext@@USelectKey@?$dense_hash_map@KPAXV?$hash_compare@KU?$less@K@std@@@stdext@@U?$equal_to@K@std@@V?$libc_allocator_with_realloc@U?$pair@$$CBKPAX@std@@@google@@@google@@USetKey@67@U?$equal_to@K@2@V?$libc_allocator_with_realloc@U?$pair@$$CBKPAX@std@@@7@@google@@ABEXPAU?$pair@$$CBKPAX@std@@ABK@Z 10014740 f i PatchMW2CModels.obj
 0001:00013740       ?set_key@?$dense_hashtable@U?$pair@$$CBKPAUCModelAllocData@@@std@@KV?$hash_compare@KU?$less@K@std@@@stdext@@USelectKey@?$dense_hash_map@KPAUCModelAllocData@@V?$hash_compare@KU?$less@K@std@@@stdext@@U?$equal_to@K@std@@V?$libc_allocator_with_realloc@U?$pair@$$CBKPAUCModelAllocData@@@std@@@google@@@google@@USetKey@67@U?$equal_to@K@2@V?$libc_allocator_with_realloc@U?$pair@$$CBKPAUCModelAllocData@@@std@@@7@@google@@ABEXPAU?$pair@$$CBKPAUCModelAllocData@@@std@@ABK@Z 10014740 f i PatchMW2CModels.obj
 0001:00013760       ?test_deleted_key@?$dense_hashtable@U?$pair@$$CBKPAX@std@@KV?$hash_compare@KU?$less@K@std@@@stdext@@USelectKey@?$dense_hash_map@KPAXV?$hash_compare@KU?$less@K@std@@@stdext@@U?$equal_to@K@std@@V?$libc_allocator_with_realloc@U?$pair@$$CBKPAX@std@@@google@@@google@@USetKey@67@U?$equal_to@K@2@V?$libc_allocator_with_realloc@U?$pair@$$CBKPAX@std@@@7@@google@@ABE_NABK@Z 10014760 f i PatchMW2CModels.obj
 0001:00013760       ?test_deleted_key@?$dense_hashtable@U?$pair@$$CBKPAUCModelAllocData@@@std@@KV?$hash_compare@KU?$less@K@std@@@stdext@@USelectKey@?$dense_hash_map@KPAUCModelAllocData@@V?$hash_compare@KU?$less@K@std@@@stdext@@U?$equal_to@K@std@@V?$libc_allocator_with_realloc@U?$pair@$$CBKPAUCModelAllocData@@@std@@@google@@@google@@USetKey@67@U?$equal_to@K@2@V?$libc_allocator_with_realloc@U?$pair@$$CBKPAUCModelAllocData@@@std@@@7@@google@@ABE_NABK@Z 10014760 f i PatchMW2CModels.obj
 0001:000137b0       ?hash@?$sh_hashtable_settings@KV?$hash_compare@KU?$less@K@std@@@stdext@@I$03@@QBEIABK@Z 100147b0 f i PatchMW2CModels.obj
 0001:000137d0       ?set_key@KeyInfo@?$dense_hashtable@U?$pair@$$CBKPAX@std@@KV?$hash_compare@KU?$less@K@std@@@stdext@@USelectKey@?$dense_hash_map@KPAXV?$hash_compare@KU?$less@K@std@@@stdext@@U?$equal_to@K@std@@V?$libc_allocator_with_realloc@U?$pair@$$CBKPAX@std@@@google@@@google@@USetKey@67@U?$equal_to@K@2@V?$libc_allocator_with_realloc@U?$pair@$$CBKPAX@std@@@7@@google@@QBEXPAU?$pair@$$CBKPAX@std@@ABK@Z 100147d0 f i PatchMW2CModels.obj
 0001:000137d0       ?set_key@KeyInfo@?$dense_hashtable@U?$pair@$$CBKPAUCModelAllocData@@@std@@KV?$hash_compare@KU?$less@K@std@@@stdext@@USelectKey@?$dense_hash_map@KPAUCModelAllocData@@V?$hash_compare@KU?$less@K@std@@@stdext@@U?$equal_to@K@std@@V?$libc_allocator_with_realloc@U?$pair@$$CBKPAUCModelAllocData@@@std@@@google@@@google@@USetKey@67@U?$equal_to@K@2@V?$libc_allocator_with_realloc@U?$pair@$$CBKPAUCModelAllocData@@@std@@@7@@google@@QBEXPAU?$pair@$$CBKPAUCModelAllocData@@@std@@ABK@Z 100147d0 f i PatchMW2CModels.obj
 0001:000137f0       ?equals@KeyInfo@?$dense_hashtable@U?$pair@$$CBKPAUCModelAllocData@@@std@@KV?$hash_compare@KU?$less@K@std@@@stdext@@USelectKey@?$dense_hash_map@KPAUCModelAllocData@@V?$hash_compare@KU?$less@K@std@@@stdext@@U?$equal_to@K@std@@V?$libc_allocator_with_realloc@U?$pair@$$CBKPAUCModelAllocData@@@std@@@google@@@google@@USetKey@67@U?$equal_to@K@2@V?$libc_allocator_with_realloc@U?$pair@$$CBKPAUCModelAllocData@@@std@@@7@@google@@QBE_NABK0@Z 100147f0 f i PatchMW2CModels.obj
 0001:000137f0       ?equals@KeyInfo@?$dense_hashtable@U?$pair@$$CBKPAX@std@@KV?$hash_compare@KU?$less@K@std@@@stdext@@USelectKey@?$dense_hash_map@KPAXV?$hash_compare@KU?$less@K@std@@@stdext@@U?$equal_to@K@std@@V?$libc_allocator_with_realloc@U?$pair@$$CBKPAX@std@@@google@@@google@@USetKey@67@U?$equal_to@K@2@V?$libc_allocator_with_realloc@U?$pair@$$CBKPAX@std@@@7@@google@@QBE_NABK0@Z 100147f0 f i PatchMW2CModels.obj
 0001:00013810       ?realloc_or_die@?$alloc_impl@V?$libc_allocator_with_realloc@U?$pair@$$CBKPAX@std@@@google@@@?$dense_hashtable@U?$pair@$$CBKPAX@std@@KV?$hash_compare@KU?$less@K@std@@@stdext@@USelectKey@?$dense_hash_map@KPAXV?$hash_compare@KU?$less@K@std@@@stdext@@U?$equal_to@K@std@@V?$libc_allocator_with_realloc@U?$pair@$$CBKPAX@std@@@google@@@google@@USetKey@67@U?$equal_to@K@2@V?$libc_allocator_with_realloc@U?$pair@$$CBKPAX@std@@@7@@google@@QAEPAU?$pair@$$CBKPAX@std@@PAU45@I@Z 10014810 f i PatchMW2CModels.obj
 0001:00013810       ?realloc_or_die@?$alloc_impl@V?$libc_allocator_with_realloc@U?$pair@$$CBKPAUCModelAllocData@@@std@@@google@@@?$dense_hashtable@U?$pair@$$CBKPAUCModelAllocData@@@std@@KV?$hash_compare@KU?$less@K@std@@@stdext@@USelectKey@?$dense_hash_map@KPAUCModelAllocData@@V?$hash_compare@KU?$less@K@std@@@stdext@@U?$equal_to@K@std@@V?$libc_allocator_with_realloc@U?$pair@$$CBKPAUCModelAllocData@@@std@@@google@@@google@@USetKey@67@U?$equal_to@K@2@V?$libc_allocator_with_realloc@U?$pair@$$CBKPAUCModelAllocData@@@std@@@7@@google@@QAEPAU?$pair@$$CBKPAUCModelAllocData@@@std@@PAU45@I@Z 10014810 f i PatchMW2CModels.obj
 0001:00013860       ?reallocate@?$libc_allocator_with_realloc@U?$pair@$$CBKPAX@std@@@google@@QAEPAU?$pair@$$CBKPAX@std@@PAU34@I@Z 10014860 f i PatchMW2CModels.obj
 0001:00013860       ?reallocate@?$libc_allocator_with_realloc@U?$pair@$$CBKPAUCModelAllocData@@@std@@@google@@QAEPAU?$pair@$$CBKPAUCModelAllocData@@@std@@PAU34@I@Z 10014860 f i PatchMW2CModels.obj
 0001:00013880       ??R?$hash_compare@KU?$less@K@std@@@stdext@@QBEIABK@Z 10014880 f i PatchMW2CModels.obj
 0001:000138f0       ??RSetKey@?$dense_hash_map@KPAXV?$hash_compare@KU?$less@K@std@@@stdext@@U?$equal_to@K@std@@V?$libc_allocator_with_realloc@U?$pair@$$CBKPAX@std@@@google@@@google@@QBEXPAU?$pair@$$CBKPAX@std@@ABK@Z 100148f0 f i PatchMW2CModels.obj
 0001:000138f0       ??RSetKey@?$dense_hash_map@KPAUCModelAllocData@@V?$hash_compare@KU?$less@K@std@@@stdext@@U?$equal_to@K@std@@V?$libc_allocator_with_realloc@U?$pair@$$CBKPAUCModelAllocData@@@std@@@google@@@google@@QBEXPAU?$pair@$$CBKPAUCModelAllocData@@@std@@ABK@Z 100148f0 f i PatchMW2CModels.obj
 0001:00013920       ??R?$equal_to@PAX@std@@QBE_NABQAX0@Z 10014920 f i PatchMW2FilePointers.obj
 0001:00013920       ??R?$equal_to@K@std@@QBE_NABK0@Z 10014920 f i PatchMW2CModels.obj
 0001:00013920       ??R?$equal_to@H@std@@QBE_NABH0@Z 10014920 f i PatchMW2Friends.obj
 0001:00013940       ??$find_or_insert@UDefaultValue@?$dense_hash_map@KPAUCModelAllocData@@V?$hash_compare@KU?$less@K@std@@@stdext@@U?$equal_to@K@std@@V?$libc_allocator_with_realloc@U?$pair@$$CBKPAUCModelAllocData@@@std@@@google@@@google@@@?$dense_hashtable@U?$pair@$$CBKPAUCModelAllocData@@@std@@KV?$hash_compare@KU?$less@K@std@@@stdext@@USelectKey@?$dense_hash_map@KPAUCModelAllocData@@V?$hash_compare@KU?$less@K@std@@@stdext@@U?$equal_to@K@std@@V?$libc_allocator_with_realloc@U?$pair@$$CBKPAUCModelAllocData@@@std@@@google@@@google@@USetKey@67@U?$equal_to@K@2@V?$libc_allocator_with_realloc@U?$pair@$$CBKPAUCModelAllocData@@@std@@@7@@google@@QAEAAU?$pair@$$CBKPAUCModelAllocData@@@std@@ABK@Z 10014940 f i PatchMW2CModels.obj
 0001:00013940       ??$find_or_insert@UDefaultValue@?$dense_hash_map@KPAXV?$hash_compare@KU?$less@K@std@@@stdext@@U?$equal_to@K@std@@V?$libc_allocator_with_realloc@U?$pair@$$CBKPAX@std@@@google@@@google@@@?$dense_hashtable@U?$pair@$$CBKPAX@std@@KV?$hash_compare@KU?$less@K@std@@@stdext@@USelectKey@?$dense_hash_map@KPAXV?$hash_compare@KU?$less@K@std@@@stdext@@U?$equal_to@K@std@@V?$libc_allocator_with_realloc@U?$pair@$$CBKPAX@std@@@google@@@google@@USetKey@67@U?$equal_to@K@2@V?$libc_allocator_with_realloc@U?$pair@$$CBKPAX@std@@@7@@google@@QAEAAU?$pair@$$CBKPAX@std@@ABK@Z 10014940 f i PatchMW2CModels.obj
 0001:000139e0       ??$uninitialized_fill@PAU?$pair@$$CBKPAUCModelAllocData@@@std@@U12@@std@@YAXPAU?$pair@$$CBKPAUCModelAllocData@@@0@0ABU10@@Z 100149e0 f i PatchMW2CModels.obj
 0001:000139e0       ??$uninitialized_fill@PAU?$pair@$$CBKPAX@std@@U12@@std@@YAXPAU?$pair@$$CBKPAX@0@0ABU10@@Z 100149e0 f i PatchMW2CModels.obj
 0001:00013a20       ??$?0AAKPAUCModelAllocData@@@?$pair@KPAUCModelAllocData@@@std@@QAE@AAK$$QAPAUCModelAllocData@@@Z 10014a20 f i PatchMW2CModels.obj
 0001:00013a20       ??$?0AAKPAX@?$pair@KPAX@std@@QAE@AAK$$QAPAX@Z 10014a20 f i PatchMW2CModels.obj
 0001:00013a20       ??$?0ABIAAI@?$pair@II@std@@QAE@ABIAAI@Z 10014a20 f i PatchMW2CModels.obj
 0001:00013a20       ??$?0AAIABI@?$pair@II@std@@QAE@AAIABI@Z 10014a20 f i PatchMW2CModels.obj
 0001:00013a20       ??0?$pair@HPAUnewWeapon@@@std@@QAE@$$QAH$$QAPAUnewWeapon@@@Z 10014a20 f i PatchMW2PlayerdataDefinition.obj
 0001:00013a60       ??$hash_value@K@stdext@@YAIABK@Z 10014a60 f i PatchMW2CModels.obj
 0001:00013a70       ?resize_delta@?$dense_hashtable@U?$pair@$$CBKPAUCModelAllocData@@@std@@KV?$hash_compare@KU?$less@K@std@@@stdext@@USelectKey@?$dense_hash_map@KPAUCModelAllocData@@V?$hash_compare@KU?$less@K@std@@@stdext@@U?$equal_to@K@std@@V?$libc_allocator_with_realloc@U?$pair@$$CBKPAUCModelAllocData@@@std@@@google@@@google@@USetKey@67@U?$equal_to@K@2@V?$libc_allocator_with_realloc@U?$pair@$$CBKPAUCModelAllocData@@@std@@@7@@google@@AAE_NI@Z 10014a70 f i PatchMW2CModels.obj
 0001:00013a70       ?resize_delta@?$dense_hashtable@U?$pair@$$CBKPAX@std@@KV?$hash_compare@KU?$less@K@std@@@stdext@@USelectKey@?$dense_hash_map@KPAXV?$hash_compare@KU?$less@K@std@@@stdext@@U?$equal_to@K@std@@V?$libc_allocator_with_realloc@U?$pair@$$CBKPAX@std@@@google@@@google@@USetKey@67@U?$equal_to@K@2@V?$libc_allocator_with_realloc@U?$pair@$$CBKPAX@std@@@7@@google@@AAE_NI@Z 10014a70 f i PatchMW2CModels.obj
 0001:00013bf0       ?max@?$numeric_limits@I@std@@SAIXZ 10014bf0 f i PatchMW2CModels.obj
 0001:00013bf0       ?eof@?$char_traits@D@std@@SAHXZ 10014bf0 f i Auth.obj
 0001:00013c00       ?insert_at@?$dense_hashtable@U?$pair@$$CBKPAX@std@@KV?$hash_compare@KU?$less@K@std@@@stdext@@USelectKey@?$dense_hash_map@KPAXV?$hash_compare@KU?$less@K@std@@@stdext@@U?$equal_to@K@std@@V?$libc_allocator_with_realloc@U?$pair@$$CBKPAX@std@@@google@@@google@@USetKey@67@U?$equal_to@K@2@V?$libc_allocator_with_realloc@U?$pair@$$CBKPAX@std@@@7@@google@@AAE?AU?$dense_hashtable_iterator@U?$pair@$$CBKPAX@std@@KV?$hash_compare@KU?$less@K@std@@@stdext@@USelectKey@?$dense_hash_map@KPAXV?$hash_compare@KU?$less@K@std@@@stdext@@U?$equal_to@K@std@@V?$libc_allocator_with_realloc@U?$pair@$$CBKPAX@std@@@google@@@google@@USetKey@67@U?$equal_to@K@2@V?$libc_allocator_with_realloc@U?$pair@$$CBKPAX@std@@@7@@2@ABU?$pair@$$CBKPAX@std@@I@Z 10014c00 f i PatchMW2CModels.obj
 0001:00013c00       ?insert_at@?$dense_hashtable@U?$pair@$$CBKPAUCModelAllocData@@@std@@KV?$hash_compare@KU?$less@K@std@@@stdext@@USelectKey@?$dense_hash_map@KPAUCModelAllocData@@V?$hash_compare@KU?$less@K@std@@@stdext@@U?$equal_to@K@std@@V?$libc_allocator_with_realloc@U?$pair@$$CBKPAUCModelAllocData@@@std@@@google@@@google@@USetKey@67@U?$equal_to@K@2@V?$libc_allocator_with_realloc@U?$pair@$$CBKPAUCModelAllocData@@@std@@@7@@google@@AAE?AU?$dense_hashtable_iterator@U?$pair@$$CBKPAUCModelAllocData@@@std@@KV?$hash_compare@KU?$less@K@std@@@stdext@@USelectKey@?$dense_hash_map@KPAUCModelAllocData@@V?$hash_compare@KU?$less@K@std@@@stdext@@U?$equal_to@K@std@@V?$libc_allocator_with_realloc@U?$pair@$$CBKPAUCModelAllocData@@@std@@@google@@@google@@USetKey@67@U?$equal_to@K@2@V?$libc_allocator_with_realloc@U?$pair@$$CBKPAUCModelAllocData@@@std@@@7@@2@ABU?$pair@$$CBKPAUCModelAllocData@@@std@@I@Z 10014c00 f i PatchMW2CModels.obj
 0001:00013d00       ?insert_noresize@?$dense_hashtable@U?$pair@$$CBKPAUCModelAllocData@@@std@@KV?$hash_compare@KU?$less@K@std@@@stdext@@USelectKey@?$dense_hash_map@KPAUCModelAllocData@@V?$hash_compare@KU?$less@K@std@@@stdext@@U?$equal_to@K@std@@V?$libc_allocator_with_realloc@U?$pair@$$CBKPAUCModelAllocData@@@std@@@google@@@google@@USetKey@67@U?$equal_to@K@2@V?$libc_allocator_with_realloc@U?$pair@$$CBKPAUCModelAllocData@@@std@@@7@@google@@AAE?AU?$pair@U?$dense_hashtable_iterator@U?$pair@$$CBKPAUCModelAllocData@@@std@@KV?$hash_compare@KU?$less@K@std@@@stdext@@USelectKey@?$dense_hash_map@KPAUCModelAllocData@@V?$hash_compare@KU?$less@K@std@@@stdext@@U?$equal_to@K@std@@V?$libc_allocator_with_realloc@U?$pair@$$CBKPAUCModelAllocData@@@std@@@google@@@google@@USetKey@67@U?$equal_to@K@2@V?$libc_allocator_with_realloc@U?$pair@$$CBKPAUCModelAllocData@@@std@@@7@@google@@_N@std@@ABU?$pair@$$CBKPAUCModelAllocData@@@4@@Z 10014d00 f i PatchMW2CModels.obj
 0001:00013d00       ?insert_noresize@?$dense_hashtable@U?$pair@$$CBKPAX@std@@KV?$hash_compare@KU?$less@K@std@@@stdext@@USelectKey@?$dense_hash_map@KPAXV?$hash_compare@KU?$less@K@std@@@stdext@@U?$equal_to@K@std@@V?$libc_allocator_with_realloc@U?$pair@$$CBKPAX@std@@@google@@@google@@USetKey@67@U?$equal_to@K@2@V?$libc_allocator_with_realloc@U?$pair@$$CBKPAX@std@@@7@@google@@AAE?AU?$pair@U?$dense_hashtable_iterator@U?$pair@$$CBKPAX@std@@KV?$hash_compare@KU?$less@K@std@@@stdext@@USelectKey@?$dense_hash_map@KPAXV?$hash_compare@KU?$less@K@std@@@stdext@@U?$equal_to@K@std@@V?$libc_allocator_with_realloc@U?$pair@$$CBKPAX@std@@@google@@@google@@USetKey@67@U?$equal_to@K@2@V?$libc_allocator_with_realloc@U?$pair@$$CBKPAX@std@@@7@@google@@_N@std@@ABU?$pair@$$CBKPAX@4@@Z 10014d00 f i PatchMW2CModels.obj
 0001:00013da0       ??1?$dense_hashtable@U?$pair@$$CBKPAUCModelAllocData@@@std@@KV?$hash_compare@KU?$less@K@std@@@stdext@@USelectKey@?$dense_hash_map@KPAUCModelAllocData@@V?$hash_compare@KU?$less@K@std@@@stdext@@U?$equal_to@K@std@@V?$libc_allocator_with_realloc@U?$pair@$$CBKPAUCModelAllocData@@@std@@@google@@@google@@USetKey@67@U?$equal_to@K@2@V?$libc_allocator_with_realloc@U?$pair@$$CBKPAUCModelAllocData@@@std@@@7@@google@@QAE@XZ 10014da0 f i PatchMW2CModels.obj
 0001:00013da0       ??1?$dense_hashtable@U?$pair@$$CBKPAX@std@@KV?$hash_compare@KU?$less@K@std@@@stdext@@USelectKey@?$dense_hash_map@KPAXV?$hash_compare@KU?$less@K@std@@@stdext@@U?$equal_to@K@std@@V?$libc_allocator_with_realloc@U?$pair@$$CBKPAX@std@@@google@@@google@@USetKey@67@U?$equal_to@K@2@V?$libc_allocator_with_realloc@U?$pair@$$CBKPAX@std@@@7@@google@@QAE@XZ 10014da0 f i PatchMW2CModels.obj
 0001:00013e20       ??1ValInfo@?$dense_hashtable@U?$pair@$$CBKPAX@std@@KV?$hash_compare@KU?$less@K@std@@@stdext@@USelectKey@?$dense_hash_map@KPAXV?$hash_compare@KU?$less@K@std@@@stdext@@U?$equal_to@K@std@@V?$libc_allocator_with_realloc@U?$pair@$$CBKPAX@std@@@google@@@google@@USetKey@67@U?$equal_to@K@2@V?$libc_allocator_with_realloc@U?$pair@$$CBKPAX@std@@@7@@google@@QAE@XZ 10014e20 f i PatchMW2CModels.obj
 0001:00013e20       ??1?$_Deque_iterator@U?$pair@PAEPAE@std@@V?$allocator@U?$pair@PAEPAE@std@@@2@@std@@QAE@XZ 10014e20 f i PatchMW2StringTable.obj
 0001:00013e20       ??1?$_Deque_iterator@Udownload_s@@V?$allocator@Udownload_s@@@std@@@std@@QAE@XZ 10014e20 f i PatchMW2DownloadCL.obj
 0001:00013e20       ??1ValInfo@?$dense_hashtable@U?$pair@$$CBKPAUCModelAllocData@@@std@@KV?$hash_compare@KU?$less@K@std@@@stdext@@USelectKey@?$dense_hash_map@KPAUCModelAllocData@@V?$hash_compare@KU?$less@K@std@@@stdext@@U?$equal_to@K@std@@V?$libc_allocator_with_realloc@U?$pair@$$CBKPAUCModelAllocData@@@std@@@google@@@google@@USetKey@67@U?$equal_to@K@2@V?$libc_allocator_with_realloc@U?$pair@$$CBKPAUCModelAllocData@@@std@@@7@@google@@QAE@XZ 10014e20 f i PatchMW2CModels.obj
 0001:00013e40       ?deallocate@?$libc_allocator_with_realloc@U?$pair@$$CBV?$basic_string@DU?$char_traits@D@std@@V?$allocator@D@2@@std@@PAUMaterial@@@std@@@google@@QAEXPAU?$pair@$$CBV?$basic_string@DU?$char_traits@D@std@@V?$allocator@D@2@@std@@PAUMaterial@@@std@@I@Z 10014e40 f i PatchMW2Materialism.obj
 0001:00013e40       ?deallocate@?$libc_allocator_with_realloc@U?$pair@$$CBV?$basic_string@DU?$char_traits@D@std@@V?$allocator@D@2@@std@@V12@@std@@@google@@QAEXPAU?$pair@$$CBV?$basic_string@DU?$char_traits@D@std@@V?$allocator@D@2@@std@@V12@@std@@I@Z 10014e40 f i PatchMW2LocalizedStrings.obj
 0001:00013e40       ?deallocate@?$libc_allocator_with_realloc@U?$pair@$$CBV?$basic_string@DU?$char_traits@D@std@@V?$allocator@D@2@@std@@PAUXModel@@@std@@@google@@QAEXPAU?$pair@$$CBV?$basic_string@DU?$char_traits@D@std@@V?$allocator@D@2@@std@@PAUXModel@@@std@@I@Z 10014e40 f i PatchMW2WeaponCamos.obj
 0001:00013e40       ?deallocate@?$libc_allocator_with_realloc@U?$pair@$$CBV?$basic_string@DU?$char_traits@D@std@@V?$allocator@D@2@@std@@PAUstringTable_s@@@std@@@google@@QAEXPAU?$pair@$$CBV?$basic_string@DU?$char_traits@D@std@@V?$allocator@D@2@@std@@PAUstringTable_s@@@std@@I@Z 10014e40 f i PatchMW2StringTable.obj
 0001:00013e40       ?deallocate@?$libc_allocator_with_realloc@U?$pair@$$CBV?$basic_string@DU?$char_traits@D@std@@V?$allocator@D@2@@std@@G@std@@@google@@QAEXPAU?$pair@$$CBV?$basic_string@DU?$char_traits@D@std@@V?$allocator@D@2@@std@@G@std@@I@Z 10014e40 f i PatchMW2StringList.obj
 0001:00013e40       ?deallocate@?$libc_allocator_with_realloc@U?$pair@$$CBKPAUCModelAllocData@@@std@@@google@@QAEXPAU?$pair@$$CBKPAUCModelAllocData@@@std@@I@Z 10014e40 f i PatchMW2CModels.obj
 0001:00013e40       ?deallocate@?$libc_allocator_with_realloc@U?$pair@$$CBKPAX@std@@@google@@QAEXPAU?$pair@$$CBKPAX@std@@I@Z 10014e40 f i PatchMW2CModels.obj
 0001:00013e60       ??RDefaultValue@?$dense_hash_map@KPAUCModelAllocData@@V?$hash_compare@KU?$less@K@std@@@stdext@@U?$equal_to@K@std@@V?$libc_allocator_with_realloc@U?$pair@$$CBKPAUCModelAllocData@@@std@@@google@@@google@@QAE?AU?$pair@$$CBKPAUCModelAllocData@@@std@@ABK@Z 10014e60 f i PatchMW2CModels.obj
 0001:00013e60       ??RDefaultValue@?$dense_hash_map@KPAXV?$hash_compare@KU?$less@K@std@@@stdext@@U?$equal_to@K@std@@V?$libc_allocator_with_realloc@U?$pair@$$CBKPAX@std@@@google@@@google@@QAE?AU?$pair@$$CBKPAX@std@@ABK@Z 10014e60 f i PatchMW2CModels.obj
 0001:00013ea0       ?clear_deleted@?$dense_hashtable@U?$pair@$$CBKPAUCModelAllocData@@@std@@KV?$hash_compare@KU?$less@K@std@@@stdext@@USelectKey@?$dense_hash_map@KPAUCModelAllocData@@V?$hash_compare@KU?$less@K@std@@@stdext@@U?$equal_to@K@std@@V?$libc_allocator_with_realloc@U?$pair@$$CBKPAUCModelAllocData@@@std@@@google@@@google@@USetKey@67@U?$equal_to@K@2@V?$libc_allocator_with_realloc@U?$pair@$$CBKPAUCModelAllocData@@@std@@@7@@google@@AAE_NAAU?$dense_hashtable_const_iterator@U?$pair@$$CBKPAUCModelAllocData@@@std@@KV?$hash_compare@KU?$less@K@std@@@stdext@@USelectKey@?$dense_hash_map@KPAUCModelAllocData@@V?$hash_compare@KU?$less@K@std@@@stdext@@U?$equal_to@K@std@@V?$libc_allocator_with_realloc@U?$pair@$$CBKPAUCModelAllocData@@@std@@@google@@@google@@USetKey@67@U?$equal_to@K@2@V?$libc_allocator_with_realloc@U?$pair@$$CBKPAUCModelAllocData@@@std@@@7@@2@@Z 10014ea0 f i PatchMW2CModels.obj
 0001:00013ea0       ?clear_deleted@?$dense_hashtable@U?$pair@$$CBKPAX@std@@KV?$hash_compare@KU?$less@K@std@@@stdext@@USelectKey@?$dense_hash_map@KPAXV?$hash_compare@KU?$less@K@std@@@stdext@@U?$equal_to@K@std@@V?$libc_allocator_with_realloc@U?$pair@$$CBKPAX@std@@@google@@@google@@USetKey@67@U?$equal_to@K@2@V?$libc_allocator_with_realloc@U?$pair@$$CBKPAX@std@@@7@@google@@AAE_NAAU?$dense_hashtable_const_iterator@U?$pair@$$CBKPAX@std@@KV?$hash_compare@KU?$less@K@std@@@stdext@@USelectKey@?$dense_hash_map@KPAXV?$hash_compare@KU?$less@K@std@@@stdext@@U?$equal_to@K@std@@V?$libc_allocator_with_realloc@U?$pair@$$CBKPAX@std@@@google@@@google@@USetKey@67@U?$equal_to@K@2@V?$libc_allocator_with_realloc@U?$pair@$$CBKPAX@std@@@7@@2@@Z 10014ea0 f i PatchMW2CModels.obj
 0001:00013ec0       ?maybe_shrink@?$dense_hashtable@U?$pair@$$CBKPAUCModelAllocData@@@std@@KV?$hash_compare@KU?$less@K@std@@@stdext@@USelectKey@?$dense_hash_map@KPAUCModelAllocData@@V?$hash_compare@KU?$less@K@std@@@stdext@@U?$equal_to@K@std@@V?$libc_allocator_with_realloc@U?$pair@$$CBKPAUCModelAllocData@@@std@@@google@@@google@@USetKey@67@U?$equal_to@K@2@V?$libc_allocator_with_realloc@U?$pair@$$CBKPAUCModelAllocData@@@std@@@7@@google@@AAE_NXZ 10014ec0 f i PatchMW2CModels.obj
 0001:00013ec0       ?maybe_shrink@?$dense_hashtable@U?$pair@$$CBKPAX@std@@KV?$hash_compare@KU?$less@K@std@@@stdext@@USelectKey@?$dense_hash_map@KPAXV?$hash_compare@KU?$less@K@std@@@stdext@@U?$equal_to@K@std@@V?$libc_allocator_with_realloc@U?$pair@$$CBKPAX@std@@@google@@@google@@USetKey@67@U?$equal_to@K@2@V?$libc_allocator_with_realloc@U?$pair@$$CBKPAX@std@@@7@@google@@AAE_NXZ 10014ec0 f i PatchMW2CModels.obj
 0001:00013fd0       ??0?$dense_hashtable@U?$pair@$$CBKPAX@std@@KV?$hash_compare@KU?$less@K@std@@@stdext@@USelectKey@?$dense_hash_map@KPAXV?$hash_compare@KU?$less@K@std@@@stdext@@U?$equal_to@K@std@@V?$libc_allocator_with_realloc@U?$pair@$$CBKPAX@std@@@google@@@google@@USetKey@67@U?$equal_to@K@2@V?$libc_allocator_with_realloc@U?$pair@$$CBKPAX@std@@@7@@google@@QAE@ABV01@I@Z 10014fd0 f i PatchMW2CModels.obj
 0001:00013fd0       ??0?$dense_hashtable@U?$pair@$$CBKPAUCModelAllocData@@@std@@KV?$hash_compare@KU?$less@K@std@@@stdext@@USelectKey@?$dense_hash_map@KPAUCModelAllocData@@V?$hash_compare@KU?$less@K@std@@@stdext@@U?$equal_to@K@std@@V?$libc_allocator_with_realloc@U?$pair@$$CBKPAUCModelAllocData@@@std@@@google@@@google@@USetKey@67@U?$equal_to@K@2@V?$libc_allocator_with_realloc@U?$pair@$$CBKPAUCModelAllocData@@@std@@@7@@google@@QAE@ABV01@I@Z 10014fd0 f i PatchMW2CModels.obj
 0001:000140d0       ??0?$pair@$$CBKPAX@std@@QAE@XZ 100150d0 f i PatchMW2CModels.obj
 0001:000140d0       ??0?$pair@$$CBKPAUCModelAllocData@@@std@@QAE@XZ 100150d0 f i PatchMW2CModels.obj
 0001:000140f0       ??0_Container_proxy@std@@QAE@XZ 100150f0 f i PatchMW2DownloadCL.obj
 0001:000140f0       ??0_Iterator_base12@std@@QAE@XZ 100150f0 f i PatchMW2DownloadCL.obj
 0001:000140f0       ??0?$_Pair_base@$$CBKPAX@std@@QAE@XZ 100150f0 f i PatchMW2CModels.obj
 0001:000140f0       ??0?$_Pair_base@$$CBKPAUCModelAllocData@@@std@@QAE@XZ 100150f0 f i PatchMW2CModels.obj
 0001:00014120       ??1runtime_error@std@@UAE@XZ 10015120 f i Auth.obj
 0001:00014120       ??1logic_error@std@@UAE@XZ 10015120 f i PatchMW2CModels.obj
 0001:00014140       ?consider_shrink@?$sh_hashtable_settings@KV?$hash_compare@KU?$less@K@std@@@stdext@@I$03@@QBE_NXZ 10015140 f i PatchMW2CModels.obj
 0001:00014140       ?consider_shrink@?$sh_hashtable_settings@V?$basic_string@DU?$char_traits@D@std@@V?$allocator@D@2@@std@@V?$hash_compare@V?$basic_string@DU?$char_traits@D@std@@V?$allocator@D@2@@std@@U?$less@V?$basic_string@DU?$char_traits@D@std@@V?$allocator@D@2@@std@@@2@@stdext@@I$03@@QBE_NXZ 10015140 f i PatchMW2LocalizedStrings.obj
 0001:00014160       ?max_size@?$dense_hashtable@U?$pair@$$CBKPAX@std@@KV?$hash_compare@KU?$less@K@std@@@stdext@@USelectKey@?$dense_hash_map@KPAXV?$hash_compare@KU?$less@K@std@@@stdext@@U?$equal_to@K@std@@V?$libc_allocator_with_realloc@U?$pair@$$CBKPAX@std@@@google@@@google@@USetKey@67@U?$equal_to@K@2@V?$libc_allocator_with_realloc@U?$pair@$$CBKPAX@std@@@7@@google@@QBEIXZ 10015160 f i PatchMW2CModels.obj
 0001:00014160       ?max_size@?$dense_hashtable@U?$pair@$$CBKPAUCModelAllocData@@@std@@KV?$hash_compare@KU?$less@K@std@@@stdext@@USelectKey@?$dense_hash_map@KPAUCModelAllocData@@V?$hash_compare@KU?$less@K@std@@@stdext@@U?$equal_to@K@std@@V?$libc_allocator_with_realloc@U?$pair@$$CBKPAUCModelAllocData@@@std@@@google@@@google@@USetKey@67@U?$equal_to@K@2@V?$libc_allocator_with_realloc@U?$pair@$$CBKPAUCModelAllocData@@@std@@@7@@google@@QBEIXZ 10015160 f i PatchMW2CModels.obj
 0001:00014180       ??0length_error@std@@QAE@PBD@Z 10015180 f i PatchMW2CModels.obj
 0001:000141b0       ??0logic_error@std@@QAE@PBD@Z 100151b0 f i PatchMW2CModels.obj
 0001:000141e0       ??1length_error@std@@UAE@XZ 100151e0 f i PatchMW2CModels.obj
 0001:000141e0       ??1system_error@std@@UAE@XZ 100151e0 f i Auth.obj
 0001:00014200       ?swap@?$dense_hashtable@U?$pair@$$CBKPAX@std@@KV?$hash_compare@KU?$less@K@std@@@stdext@@USelectKey@?$dense_hash_map@KPAXV?$hash_compare@KU?$less@K@std@@@stdext@@U?$equal_to@K@std@@V?$libc_allocator_with_realloc@U?$pair@$$CBKPAX@std@@@google@@@google@@USetKey@67@U?$equal_to@K@2@V?$libc_allocator_with_realloc@U?$pair@$$CBKPAX@std@@@7@@google@@QAEXAAV12@@Z 10015200 f i PatchMW2CModels.obj
 0001:00014200       ?swap@?$dense_hashtable@U?$pair@$$CBKPAUCModelAllocData@@@std@@KV?$hash_compare@KU?$less@K@std@@@stdext@@USelectKey@?$dense_hash_map@KPAUCModelAllocData@@V?$hash_compare@KU?$less@K@std@@@stdext@@U?$equal_to@K@std@@V?$libc_allocator_with_realloc@U?$pair@$$CBKPAUCModelAllocData@@@std@@@google@@@google@@USetKey@67@U?$equal_to@K@2@V?$libc_allocator_with_realloc@U?$pair@$$CBKPAUCModelAllocData@@@std@@@7@@google@@QAEXAAV12@@Z 10015200 f i PatchMW2CModels.obj
 0001:00014300       ??0?$dense_hashtable_iterator@U?$pair@$$CBKPAUCModelAllocData@@@std@@KV?$hash_compare@KU?$less@K@std@@@stdext@@USelectKey@?$dense_hash_map@KPAUCModelAllocData@@V?$hash_compare@KU?$less@K@std@@@stdext@@U?$equal_to@K@std@@V?$libc_allocator_with_realloc@U?$pair@$$CBKPAUCModelAllocData@@@std@@@google@@@google@@USetKey@67@U?$equal_to@K@2@V?$libc_allocator_with_realloc@U?$pair@$$CBKPAUCModelAllocData@@@std@@@7@@google@@QAE@PBV?$dense_hashtable@U?$pair@$$CBKPAUCModelAllocData@@@std@@KV?$hash_compare@KU?$less@K@std@@@stdext@@USelectKey@?$dense_hash_map@KPAUCModelAllocData@@V?$hash_compare@KU?$less@K@std@@@stdext@@U?$equal_to@K@std@@V?$libc_allocator_with_realloc@U?$pair@$$CBKPAUCModelAllocData@@@std@@@google@@@google@@USetKey@67@U?$equal_to@K@2@V?$libc_allocator_with_realloc@U?$pair@$$CBKPAUCModelAllocData@@@std@@@7@@1@PAU?$pair@$$CBKPAUCModelAllocData@@@std@@1_N@Z 10015300 f i PatchMW2CModels.obj
 0001:00014300       ??0?$dense_hashtable_iterator@U?$pair@$$CBKPAX@std@@KV?$hash_compare@KU?$less@K@std@@@stdext@@USelectKey@?$dense_hash_map@KPAXV?$hash_compare@KU?$less@K@std@@@stdext@@U?$equal_to@K@std@@V?$libc_allocator_with_realloc@U?$pair@$$CBKPAX@std@@@google@@@google@@USetKey@67@U?$equal_to@K@2@V?$libc_allocator_with_realloc@U?$pair@$$CBKPAX@std@@@7@@google@@QAE@PBV?$dense_hashtable@U?$pair@$$CBKPAX@std@@KV?$hash_compare@KU?$less@K@std@@@stdext@@USelectKey@?$dense_hash_map@KPAXV?$hash_compare@KU?$less@K@std@@@stdext@@U?$equal_to@K@std@@V?$libc_allocator_with_realloc@U?$pair@$$CBKPAX@std@@@google@@@google@@USetKey@67@U?$equal_to@K@2@V?$libc_allocator_with_realloc@U?$pair@$$CBKPAX@std@@@7@@1@PAU?$pair@$$CBKPAX@std@@1_N@Z 10015300 f i PatchMW2CModels.obj
 0001:00014300       ??0?$dense_hashtable_const_iterator@U?$pair@$$CBKPAX@std@@KV?$hash_compare@KU?$less@K@std@@@stdext@@USelectKey@?$dense_hash_map@KPAXV?$hash_compare@KU?$less@K@std@@@stdext@@U?$equal_to@K@std@@V?$libc_allocator_with_realloc@U?$pair@$$CBKPAX@std@@@google@@@google@@USetKey@67@U?$equal_to@K@2@V?$libc_allocator_with_realloc@U?$pair@$$CBKPAX@std@@@7@@google@@QAE@PBV?$dense_hashtable@U?$pair@$$CBKPAX@std@@KV?$hash_compare@KU?$less@K@std@@@stdext@@USelectKey@?$dense_hash_map@KPAXV?$hash_compare@KU?$less@K@std@@@stdext@@U?$equal_to@K@std@@V?$libc_allocator_with_realloc@U?$pair@$$CBKPAX@std@@@google@@@google@@USetKey@67@U?$equal_to@K@2@V?$libc_allocator_with_realloc@U?$pair@$$CBKPAX@std@@@7@@1@PBU?$pair@$$CBKPAX@std@@1_N@Z 10015300 f i PatchMW2CModels.obj
 0001:00014300       ??0?$dense_hashtable_const_iterator@U?$pair@$$CBKPAUCModelAllocData@@@std@@KV?$hash_compare@KU?$less@K@std@@@stdext@@USelectKey@?$dense_hash_map@KPAUCModelAllocData@@V?$hash_compare@KU?$less@K@std@@@stdext@@U?$equal_to@K@std@@V?$libc_allocator_with_realloc@U?$pair@$$CBKPAUCModelAllocData@@@std@@@google@@@google@@USetKey@67@U?$equal_to@K@2@V?$libc_allocator_with_realloc@U?$pair@$$CBKPAUCModelAllocData@@@std@@@7@@google@@QAE@PBV?$dense_hashtable@U?$pair@$$CBKPAUCModelAllocData@@@std@@KV?$hash_compare@KU?$less@K@std@@@stdext@@USelectKey@?$dense_hash_map@KPAUCModelAllocData@@V?$hash_compare@KU?$less@K@std@@@stdext@@U?$equal_to@K@std@@V?$libc_allocator_with_realloc@U?$pair@$$CBKPAUCModelAllocData@@@std@@@google@@@google@@USetKey@67@U?$equal_to@K@2@V?$libc_allocator_with_realloc@U?$pair@$$CBKPAUCModelAllocData@@@std@@@7@@1@PBU?$pair@$$CBKPAUCModelAllocData@@@std@@1_N@Z 10015300 f i PatchMW2CModels.obj
 0001:00014340       ??0?$pair@U?$dense_hashtable_iterator@U?$pair@$$CBV?$basic_string@DU?$char_traits@D@std@@V?$allocator@D@2@@std@@PAUMaterial@@@std@@V?$basic_string@DU?$char_traits@D@std@@V?$allocator@D@2@@2@V?$hash_compare@V?$basic_string@DU?$char_traits@D@std@@V?$allocator@D@2@@std@@U?$less@V?$basic_string@DU?$char_traits@D@std@@V?$allocator@D@2@@std@@@2@@stdext@@USelectKey@?$dense_hash_map@V?$basic_string@DU?$char_traits@D@std@@V?$allocator@D@2@@std@@PAUMaterial@@V?$hash_compare@V?$basic_string@DU?$char_traits@D@std@@V?$allocator@D@2@@std@@U?$less@V?$basic_string@DU?$char_traits@D@std@@V?$allocator@D@2@@std@@@2@@stdext@@U?$equal_to@V?$basic_string@DU?$char_traits@D@std@@V?$allocator@D@2@@std@@@2@V?$libc_allocator_with_realloc@U?$pair@$$CBV?$basic_string@DU?$char_traits@D@std@@V?$allocator@D@2@@std@@PAUMaterial@@@std@@@google@@@google@@USetKey@78@U?$equal_to@V?$basic_string@DU?$char_traits@D@std@@V?$allocator@D@2@@std@@@2@V?$libc_allocator_with_realloc@U?$pair@$$CBV?$basic_string@DU?$char_traits@D@std@@V?$allocator@D@2@@std@@PAUMaterial@@@std@@@8@@google@@_N@std@@QAE@$$QAU?$dense_hashtable_iterator@U?$pair@$$CBV?$basic_string@DU?$char_traits@D@std@@V?$allocator@D@2@@std@@PAUMaterial@@@std@@V?$basic_string@DU?$char_traits@D@std@@V?$allocator@D@2@@2@V?$hash_compare@V?$basic_string@DU?$char_traits@D@std@@V?$allocator@D@2@@std@@U?$less@V?$basic_string@DU?$char_traits@D@std@@V?$allocator@D@2@@std@@@2@@stdext@@USelectKey@?$dense_hash_map@V?$basic_string@DU?$char_traits@D@std@@V?$allocator@D@2@@std@@PAUMaterial@@V?$hash_compare@V?$basic_string@DU?$char_traits@D@std@@V?$allocator@D@2@@std@@U?$less@V?$basic_string@DU?$char_traits@D@std@@V?$allocator@D@2@@std@@@2@@stdext@@U?$equal_to@V?$basic_string@DU?$char_traits@D@std@@V?$allocator@D@2@@std@@@2@V?$libc_allocator_with_realloc@U?$pair@$$CBV?$basic_string@DU?$char_traits@D@std@@V?$allocator@D@2@@std@@PAUMaterial@@@std@@@google@@@google@@USetKey@78@U?$equal_to@V?$basic_string@DU?$char_traits@D@std@@V?$allocator@D@2@@std@@@2@V?$libc_allocator_with_realloc@U?$pair@$$CBV?$basic_string@DU?$char_traits@D@std@@V?$allocator@D@2@@std@@PAUMaterial@@@std@@@8@@google@@$$QA_N@Z 10015340 f i PatchMW2Materialism.obj
 0001:00014340       ??0?$pair@U?$dense_hashtable_iterator@U?$pair@$$CBKPAX@std@@KV?$hash_compare@KU?$less@K@std@@@stdext@@USelectKey@?$dense_hash_map@KPAXV?$hash_compare@KU?$less@K@std@@@stdext@@U?$equal_to@K@std@@V?$libc_allocator_with_realloc@U?$pair@$$CBKPAX@std@@@google@@@google@@USetKey@67@U?$equal_to@K@2@V?$libc_allocator_with_realloc@U?$pair@$$CBKPAX@std@@@7@@google@@_N@std@@QAE@$$QAU?$dense_hashtable_iterator@U?$pair@$$CBKPAX@std@@KV?$hash_compare@KU?$less@K@std@@@stdext@@USelectKey@?$dense_hash_map@KPAXV?$hash_compare@KU?$less@K@std@@@stdext@@U?$equal_to@K@std@@V?$libc_allocator_with_realloc@U?$pair@$$CBKPAX@std@@@google@@@google@@USetKey@67@U?$equal_to@K@2@V?$libc_allocator_with_realloc@U?$pair@$$CBKPAX@std@@@7@@google@@$$QA_N@Z 10015340 f i PatchMW2CModels.obj
 0001:00014340       ??0?$pair@U?$dense_hashtable_iterator@U?$pair@$$CBV?$basic_string@DU?$char_traits@D@std@@V?$allocator@D@2@@std@@G@std@@V?$basic_string@DU?$char_traits@D@std@@V?$allocator@D@2@@2@V?$hash_compare@V?$basic_string@DU?$char_traits@D@std@@V?$allocator@D@2@@std@@U?$less@V?$basic_string@DU?$char_traits@D@std@@V?$allocator@D@2@@std@@@2@@stdext@@USelectKey@?$dense_hash_map@V?$basic_string@DU?$char_traits@D@std@@V?$allocator@D@2@@std@@GV?$hash_compare@V?$basic_string@DU?$char_traits@D@std@@V?$allocator@D@2@@std@@U?$less@V?$basic_string@DU?$char_traits@D@std@@V?$allocator@D@2@@std@@@2@@stdext@@U?$equal_to@V?$basic_string@DU?$char_traits@D@std@@V?$allocator@D@2@@std@@@2@V?$libc_allocator_with_realloc@U?$pair@$$CBV?$basic_string@DU?$char_traits@D@std@@V?$allocator@D@2@@std@@G@std@@@google@@@google@@USetKey@78@U?$equal_to@V?$basic_string@DU?$char_traits@D@std@@V?$allocator@D@2@@std@@@2@V?$libc_allocator_with_realloc@U?$pair@$$CBV?$basic_string@DU?$char_traits@D@std@@V?$allocator@D@2@@std@@G@std@@@8@@google@@_N@std@@QAE@$$QAU?$dense_hashtable_iterator@U?$pair@$$CBV?$basic_string@DU?$char_traits@D@std@@V?$allocator@D@2@@std@@G@std@@V?$basic_string@DU?$char_traits@D@std@@V?$allocator@D@2@@2@V?$hash_compare@V?$basic_string@DU?$char_traits@D@std@@V?$allocator@D@2@@std@@U?$less@V?$basic_string@DU?$char_traits@D@std@@V?$allocator@D@2@@std@@@2@@stdext@@USelectKey@?$dense_hash_map@V?$basic_string@DU?$char_traits@D@std@@V?$allocator@D@2@@std@@GV?$hash_compare@V?$basic_string@DU?$char_traits@D@std@@V?$allocator@D@2@@std@@U?$less@V?$basic_string@DU?$char_traits@D@std@@V?$allocator@D@2@@std@@@2@@stdext@@U?$equal_to@V?$basic_string@DU?$char_traits@D@std@@V?$allocator@D@2@@std@@@2@V?$libc_allocator_with_realloc@U?$pair@$$CBV?$basic_string@DU?$char_traits@D@std@@V?$allocator@D@2@@std@@G@std@@@google@@@google@@USetKey@78@U?$equal_to@V?$basic_string@DU?$char_traits@D@std@@V?$allocator@D@2@@std@@@2@V?$libc_allocator_with_realloc@U?$pair@$$CBV?$basic_string@DU?$char_traits@D@std@@V?$allocator@D@2@@std@@G@std@@@8@@google@@$$QA_N@Z 10015340 f i PatchMW2StringList.obj
 0001:00014340       ??0?$pair@U?$dense_hashtable_iterator@U?$pair@$$CBKPAUCModelAllocData@@@std@@KV?$hash_compare@KU?$less@K@std@@@stdext@@USelectKey@?$dense_hash_map@KPAUCModelAllocData@@V?$hash_compare@KU?$less@K@std@@@stdext@@U?$equal_to@K@std@@V?$libc_allocator_with_realloc@U?$pair@$$CBKPAUCModelAllocData@@@std@@@google@@@google@@USetKey@67@U?$equal_to@K@2@V?$libc_allocator_with_realloc@U?$pair@$$CBKPAUCModelAllocData@@@std@@@7@@google@@_N@std@@QAE@$$QAU?$dense_hashtable_iterator@U?$pair@$$CBKPAUCModelAllocData@@@std@@KV?$hash_compare@KU?$less@K@std@@@stdext@@USelectKey@?$dense_hash_map@KPAUCModelAllocData@@V?$hash_compare@KU?$less@K@std@@@stdext@@U?$equal_to@K@std@@V?$libc_allocator_with_realloc@U?$pair@$$CBKPAUCModelAllocData@@@std@@@google@@@google@@USetKey@67@U?$equal_to@K@2@V?$libc_allocator_with_realloc@U?$pair@$$CBKPAUCModelAllocData@@@std@@@7@@google@@$$QA_N@Z 10015340 f i PatchMW2CModels.obj
 0001:00014340       ??0?$pair@U?$dense_hashtable_iterator@U?$pair@$$CBV?$basic_string@DU?$char_traits@D@std@@V?$allocator@D@2@@std@@V12@@std@@V?$basic_string@DU?$char_traits@D@std@@V?$allocator@D@2@@2@V?$hash_compare@V?$basic_string@DU?$char_traits@D@std@@V?$allocator@D@2@@std@@U?$less@V?$basic_string@DU?$char_traits@D@std@@V?$allocator@D@2@@std@@@2@@stdext@@USelectKey@?$dense_hash_map@V?$basic_string@DU?$char_traits@D@std@@V?$allocator@D@2@@std@@V12@V?$hash_compare@V?$basic_string@DU?$char_traits@D@std@@V?$allocator@D@2@@std@@U?$less@V?$basic_string@DU?$char_traits@D@std@@V?$allocator@D@2@@std@@@2@@stdext@@U?$equal_to@V?$basic_string@DU?$char_traits@D@std@@V?$allocator@D@2@@std@@@2@V?$libc_allocator_with_realloc@U?$pair@$$CBV?$basic_string@DU?$char_traits@D@std@@V?$allocator@D@2@@std@@V12@@std@@@google@@@google@@USetKey@78@U?$equal_to@V?$basic_string@DU?$char_traits@D@std@@V?$allocator@D@2@@std@@@2@V?$libc_allocator_with_realloc@U?$pair@$$CBV?$basic_string@DU?$char_traits@D@std@@V?$allocator@D@2@@std@@V12@@std@@@8@@google@@_N@std@@QAE@$$QAU?$dense_hashtable_iterator@U?$pair@$$CBV?$basic_string@DU?$char_traits@D@std@@V?$allocator@D@2@@std@@V12@@std@@V?$basic_string@DU?$char_traits@D@std@@V?$allocator@D@2@@2@V?$hash_compare@V?$basic_string@DU?$char_traits@D@std@@V?$allocator@D@2@@std@@U?$less@V?$basic_string@DU?$char_traits@D@std@@V?$allocator@D@2@@std@@@2@@stdext@@USelectKey@?$dense_hash_map@V?$basic_string@DU?$char_traits@D@std@@V?$allocator@D@2@@std@@V12@V?$hash_compare@V?$basic_string@DU?$char_traits@D@std@@V?$allocator@D@2@@std@@U?$less@V?$basic_string@DU?$char_traits@D@std@@V?$allocator@D@2@@std@@@2@@stdext@@U?$equal_to@V?$basic_string@DU?$char_traits@D@std@@V?$allocator@D@2@@std@@@2@V?$libc_allocator_with_realloc@U?$pair@$$CBV?$basic_string@DU?$char_traits@D@std@@V?$allocator@D@2@@std@@V12@@std@@@google@@@google@@USetKey@78@U?$equal_to@V?$basic_string@DU?$char_traits@D@std@@V?$allocator@D@2@@std@@@2@V?$libc_allocator_with_realloc@U?$pair@$$CBV?$basic_string@DU?$char_traits@D@std@@V?$allocator@D@2@@std@@V12@@std@@@8@@google@@$$QA_N@Z 10015340 f i PatchMW2LocalizedStrings.obj
 0001:00014340       ??0?$pair@U?$dense_hashtable_iterator@U?$pair@$$CBV?$basic_string@DU?$char_traits@D@std@@V?$allocator@D@2@@std@@PAUXModel@@@std@@V?$basic_string@DU?$char_traits@D@std@@V?$allocator@D@2@@2@V?$hash_compare@V?$basic_string@DU?$char_traits@D@std@@V?$allocator@D@2@@std@@U?$less@V?$basic_string@DU?$char_traits@D@std@@V?$allocator@D@2@@std@@@2@@stdext@@USelectKey@?$dense_hash_map@V?$basic_string@DU?$char_traits@D@std@@V?$allocator@D@2@@std@@PAUXModel@@V?$hash_compare@V?$basic_string@DU?$char_traits@D@std@@V?$allocator@D@2@@std@@U?$less@V?$basic_string@DU?$char_traits@D@std@@V?$allocator@D@2@@std@@@2@@stdext@@U?$equal_to@V?$basic_string@DU?$char_traits@D@std@@V?$allocator@D@2@@std@@@2@V?$libc_allocator_with_realloc@U?$pair@$$CBV?$basic_string@DU?$char_traits@D@std@@V?$allocator@D@2@@std@@PAUXModel@@@std@@@google@@@google@@USetKey@78@U?$equal_to@V?$basic_string@DU?$char_traits@D@std@@V?$allocator@D@2@@std@@@2@V?$libc_allocator_with_realloc@U?$pair@$$CBV?$basic_string@DU?$char_traits@D@std@@V?$allocator@D@2@@std@@PAUXModel@@@std@@@8@@google@@_N@std@@QAE@$$QAU?$dense_hashtable_iterator@U?$pair@$$CBV?$basic_string@DU?$char_traits@D@std@@V?$allocator@D@2@@std@@PAUXModel@@@std@@V?$basic_string@DU?$char_traits@D@std@@V?$allocator@D@2@@2@V?$hash_compare@V?$basic_string@DU?$char_traits@D@std@@V?$allocator@D@2@@std@@U?$less@V?$basic_string@DU?$char_traits@D@std@@V?$allocator@D@2@@std@@@2@@stdext@@USelectKey@?$dense_hash_map@V?$basic_string@DU?$char_traits@D@std@@V?$allocator@D@2@@std@@PAUXModel@@V?$hash_compare@V?$basic_string@DU?$char_traits@D@std@@V?$allocator@D@2@@std@@U?$less@V?$basic_string@DU?$char_traits@D@std@@V?$allocator@D@2@@std@@@2@@stdext@@U?$equal_to@V?$basic_string@DU?$char_traits@D@std@@V?$allocator@D@2@@std@@@2@V?$libc_allocator_with_realloc@U?$pair@$$CBV?$basic_string@DU?$char_traits@D@std@@V?$allocator@D@2@@std@@PAUXModel@@@std@@@google@@@google@@USetKey@78@U?$equal_to@V?$basic_string@DU?$char_traits@D@std@@V?$allocator@D@2@@std@@@2@V?$libc_allocator_with_realloc@U?$pair@$$CBV?$basic_string@DU?$char_traits@D@std@@V?$allocator@D@2@@std@@PAUXModel@@@std@@@8@@google@@$$QA_N@Z 10015340 f i PatchMW2WeaponCamos.obj
 0001:00014340       ??0?$pair@U?$dense_hashtable_iterator@U?$pair@$$CBV?$basic_string@DU?$char_traits@D@std@@V?$allocator@D@2@@std@@PAUstringTable_s@@@std@@V?$basic_string@DU?$char_traits@D@std@@V?$allocator@D@2@@2@V?$hash_compare@V?$basic_string@DU?$char_traits@D@std@@V?$allocator@D@2@@std@@U?$less@V?$basic_string@DU?$char_traits@D@std@@V?$allocator@D@2@@std@@@2@@stdext@@USelectKey@?$dense_hash_map@V?$basic_string@DU?$char_traits@D@std@@V?$allocator@D@2@@std@@PAUstringTable_s@@V?$hash_compare@V?$basic_string@DU?$char_traits@D@std@@V?$allocator@D@2@@std@@U?$less@V?$basic_string@DU?$char_traits@D@std@@V?$allocator@D@2@@std@@@2@@stdext@@U?$equal_to@V?$basic_string@DU?$char_traits@D@std@@V?$allocator@D@2@@std@@@2@V?$libc_allocator_with_realloc@U?$pair@$$CBV?$basic_string@DU?$char_traits@D@std@@V?$allocator@D@2@@std@@PAUstringTable_s@@@std@@@google@@@google@@USetKey@78@U?$equal_to@V?$basic_string@DU?$char_traits@D@std@@V?$allocator@D@2@@std@@@2@V?$libc_allocator_with_realloc@U?$pair@$$CBV?$basic_string@DU?$char_traits@D@std@@V?$allocator@D@2@@std@@PAUstringTable_s@@@std@@@8@@google@@_N@std@@QAE@$$QAU?$dense_hashtable_iterator@U?$pair@$$CBV?$basic_string@DU?$char_traits@D@std@@V?$allocator@D@2@@std@@PAUstringTable_s@@@std@@V?$basic_string@DU?$char_traits@D@std@@V?$allocator@D@2@@2@V?$hash_compare@V?$basic_string@DU?$char_traits@D@std@@V?$allocator@D@2@@std@@U?$less@V?$basic_string@DU?$char_traits@D@std@@V?$allocator@D@2@@std@@@2@@stdext@@USelectKey@?$dense_hash_map@V?$basic_string@DU?$char_traits@D@std@@V?$allocator@D@2@@std@@PAUstringTable_s@@V?$hash_compare@V?$basic_string@DU?$char_traits@D@std@@V?$allocator@D@2@@std@@U?$less@V?$basic_string@DU?$char_traits@D@std@@V?$allocator@D@2@@std@@@2@@stdext@@U?$equal_to@V?$basic_string@DU?$char_traits@D@std@@V?$allocator@D@2@@std@@@2@V?$libc_allocator_with_realloc@U?$pair@$$CBV?$basic_string@DU?$char_traits@D@std@@V?$allocator@D@2@@std@@PAUstringTable_s@@@std@@@google@@@google@@USetKey@78@U?$equal_to@V?$basic_string@DU?$char_traits@D@std@@V?$allocator@D@2@@std@@@2@V?$libc_allocator_with_realloc@U?$pair@$$CBV?$basic_string@DU?$char_traits@D@std@@V?$allocator@D@2@@std@@PAUstringTable_s@@@std@@@8@@google@@$$QA_N@Z 10015340 f i PatchMW2StringTable.obj
 0001:00014380       ?copy_from@?$dense_hashtable@U?$pair@$$CBKPAX@std@@KV?$hash_compare@KU?$less@K@std@@@stdext@@USelectKey@?$dense_hash_map@KPAXV?$hash_compare@KU?$less@K@std@@@stdext@@U?$equal_to@K@std@@V?$libc_allocator_with_realloc@U?$pair@$$CBKPAX@std@@@google@@@google@@USetKey@67@U?$equal_to@K@2@V?$libc_allocator_with_realloc@U?$pair@$$CBKPAX@std@@@7@@google@@AAEXABV12@I@Z 10015380 f i PatchMW2CModels.obj
 0001:00014380       ?copy_from@?$dense_hashtable@U?$pair@$$CBKPAUCModelAllocData@@@std@@KV?$hash_compare@KU?$less@K@std@@@stdext@@USelectKey@?$dense_hash_map@KPAUCModelAllocData@@V?$hash_compare@KU?$less@K@std@@@stdext@@U?$equal_to@K@std@@V?$libc_allocator_with_realloc@U?$pair@$$CBKPAUCModelAllocData@@@std@@@google@@@google@@USetKey@67@U?$equal_to@K@2@V?$libc_allocator_with_realloc@U?$pair@$$CBKPAUCModelAllocData@@@std@@@7@@google@@AAEXABV12@I@Z 10015380 f i PatchMW2CModels.obj
 0001:00014480       ?max_size@?$libc_allocator_with_realloc@U?$pair@$$CBKPAX@std@@@google@@QBEIXZ 10015480 f i PatchMW2CModels.obj
 0001:00014480       ?max_size@?$libc_allocator_with_realloc@U?$pair@$$CBKPAUCModelAllocData@@@std@@@google@@QBEIXZ 10015480 f i PatchMW2CModels.obj
 0001:00014490       ?shrink_factor@?$sh_hashtable_settings@V?$basic_string@DU?$char_traits@D@std@@V?$allocator@D@2@@std@@V?$hash_compare@V?$basic_string@DU?$char_traits@D@std@@V?$allocator@D@2@@std@@U?$less@V?$basic_string@DU?$char_traits@D@std@@V?$allocator@D@2@@std@@@2@@stdext@@I$03@@QBEMXZ 10015490 f i PatchMW2LocalizedStrings.obj
 0001:00014490       ?shrink_factor@?$sh_hashtable_settings@KV?$hash_compare@KU?$less@K@std@@@stdext@@I$03@@QBEMXZ 10015490 f i PatchMW2CModels.obj
 0001:000144b0       ?use_empty@?$sh_hashtable_settings@V?$basic_string@DU?$char_traits@D@std@@V?$allocator@D@2@@std@@V?$hash_compare@V?$basic_string@DU?$char_traits@D@std@@V?$allocator@D@2@@std@@U?$less@V?$basic_string@DU?$char_traits@D@std@@V?$allocator@D@2@@std@@@2@@stdext@@I$03@@QBE_NXZ 100154b0 f i PatchMW2LocalizedStrings.obj
 0001:000144b0       ?use_empty@?$sh_hashtable_settings@KV?$hash_compare@KU?$less@K@std@@@stdext@@I$03@@QBE_NXZ 100154b0 f i PatchMW2CModels.obj
 0001:000144d0       ??0ValInfo@?$dense_hashtable@U?$pair@$$CBKPAUCModelAllocData@@@std@@KV?$hash_compare@KU?$less@K@std@@@stdext@@USelectKey@?$dense_hash_map@KPAUCModelAllocData@@V?$hash_compare@KU?$less@K@std@@@stdext@@U?$equal_to@K@std@@V?$libc_allocator_with_realloc@U?$pair@$$CBKPAUCModelAllocData@@@std@@@google@@@google@@USetKey@67@U?$equal_to@K@2@V?$libc_allocator_with_realloc@U?$pair@$$CBKPAUCModelAllocData@@@std@@@7@@google@@QAE@ABV012@@Z 100154d0 f i PatchMW2CModels.obj
 0001:000144d0       ??0ValInfo@?$dense_hashtable@U?$pair@$$CBKPAX@std@@KV?$hash_compare@KU?$less@K@std@@@stdext@@USelectKey@?$dense_hash_map@KPAXV?$hash_compare@KU?$less@K@std@@@stdext@@U?$equal_to@K@std@@V?$libc_allocator_with_realloc@U?$pair@$$CBKPAX@std@@@google@@@google@@USetKey@67@U?$equal_to@K@2@V?$libc_allocator_with_realloc@U?$pair@$$CBKPAX@std@@@7@@google@@QAE@ABV012@@Z 100154d0 f i PatchMW2CModels.obj
 0001:00014530       ?begin@?$dense_hashtable@U?$pair@$$CBKPAX@std@@KV?$hash_compare@KU?$less@K@std@@@stdext@@USelectKey@?$dense_hash_map@KPAXV?$hash_compare@KU?$less@K@std@@@stdext@@U?$equal_to@K@std@@V?$libc_allocator_with_realloc@U?$pair@$$CBKPAX@std@@@google@@@google@@USetKey@67@U?$equal_to@K@2@V?$libc_allocator_with_realloc@U?$pair@$$CBKPAX@std@@@7@@google@@QBE?AU?$dense_hashtable_const_iterator@U?$pair@$$CBKPAX@std@@KV?$hash_compare@KU?$less@K@std@@@stdext@@USelectKey@?$dense_hash_map@KPAXV?$hash_compare@KU?$less@K@std@@@stdext@@U?$equal_to@K@std@@V?$libc_allocator_with_realloc@U?$pair@$$CBKPAX@std@@@google@@@google@@USetKey@67@U?$equal_to@K@2@V?$libc_allocator_with_realloc@U?$pair@$$CBKPAX@std@@@7@@2@XZ 10015530 f i PatchMW2CModels.obj
 0001:00014530       ?begin@?$dense_hashtable@U?$pair@$$CBKPAUCModelAllocData@@@std@@KV?$hash_compare@KU?$less@K@std@@@stdext@@USelectKey@?$dense_hash_map@KPAUCModelAllocData@@V?$hash_compare@KU?$less@K@std@@@stdext@@U?$equal_to@K@std@@V?$libc_allocator_with_realloc@U?$pair@$$CBKPAUCModelAllocData@@@std@@@google@@@google@@USetKey@67@U?$equal_to@K@2@V?$libc_allocator_with_realloc@U?$pair@$$CBKPAUCModelAllocData@@@std@@@7@@google@@QBE?AU?$dense_hashtable_const_iterator@U?$pair@$$CBKPAUCModelAllocData@@@std@@KV?$hash_compare@KU?$less@K@std@@@stdext@@USelectKey@?$dense_hash_map@KPAUCModelAllocData@@V?$hash_compare@KU?$less@K@std@@@stdext@@U?$equal_to@K@std@@V?$libc_allocator_with_realloc@U?$pair@$$CBKPAUCModelAllocData@@@std@@@google@@@google@@USetKey@67@U?$equal_to@K@2@V?$libc_allocator_with_realloc@U?$pair@$$CBKPAUCModelAllocData@@@std@@@7@@2@XZ 10015530 f i PatchMW2CModels.obj
 0001:00014530       ?begin@?$dense_hashtable@U?$pair@$$CBKPAX@std@@KV?$hash_compare@KU?$less@K@std@@@stdext@@USelectKey@?$dense_hash_map@KPAXV?$hash_compare@KU?$less@K@std@@@stdext@@U?$equal_to@K@std@@V?$libc_allocator_with_realloc@U?$pair@$$CBKPAX@std@@@google@@@google@@USetKey@67@U?$equal_to@K@2@V?$libc_allocator_with_realloc@U?$pair@$$CBKPAX@std@@@7@@google@@QAE?AU?$dense_hashtable_iterator@U?$pair@$$CBKPAX@std@@KV?$hash_compare@KU?$less@K@std@@@stdext@@USelectKey@?$dense_hash_map@KPAXV?$hash_compare@KU?$less@K@std@@@stdext@@U?$equal_to@K@std@@V?$libc_allocator_with_realloc@U?$pair@$$CBKPAX@std@@@google@@@google@@USetKey@67@U?$equal_to@K@2@V?$libc_allocator_with_realloc@U?$pair@$$CBKPAX@std@@@7@@2@XZ 10015530 f i PatchMW2CModels.obj
 0001:00014570       ?end@?$dense_hashtable@U?$pair@$$CBKPAUCModelAllocData@@@std@@KV?$hash_compare@KU?$less@K@std@@@stdext@@USelectKey@?$dense_hash_map@KPAUCModelAllocData@@V?$hash_compare@KU?$less@K@std@@@stdext@@U?$equal_to@K@std@@V?$libc_allocator_with_realloc@U?$pair@$$CBKPAUCModelAllocData@@@std@@@google@@@google@@USetKey@67@U?$equal_to@K@2@V?$libc_allocator_with_realloc@U?$pair@$$CBKPAUCModelAllocData@@@std@@@7@@google@@QBE?AU?$dense_hashtable_const_iterator@U?$pair@$$CBKPAUCModelAllocData@@@std@@KV?$hash_compare@KU?$less@K@std@@@stdext@@USelectKey@?$dense_hash_map@KPAUCModelAllocData@@V?$hash_compare@KU?$less@K@std@@@stdext@@U?$equal_to@K@std@@V?$libc_allocator_with_realloc@U?$pair@$$CBKPAUCModelAllocData@@@std@@@google@@@google@@USetKey@67@U?$equal_to@K@2@V?$libc_allocator_with_realloc@U?$pair@$$CBKPAUCModelAllocData@@@std@@@7@@2@XZ 10015570 f i PatchMW2CModels.obj
 0001:00014570       ?end@?$dense_hashtable@U?$pair@$$CBKPAUCModelAllocData@@@std@@KV?$hash_compare@KU?$less@K@std@@@stdext@@USelectKey@?$dense_hash_map@KPAUCModelAllocData@@V?$hash_compare@KU?$less@K@std@@@stdext@@U?$equal_to@K@std@@V?$libc_allocator_with_realloc@U?$pair@$$CBKPAUCModelAllocData@@@std@@@google@@@google@@USetKey@67@U?$equal_to@K@2@V?$libc_allocator_with_realloc@U?$pair@$$CBKPAUCModelAllocData@@@std@@@7@@google@@QAE?AU?$dense_hashtable_iterator@U?$pair@$$CBKPAUCModelAllocData@@@std@@KV?$hash_compare@KU?$less@K@std@@@stdext@@USelectKey@?$dense_hash_map@KPAUCModelAllocData@@V?$hash_compare@KU?$less@K@std@@@stdext@@U?$equal_to@K@std@@V?$libc_allocator_with_realloc@U?$pair@$$CBKPAUCModelAllocData@@@std@@@google@@@google@@USetKey@67@U?$equal_to@K@2@V?$libc_allocator_with_realloc@U?$pair@$$CBKPAUCModelAllocData@@@std@@@7@@2@XZ 10015570 f i PatchMW2CModels.obj
 0001:00014570       ?end@?$dense_hashtable@U?$pair@$$CBKPAX@std@@KV?$hash_compare@KU?$less@K@std@@@stdext@@USelectKey@?$dense_hash_map@KPAXV?$hash_compare@KU?$less@K@std@@@stdext@@U?$equal_to@K@std@@V?$libc_allocator_with_realloc@U?$pair@$$CBKPAX@std@@@google@@@google@@USetKey@67@U?$equal_to@K@2@V?$libc_allocator_with_realloc@U?$pair@$$CBKPAX@std@@@7@@google@@QAE?AU?$dense_hashtable_iterator@U?$pair@$$CBKPAX@std@@KV?$hash_compare@KU?$less@K@std@@@stdext@@USelectKey@?$dense_hash_map@KPAXV?$hash_compare@KU?$less@K@std@@@stdext@@U?$equal_to@K@std@@V?$libc_allocator_with_realloc@U?$pair@$$CBKPAX@std@@@google@@@google@@USetKey@67@U?$equal_to@K@2@V?$libc_allocator_with_realloc@U?$pair@$$CBKPAX@std@@@7@@2@XZ 10015570 f i PatchMW2CModels.obj
 0001:00014570       ?end@?$dense_hashtable@U?$pair@$$CBKPAX@std@@KV?$hash_compare@KU?$less@K@std@@@stdext@@USelectKey@?$dense_hash_map@KPAXV?$hash_compare@KU?$less@K@std@@@stdext@@U?$equal_to@K@std@@V?$libc_allocator_with_realloc@U?$pair@$$CBKPAX@std@@@google@@@google@@USetKey@67@U?$equal_to@K@2@V?$libc_allocator_with_realloc@U?$pair@$$CBKPAX@std@@@7@@google@@QBE?AU?$dense_hashtable_const_iterator@U?$pair@$$CBKPAX@std@@KV?$hash_compare@KU?$less@K@std@@@stdext@@USelectKey@?$dense_hash_map@KPAXV?$hash_compare@KU?$less@K@std@@@stdext@@U?$equal_to@K@std@@V?$libc_allocator_with_realloc@U?$pair@$$CBKPAX@std@@@google@@@google@@USetKey@67@U?$equal_to@K@2@V?$libc_allocator_with_realloc@U?$pair@$$CBKPAX@std@@@7@@2@XZ 10015570 f i PatchMW2CModels.obj
 0001:000145b0       ?inc_num_ht_copies@?$sh_hashtable_settings@KV?$hash_compare@KU?$less@K@std@@@stdext@@I$03@@QAEXXZ 100155b0 f i PatchMW2CModels.obj
 0001:000145b0       ?inc_num_ht_copies@?$sh_hashtable_settings@V?$basic_string@DU?$char_traits@D@std@@V?$allocator@D@2@@std@@V?$hash_compare@V?$basic_string@DU?$char_traits@D@std@@V?$allocator@D@2@@std@@U?$less@V?$basic_string@DU?$char_traits@D@std@@V?$allocator@D@2@@std@@@2@@stdext@@I$03@@QAEXXZ 100155b0 f i PatchMW2LocalizedStrings.obj
 0001:000145d0       ??$_Uninit_fill@PAU?$pair@$$CBKPAUCModelAllocData@@@std@@U12@@std@@YAXPAU?$pair@$$CBKPAUCModelAllocData@@@0@0ABU10@U_Nonscalar_ptr_iterator_tag@0@@Z 100155d0 f i PatchMW2CModels.obj
 0001:000145d0       ??$_Uninit_fill@PAU?$pair@$$CBKPAX@std@@U12@@std@@YAXPAU?$pair@$$CBKPAX@0@0ABU10@U_Nonscalar_ptr_iterator_tag@0@@Z 100155d0 f i PatchMW2CModels.obj
 0001:00014680       ??$make_pair@KPAX@std@@YA?AU?$pair@KPAX@0@ABK$$QAPAX@Z 10015680 f i PatchMW2CModels.obj
 0001:00014680       ??$make_pair@KPAUCModelAllocData@@@std@@YA?AU?$pair@KPAUCModelAllocData@@@0@ABK$$QAPAUCModelAllocData@@@Z 10015680 f i PatchMW2CModels.obj
 0001:000146b0       ??$swap@USettings@?$dense_hashtable@U?$pair@$$CBV?$basic_string@DU?$char_traits@D@std@@V?$allocator@D@2@@std@@PAUMaterial@@@std@@V?$basic_string@DU?$char_traits@D@std@@V?$allocator@D@2@@2@V?$hash_compare@V?$basic_string@DU?$char_traits@D@std@@V?$allocator@D@2@@std@@U?$less@V?$basic_string@DU?$char_traits@D@std@@V?$allocator@D@2@@std@@@2@@stdext@@USelectKey@?$dense_hash_map@V?$basic_string@DU?$char_traits@D@std@@V?$allocator@D@2@@std@@PAUMaterial@@V?$hash_compare@V?$basic_string@DU?$char_traits@D@std@@V?$allocator@D@2@@std@@U?$less@V?$basic_string@DU?$char_traits@D@std@@V?$allocator@D@2@@std@@@2@@stdext@@U?$equal_to@V?$basic_string@DU?$char_traits@D@std@@V?$allocator@D@2@@std@@@2@V?$libc_allocator_with_realloc@U?$pair@$$CBV?$basic_string@DU?$char_traits@D@std@@V?$allocator@D@2@@std@@PAUMaterial@@@std@@@google@@@google@@USetKey@78@U?$equal_to@V?$basic_string@DU?$char_traits@D@std@@V?$allocator@D@2@@std@@@2@V?$libc_allocator_with_realloc@U?$pair@$$CBV?$basic_string@DU?$char_traits@D@std@@V?$allocator@D@2@@std@@PAUMaterial@@@std@@@8@@google@@@std@@YAXAAUSettings@?$dense_hashtable@U?$pair@$$CBV?$basic_string@DU?$char_traits@D@std@@V?$allocator@D@2@@std@@PAUMaterial@@@std@@V?$basic_string@DU?$char_traits@D@std@@V?$allocator@D@2@@2@V?$hash_compare@V?$basic_string@DU?$char_traits@D@std@@V?$allocator@D@2@@std@@U?$less@V?$basic_string@DU?$char_traits@D@std@@V?$allocator@D@2@@std@@@2@@stdext@@USelectKey@?$dense_hash_map@V?$basic_string@DU?$char_traits@D@std@@V?$allocator@D@2@@std@@PAUMaterial@@V?$hash_compare@V?$basic_string@DU?$char_traits@D@std@@V?$allocator@D@2@@std@@U?$less@V?$basic_string@DU?$char_traits@D@std@@V?$allocator@D@2@@std@@@2@@stdext@@U?$equal_to@V?$basic_string@DU?$char_traits@D@std@@V?$allocator@D@2@@std@@@2@V?$libc_allocator_with_realloc@U?$pair@$$CBV?$basic_string@DU?$char_traits@D@std@@V?$allocator@D@2@@std@@PAUMaterial@@@std@@@google@@@google@@USetKey@78@U?$equal_to@V?$basic_string@DU?$char_traits@D@std@@V?$allocator@D@2@@std@@@2@V?$libc_allocator_with_realloc@U?$pair@$$CBV?$basic_string@DU?$char_traits@D@std@@V?$allocator@D@2@@std@@PAUMaterial@@@std@@@8@@google@@0@Z 100156b0 f i PatchMW2Materialism.obj
 0001:000146b0       ??$swap@USettings@?$dense_hashtable@U?$pair@$$CBV?$basic_string@DU?$char_traits@D@std@@V?$allocator@D@2@@std@@G@std@@V?$basic_string@DU?$char_traits@D@std@@V?$allocator@D@2@@2@V?$hash_compare@V?$basic_string@DU?$char_traits@D@std@@V?$allocator@D@2@@std@@U?$less@V?$basic_string@DU?$char_traits@D@std@@V?$allocator@D@2@@std@@@2@@stdext@@USelectKey@?$dense_hash_map@V?$basic_string@DU?$char_traits@D@std@@V?$allocator@D@2@@std@@GV?$hash_compare@V?$basic_string@DU?$char_traits@D@std@@V?$allocator@D@2@@std@@U?$less@V?$basic_string@DU?$char_traits@D@std@@V?$allocator@D@2@@std@@@2@@stdext@@U?$equal_to@V?$basic_string@DU?$char_traits@D@std@@V?$allocator@D@2@@std@@@2@V?$libc_allocator_with_realloc@U?$pair@$$CBV?$basic_string@DU?$char_traits@D@std@@V?$allocator@D@2@@std@@G@std@@@google@@@google@@USetKey@78@U?$equal_to@V?$basic_string@DU?$char_traits@D@std@@V?$allocator@D@2@@std@@@2@V?$libc_allocator_with_realloc@U?$pair@$$CBV?$basic_string@DU?$char_traits@D@std@@V?$allocator@D@2@@std@@G@std@@@8@@google@@@std@@YAXAAUSettings@?$dense_hashtable@U?$pair@$$CBV?$basic_string@DU?$char_traits@D@std@@V?$allocator@D@2@@std@@G@std@@V?$basic_string@DU?$char_traits@D@std@@V?$allocator@D@2@@2@V?$hash_compare@V?$basic_string@DU?$char_traits@D@std@@V?$allocator@D@2@@std@@U?$less@V?$basic_string@DU?$char_traits@D@std@@V?$allocator@D@2@@std@@@2@@stdext@@USelectKey@?$dense_hash_map@V?$basic_string@DU?$char_traits@D@std@@V?$allocator@D@2@@std@@GV?$hash_compare@V?$basic_string@DU?$char_traits@D@std@@V?$allocator@D@2@@std@@U?$less@V?$basic_string@DU?$char_traits@D@std@@V?$allocator@D@2@@std@@@2@@stdext@@U?$equal_to@V?$basic_string@DU?$char_traits@D@std@@V?$allocator@D@2@@std@@@2@V?$libc_allocator_with_realloc@U?$pair@$$CBV?$basic_string@DU?$char_traits@D@std@@V?$allocator@D@2@@std@@G@std@@@google@@@google@@USetKey@78@U?$equal_to@V?$basic_string@DU?$char_traits@D@std@@V?$allocator@D@2@@std@@@2@V?$libc_allocator_with_realloc@U?$pair@$$CBV?$basic_string@DU?$char_traits@D@std@@V?$allocator@D@2@@std@@G@std@@@8@@google@@0@Z 100156b0 f i PatchMW2StringList.obj
 0001:000146b0       ??$swap@USettings@?$dense_hashtable@U?$pair@$$CBKPAX@std@@KV?$hash_compare@KU?$less@K@std@@@stdext@@USelectKey@?$dense_hash_map@KPAXV?$hash_compare@KU?$less@K@std@@@stdext@@U?$equal_to@K@std@@V?$libc_allocator_with_realloc@U?$pair@$$CBKPAX@std@@@google@@@google@@USetKey@67@U?$equal_to@K@2@V?$libc_allocator_with_realloc@U?$pair@$$CBKPAX@std@@@7@@google@@@std@@YAXAAUSettings@?$dense_hashtable@U?$pair@$$CBKPAX@std@@KV?$hash_compare@KU?$less@K@std@@@stdext@@USelectKey@?$dense_hash_map@KPAXV?$hash_compare@KU?$less@K@std@@@stdext@@U?$equal_to@K@std@@V?$libc_allocator_with_realloc@U?$pair@$$CBKPAX@std@@@google@@@google@@USetKey@67@U?$equal_to@K@2@V?$libc_allocator_with_realloc@U?$pair@$$CBKPAX@std@@@7@@google@@0@Z 100156b0 f i PatchMW2CModels.obj
 0001:000146b0       ??$swap@USettings@?$dense_hashtable@U?$pair@$$CBV?$basic_string@DU?$char_traits@D@std@@V?$allocator@D@2@@std@@V12@@std@@V?$basic_string@DU?$char_traits@D@std@@V?$allocator@D@2@@2@V?$hash_compare@V?$basic_string@DU?$char_traits@D@std@@V?$allocator@D@2@@std@@U?$less@V?$basic_string@DU?$char_traits@D@std@@V?$allocator@D@2@@std@@@2@@stdext@@USelectKey@?$dense_hash_map@V?$basic_string@DU?$char_traits@D@std@@V?$allocator@D@2@@std@@V12@V?$hash_compare@V?$basic_string@DU?$char_traits@D@std@@V?$allocator@D@2@@std@@U?$less@V?$basic_string@DU?$char_traits@D@std@@V?$allocator@D@2@@std@@@2@@stdext@@U?$equal_to@V?$basic_string@DU?$char_traits@D@std@@V?$allocator@D@2@@std@@@2@V?$libc_allocator_with_realloc@U?$pair@$$CBV?$basic_string@DU?$char_traits@D@std@@V?$allocator@D@2@@std@@V12@@std@@@google@@@google@@USetKey@78@U?$equal_to@V?$basic_string@DU?$char_traits@D@std@@V?$allocator@D@2@@std@@@2@V?$libc_allocator_with_realloc@U?$pair@$$CBV?$basic_string@DU?$char_traits@D@std@@V?$allocator@D@2@@std@@V12@@std@@@8@@google@@@std@@YAXAAUSettings@?$dense_hashtable@U?$pair@$$CBV?$basic_string@DU?$char_traits@D@std@@V?$allocator@D@2@@std@@V12@@std@@V?$basic_string@DU?$char_traits@D@std@@V?$allocator@D@2@@2@V?$hash_compare@V?$basic_string@DU?$char_traits@D@std@@V?$allocator@D@2@@std@@U?$less@V?$basic_string@DU?$char_traits@D@std@@V?$allocator@D@2@@std@@@2@@stdext@@USelectKey@?$dense_hash_map@V?$basic_string@DU?$char_traits@D@std@@V?$allocator@D@2@@std@@V12@V?$hash_compare@V?$basic_string@DU?$char_traits@D@std@@V?$allocator@D@2@@std@@U?$less@V?$basic_string@DU?$char_traits@D@std@@V?$allocator@D@2@@std@@@2@@stdext@@U?$equal_to@V?$basic_string@DU?$char_traits@D@std@@V?$allocator@D@2@@std@@@2@V?$libc_allocator_with_realloc@U?$pair@$$CBV?$basic_string@DU?$char_traits@D@std@@V?$allocator@D@2@@std@@V12@@std@@@google@@@google@@USetKey@78@U?$equal_to@V?$basic_string@DU?$char_traits@D@std@@V?$allocator@D@2@@std@@@2@V?$libc_allocator_with_realloc@U?$pair@$$CBV?$basic_string@DU?$char_traits@D@std@@V?$allocator@D@2@@std@@V12@@std@@@8@@google@@0@Z 100156b0 f i PatchMW2LocalizedStrings.obj
 0001:000146b0       ??$swap@USettings@?$dense_hashtable@U?$pair@$$CBV?$basic_string@DU?$char_traits@D@std@@V?$allocator@D@2@@std@@PAUstringTable_s@@@std@@V?$basic_string@DU?$char_traits@D@std@@V?$allocator@D@2@@2@V?$hash_compare@V?$basic_string@DU?$char_traits@D@std@@V?$allocator@D@2@@std@@U?$less@V?$basic_string@DU?$char_traits@D@std@@V?$allocator@D@2@@std@@@2@@stdext@@USelectKey@?$dense_hash_map@V?$basic_string@DU?$char_traits@D@std@@V?$allocator@D@2@@std@@PAUstringTable_s@@V?$hash_compare@V?$basic_string@DU?$char_traits@D@std@@V?$allocator@D@2@@std@@U?$less@V?$basic_string@DU?$char_traits@D@std@@V?$allocator@D@2@@std@@@2@@stdext@@U?$equal_to@V?$basic_string@DU?$char_traits@D@std@@V?$allocator@D@2@@std@@@2@V?$libc_allocator_with_realloc@U?$pair@$$CBV?$basic_string@DU?$char_traits@D@std@@V?$allocator@D@2@@std@@PAUstringTable_s@@@std@@@google@@@google@@USetKey@78@U?$equal_to@V?$basic_string@DU?$char_traits@D@std@@V?$allocator@D@2@@std@@@2@V?$libc_allocator_with_realloc@U?$pair@$$CBV?$basic_string@DU?$char_traits@D@std@@V?$allocator@D@2@@std@@PAUstringTable_s@@@std@@@8@@google@@@std@@YAXAAUSettings@?$dense_hashtable@U?$pair@$$CBV?$basic_string@DU?$char_traits@D@std@@V?$allocator@D@2@@std@@PAUstringTable_s@@@std@@V?$basic_string@DU?$char_traits@D@std@@V?$allocator@D@2@@2@V?$hash_compare@V?$basic_string@DU?$char_traits@D@std@@V?$allocator@D@2@@std@@U?$less@V?$basic_string@DU?$char_traits@D@std@@V?$allocator@D@2@@std@@@2@@stdext@@USelectKey@?$dense_hash_map@V?$basic_string@DU?$char_traits@D@std@@V?$allocator@D@2@@std@@PAUstringTable_s@@V?$hash_compare@V?$basic_string@DU?$char_traits@D@std@@V?$allocator@D@2@@std@@U?$less@V?$basic_string@DU?$char_traits@D@std@@V?$allocator@D@2@@std@@@2@@stdext@@U?$equal_to@V?$basic_string@DU?$char_traits@D@std@@V?$allocator@D@2@@std@@@2@V?$libc_allocator_with_realloc@U?$pair@$$CBV?$basic_string@DU?$char_traits@D@std@@V?$allocator@D@2@@std@@PAUstringTable_s@@@std@@@google@@@google@@USetKey@78@U?$equal_to@V?$basic_string@DU?$char_traits@D@std@@V?$allocator@D@2@@std@@@2@V?$libc_allocator_with_realloc@U?$pair@$$CBV?$basic_string@DU?$char_traits@D@std@@V?$allocator@D@2@@std@@PAUstringTable_s@@@std@@@8@@google@@0@Z 100156b0 f i PatchMW2StringTable.obj
 0001:000146b0       ??$swap@USettings@?$dense_hashtable@U?$pair@$$CBV?$basic_string@DU?$char_traits@D@std@@V?$allocator@D@2@@std@@PAUXModel@@@std@@V?$basic_string@DU?$char_traits@D@std@@V?$allocator@D@2@@2@V?$hash_compare@V?$basic_string@DU?$char_traits@D@std@@V?$allocator@D@2@@std@@U?$less@V?$basic_string@DU?$char_traits@D@std@@V?$allocator@D@2@@std@@@2@@stdext@@USelectKey@?$dense_hash_map@V?$basic_string@DU?$char_traits@D@std@@V?$allocator@D@2@@std@@PAUXModel@@V?$hash_compare@V?$basic_string@DU?$char_traits@D@std@@V?$allocator@D@2@@std@@U?$less@V?$basic_string@DU?$char_traits@D@std@@V?$allocator@D@2@@std@@@2@@stdext@@U?$equal_to@V?$basic_string@DU?$char_traits@D@std@@V?$allocator@D@2@@std@@@2@V?$libc_allocator_with_realloc@U?$pair@$$CBV?$basic_string@DU?$char_traits@D@std@@V?$allocator@D@2@@std@@PAUXModel@@@std@@@google@@@google@@USetKey@78@U?$equal_to@V?$basic_string@DU?$char_traits@D@std@@V?$allocator@D@2@@std@@@2@V?$libc_allocator_with_realloc@U?$pair@$$CBV?$basic_string@DU?$char_traits@D@std@@V?$allocator@D@2@@std@@PAUXModel@@@std@@@8@@google@@@std@@YAXAAUSettings@?$dense_hashtable@U?$pair@$$CBV?$basic_string@DU?$char_traits@D@std@@V?$allocator@D@2@@std@@PAUXModel@@@std@@V?$basic_string@DU?$char_traits@D@std@@V?$allocator@D@2@@2@V?$hash_compare@V?$basic_string@DU?$char_traits@D@std@@V?$allocator@D@2@@std@@U?$less@V?$basic_string@DU?$char_traits@D@std@@V?$allocator@D@2@@std@@@2@@stdext@@USelectKey@?$dense_hash_map@V?$basic_string@DU?$char_traits@D@std@@V?$allocator@D@2@@std@@PAUXModel@@V?$hash_compare@V?$basic_string@DU?$char_traits@D@std@@V?$allocator@D@2@@std@@U?$less@V?$basic_string@DU?$char_traits@D@std@@V?$allocator@D@2@@std@@@2@@stdext@@U?$equal_to@V?$basic_string@DU?$char_traits@D@std@@V?$allocator@D@2@@std@@@2@V?$libc_allocator_with_realloc@U?$pair@$$CBV?$basic_string@DU?$char_traits@D@std@@V?$allocator@D@2@@std@@PAUXModel@@@std@@@google@@@google@@USetKey@78@U?$equal_to@V?$basic_string@DU?$char_traits@D@std@@V?$allocator@D@2@@std@@@2@V?$libc_allocator_with_realloc@U?$pair@$$CBV?$basic_string@DU?$char_traits@D@std@@V?$allocator@D@2@@std@@PAUXModel@@@std@@@8@@google@@0@Z 100156b0 f i PatchMW2WeaponCamos.obj
 0001:000146b0       ??$swap@USettings@?$dense_hashtable@U?$pair@$$CBKPAUCModelAllocData@@@std@@KV?$hash_compare@KU?$less@K@std@@@stdext@@USelectKey@?$dense_hash_map@KPAUCModelAllocData@@V?$hash_compare@KU?$less@K@std@@@stdext@@U?$equal_to@K@std@@V?$libc_allocator_with_realloc@U?$pair@$$CBKPAUCModelAllocData@@@std@@@google@@@google@@USetKey@67@U?$equal_to@K@2@V?$libc_allocator_with_realloc@U?$pair@$$CBKPAUCModelAllocData@@@std@@@7@@google@@@std@@YAXAAUSettings@?$dense_hashtable@U?$pair@$$CBKPAUCModelAllocData@@@std@@KV?$hash_compare@KU?$less@K@std@@@stdext@@USelectKey@?$dense_hash_map@KPAUCModelAllocData@@V?$hash_compare@KU?$less@K@std@@@stdext@@U?$equal_to@K@std@@V?$libc_allocator_with_realloc@U?$pair@$$CBKPAUCModelAllocData@@@std@@@google@@@google@@USetKey@67@U?$equal_to@K@2@V?$libc_allocator_with_realloc@U?$pair@$$CBKPAUCModelAllocData@@@std@@@7@@google@@0@Z 100156b0 f i PatchMW2CModels.obj
 0001:00014710       ??$swap@VKeyInfo@?$dense_hashtable@U?$pair@$$CBKPAUCModelAllocData@@@std@@KV?$hash_compare@KU?$less@K@std@@@stdext@@USelectKey@?$dense_hash_map@KPAUCModelAllocData@@V?$hash_compare@KU?$less@K@std@@@stdext@@U?$equal_to@K@std@@V?$libc_allocator_with_realloc@U?$pair@$$CBKPAUCModelAllocData@@@std@@@google@@@google@@USetKey@67@U?$equal_to@K@2@V?$libc_allocator_with_realloc@U?$pair@$$CBKPAUCModelAllocData@@@std@@@7@@google@@@std@@YAXAAVKeyInfo@?$dense_hashtable@U?$pair@$$CBKPAUCModelAllocData@@@std@@KV?$hash_compare@KU?$less@K@std@@@stdext@@USelectKey@?$dense_hash_map@KPAUCModelAllocData@@V?$hash_compare@KU?$less@K@std@@@stdext@@U?$equal_to@K@std@@V?$libc_allocator_with_realloc@U?$pair@$$CBKPAUCModelAllocData@@@std@@@google@@@google@@USetKey@67@U?$equal_to@K@2@V?$libc_allocator_with_realloc@U?$pair@$$CBKPAUCModelAllocData@@@std@@@7@@google@@0@Z 10015710 f i PatchMW2CModels.obj
 0001:00014710       ??$swap@VKeyInfo@?$dense_hashtable@U?$pair@$$CBKPAX@std@@KV?$hash_compare@KU?$less@K@std@@@stdext@@USelectKey@?$dense_hash_map@KPAXV?$hash_compare@KU?$less@K@std@@@stdext@@U?$equal_to@K@std@@V?$libc_allocator_with_realloc@U?$pair@$$CBKPAX@std@@@google@@@google@@USetKey@67@U?$equal_to@K@2@V?$libc_allocator_with_realloc@U?$pair@$$CBKPAX@std@@@7@@google@@@std@@YAXAAVKeyInfo@?$dense_hashtable@U?$pair@$$CBKPAX@std@@KV?$hash_compare@KU?$less@K@std@@@stdext@@USelectKey@?$dense_hash_map@KPAXV?$hash_compare@KU?$less@K@std@@@stdext@@U?$equal_to@K@std@@V?$libc_allocator_with_realloc@U?$pair@$$CBKPAX@std@@@google@@@google@@USetKey@67@U?$equal_to@K@2@V?$libc_allocator_with_realloc@U?$pair@$$CBKPAX@std@@@7@@google@@0@Z 10015710 f i PatchMW2CModels.obj
 0001:00014770       ??$_Construct@U?$pair@PAEPAE@std@@ABU12@@std@@YAXPAU?$pair@PAEPAE@0@ABU10@@Z 10015770 f i PatchMW2StringTable.obj
 0001:00014770       ??$_Construct@U?$pair@$$CBKPAX@std@@ABU12@@std@@YAXPAU?$pair@$$CBKPAX@0@ABU10@@Z 10015770 f i PatchMW2CModels.obj
 0001:00014770       ??$_Construct@U?$pair@$$CBKPAUCModelAllocData@@@std@@ABU12@@std@@YAXPAU?$pair@$$CBKPAUCModelAllocData@@@0@ABU10@@Z 10015770 f i PatchMW2CModels.obj
 0001:000147f0       ??0?$_Pair_base@QAXK@std@@QAE@$$QBQAX$$QAK@Z 100157f0 f i PatchMW2FilePointers.obj
 0001:000147f0       ??0?$_Pair_base@HPAUnewWeapon@@@std@@QAE@$$QAH$$QAPAUnewWeapon@@@Z 100157f0 f i PatchMW2PlayerdataDefinition.obj
 0001:000147f0       ??0?$_Pair_base@$$CBKK@std@@QAE@$$QBK$$QAK@Z 100157f0 f i PatchMW2FilePointers.obj
 0001:000147f0       ??$?0AAKPAX@?$_Pair_base@KPAX@std@@QAE@AAK$$QAPAX@Z 100157f0 f i PatchMW2CModels.obj
 0001:000147f0       ??$?0AAKPAUCModelAllocData@@@?$_Pair_base@KPAUCModelAllocData@@@std@@QAE@AAK$$QAPAUCModelAllocData@@@Z 100157f0 f i PatchMW2CModels.obj
 0001:000147f0       ??$?0HPAUnewWeapon@@@?$_Pair_base@$$CBHPAUnewWeapon@@@std@@QAE@$$QAH$$QAPAUnewWeapon@@@Z 100157f0 f i PatchMW2PlayerdataDefinition.obj
 0001:000147f0       ??$?0ABIAAI@?$_Pair_base@II@std@@QAE@ABIAAI@Z 100157f0 f i PatchMW2CModels.obj
 0001:000147f0       ??0?$_Pair_base@$$CBKPAX@std@@QAE@$$QBK$$QAPAX@Z 100157f0 f i PatchMW2FilePointers.obj
 0001:000147f0       ??$?0KPAUCModelAllocData@@@?$_Pair_base@$$CBKPAUCModelAllocData@@@std@@QAE@$$QAK$$QAPAUCModelAllocData@@@Z 100157f0 f i PatchMW2CModels.obj
 0001:000147f0       ??$?0AAIABI@?$_Pair_base@II@std@@QAE@AAIABI@Z 100157f0 f i PatchMW2CModels.obj
 0001:000147f0       ??$?0KPAX@?$_Pair_base@$$CBKPAX@std@@QAE@$$QAK$$QAPAX@Z 100157f0 f i PatchMW2CModels.obj
 0001:000147f0       ??0?$_Pair_base@$$CBHPAUnewWeapon@@@std@@QAE@$$QBH$$QAPAUnewWeapon@@@Z 100157f0 f i PatchMW2PlayerdataDefinition.obj
 0001:00014830       ??0?$dense_hash_map@KPAUCModelAllocData@@V?$hash_compare@KU?$less@K@std@@@stdext@@U?$equal_to@K@std@@V?$libc_allocator_with_realloc@U?$pair@$$CBKPAUCModelAllocData@@@std@@@google@@@google@@QAE@IABV?$hash_compare@KU?$less@K@std@@@stdext@@ABU?$equal_to@K@std@@ABV?$libc_allocator_with_realloc@U?$pair@$$CBKPAUCModelAllocData@@@std@@@1@@Z 10015830 f i PatchMW2CModels.obj
 0001:00014830       ??0?$dense_hash_map@KPAXV?$hash_compare@KU?$less@K@std@@@stdext@@U?$equal_to@K@std@@V?$libc_allocator_with_realloc@U?$pair@$$CBKPAX@std@@@google@@@google@@QAE@IABV?$hash_compare@KU?$less@K@std@@@stdext@@ABU?$equal_to@K@std@@ABV?$libc_allocator_with_realloc@U?$pair@$$CBKPAX@std@@@1@@Z 10015830 f i PatchMW2CModels.obj
 0001:00014870       ??0?$dense_hashtable@U?$pair@$$CBKPAUCModelAllocData@@@std@@KV?$hash_compare@KU?$less@K@std@@@stdext@@USelectKey@?$dense_hash_map@KPAUCModelAllocData@@V?$hash_compare@KU?$less@K@std@@@stdext@@U?$equal_to@K@std@@V?$libc_allocator_with_realloc@U?$pair@$$CBKPAUCModelAllocData@@@std@@@google@@@google@@USetKey@67@U?$equal_to@K@2@V?$libc_allocator_with_realloc@U?$pair@$$CBKPAUCModelAllocData@@@std@@@7@@google@@QAE@IABV?$hash_compare@KU?$less@K@std@@@stdext@@ABU?$equal_to@K@std@@ABUSelectKey@?$dense_hash_map@KPAUCModelAllocData@@V?$hash_compare@KU?$less@K@std@@@stdext@@U?$equal_to@K@std@@V?$libc_allocator_with_realloc@U?$pair@$$CBKPAUCModelAllocData@@@std@@@google@@@1@ABUSetKey@71@ABV?$libc_allocator_with_realloc@U?$pair@$$CBKPAUCModelAllocData@@@std@@@1@@Z 10015870 f i PatchMW2CModels.obj
 0001:00014870       ??0?$dense_hashtable@U?$pair@$$CBKPAX@std@@KV?$hash_compare@KU?$less@K@std@@@stdext@@USelectKey@?$dense_hash_map@KPAXV?$hash_compare@KU?$less@K@std@@@stdext@@U?$equal_to@K@std@@V?$libc_allocator_with_realloc@U?$pair@$$CBKPAX@std@@@google@@@google@@USetKey@67@U?$equal_to@K@2@V?$libc_allocator_with_realloc@U?$pair@$$CBKPAX@std@@@7@@google@@QAE@IABV?$hash_compare@KU?$less@K@std@@@stdext@@ABU?$equal_to@K@std@@ABUSelectKey@?$dense_hash_map@KPAXV?$hash_compare@KU?$less@K@std@@@stdext@@U?$equal_to@K@std@@V?$libc_allocator_with_realloc@U?$pair@$$CBKPAX@std@@@google@@@1@ABUSetKey@71@ABV?$libc_allocator_with_realloc@U?$pair@$$CBKPAX@std@@@1@@Z 10015870 f i PatchMW2CModels.obj
 0001:00014960       ??0Settings@?$dense_hashtable@U?$pair@$$CBV?$basic_string@DU?$char_traits@D@std@@V?$allocator@D@2@@std@@PAUstringTable_s@@@std@@V?$basic_string@DU?$char_traits@D@std@@V?$allocator@D@2@@2@V?$hash_compare@V?$basic_string@DU?$char_traits@D@std@@V?$allocator@D@2@@std@@U?$less@V?$basic_string@DU?$char_traits@D@std@@V?$allocator@D@2@@std@@@2@@stdext@@USelectKey@?$dense_hash_map@V?$basic_string@DU?$char_traits@D@std@@V?$allocator@D@2@@std@@PAUstringTable_s@@V?$hash_compare@V?$basic_string@DU?$char_traits@D@std@@V?$allocator@D@2@@std@@U?$less@V?$basic_string@DU?$char_traits@D@std@@V?$allocator@D@2@@std@@@2@@stdext@@U?$equal_to@V?$basic_string@DU?$char_traits@D@std@@V?$allocator@D@2@@std@@@2@V?$libc_allocator_with_realloc@U?$pair@$$CBV?$basic_string@DU?$char_traits@D@std@@V?$allocator@D@2@@std@@PAUstringTable_s@@@std@@@google@@@google@@USetKey@78@U?$equal_to@V?$basic_string@DU?$char_traits@D@std@@V?$allocator@D@2@@std@@@2@V?$libc_allocator_with_realloc@U?$pair@$$CBV?$basic_string@DU?$char_traits@D@std@@V?$allocator@D@2@@std@@PAUstringTable_s@@@std@@@8@@google@@QAE@ABV?$hash_compare@V?$basic_string@DU?$char_traits@D@std@@V?$allocator@D@2@@std@@U?$less@V?$basic_string@DU?$char_traits@D@std@@V?$allocator@D@2@@std@@@2@@stdext@@@Z 10015960 f i PatchMW2StringTable.obj
 0001:00014960       ??0Settings@?$dense_hashtable@U?$pair@$$CBV?$basic_string@DU?$char_traits@D@std@@V?$allocator@D@2@@std@@G@std@@V?$basic_string@DU?$char_traits@D@std@@V?$allocator@D@2@@2@V?$hash_compare@V?$basic_string@DU?$char_traits@D@std@@V?$allocator@D@2@@std@@U?$less@V?$basic_string@DU?$char_traits@D@std@@V?$allocator@D@2@@std@@@2@@stdext@@USelectKey@?$dense_hash_map@V?$basic_string@DU?$char_traits@D@std@@V?$allocator@D@2@@std@@GV?$hash_compare@V?$basic_string@DU?$char_traits@D@std@@V?$allocator@D@2@@std@@U?$less@V?$basic_string@DU?$char_traits@D@std@@V?$allocator@D@2@@std@@@2@@stdext@@U?$equal_to@V?$basic_string@DU?$char_traits@D@std@@V?$allocator@D@2@@std@@@2@V?$libc_allocator_with_realloc@U?$pair@$$CBV?$basic_string@DU?$char_traits@D@std@@V?$allocator@D@2@@std@@G@std@@@google@@@google@@USetKey@78@U?$equal_to@V?$basic_string@DU?$char_traits@D@std@@V?$allocator@D@2@@std@@@2@V?$libc_allocator_with_realloc@U?$pair@$$CBV?$basic_string@DU?$char_traits@D@std@@V?$allocator@D@2@@std@@G@std@@@8@@google@@QAE@ABV?$hash_compare@V?$basic_string@DU?$char_traits@D@std@@V?$allocator@D@2@@std@@U?$less@V?$basic_string@DU?$char_traits@D@std@@V?$allocator@D@2@@std@@@2@@stdext@@@Z 10015960 f i PatchMW2StringList.obj
 0001:00014960       ??0Settings@?$dense_hashtable@U?$pair@$$CBKPAX@std@@KV?$hash_compare@KU?$less@K@std@@@stdext@@USelectKey@?$dense_hash_map@KPAXV?$hash_compare@KU?$less@K@std@@@stdext@@U?$equal_to@K@std@@V?$libc_allocator_with_realloc@U?$pair@$$CBKPAX@std@@@google@@@google@@USetKey@67@U?$equal_to@K@2@V?$libc_allocator_with_realloc@U?$pair@$$CBKPAX@std@@@7@@google@@QAE@ABV?$hash_compare@KU?$less@K@std@@@stdext@@@Z 10015960 f i PatchMW2CModels.obj
 0001:00014960       ??0Settings@?$dense_hashtable@U?$pair@$$CBV?$basic_string@DU?$char_traits@D@std@@V?$allocator@D@2@@std@@V12@@std@@V?$basic_string@DU?$char_traits@D@std@@V?$allocator@D@2@@2@V?$hash_compare@V?$basic_string@DU?$char_traits@D@std@@V?$allocator@D@2@@std@@U?$less@V?$basic_string@DU?$char_traits@D@std@@V?$allocator@D@2@@std@@@2@@stdext@@USelectKey@?$dense_hash_map@V?$basic_string@DU?$char_traits@D@std@@V?$allocator@D@2@@std@@V12@V?$hash_compare@V?$basic_string@DU?$char_traits@D@std@@V?$allocator@D@2@@std@@U?$less@V?$basic_string@DU?$char_traits@D@std@@V?$allocator@D@2@@std@@@2@@stdext@@U?$equal_to@V?$basic_string@DU?$char_traits@D@std@@V?$allocator@D@2@@std@@@2@V?$libc_allocator_with_realloc@U?$pair@$$CBV?$basic_string@DU?$char_traits@D@std@@V?$allocator@D@2@@std@@V12@@std@@@google@@@google@@USetKey@78@U?$equal_to@V?$basic_string@DU?$char_traits@D@std@@V?$allocator@D@2@@std@@@2@V?$libc_allocator_with_realloc@U?$pair@$$CBV?$basic_string@DU?$char_traits@D@std@@V?$allocator@D@2@@std@@V12@@std@@@8@@google@@QAE@ABV?$hash_compare@V?$basic_string@DU?$char_traits@D@std@@V?$allocator@D@2@@std@@U?$less@V?$basic_string@DU?$char_traits@D@std@@V?$allocator@D@2@@std@@@2@@stdext@@@Z 10015960 f i PatchMW2LocalizedStrings.obj
 0001:00014960       ??0Settings@?$dense_hashtable@U?$pair@$$CBV?$basic_string@DU?$char_traits@D@std@@V?$allocator@D@2@@std@@PAUMaterial@@@std@@V?$basic_string@DU?$char_traits@D@std@@V?$allocator@D@2@@2@V?$hash_compare@V?$basic_string@DU?$char_traits@D@std@@V?$allocator@D@2@@std@@U?$less@V?$basic_string@DU?$char_traits@D@std@@V?$allocator@D@2@@std@@@2@@stdext@@USelectKey@?$dense_hash_map@V?$basic_string@DU?$char_traits@D@std@@V?$allocator@D@2@@std@@PAUMaterial@@V?$hash_compare@V?$basic_string@DU?$char_traits@D@std@@V?$allocator@D@2@@std@@U?$less@V?$basic_string@DU?$char_traits@D@std@@V?$allocator@D@2@@std@@@2@@stdext@@U?$equal_to@V?$basic_string@DU?$char_traits@D@std@@V?$allocator@D@2@@std@@@2@V?$libc_allocator_with_realloc@U?$pair@$$CBV?$basic_string@DU?$char_traits@D@std@@V?$allocator@D@2@@std@@PAUMaterial@@@std@@@google@@@google@@USetKey@78@U?$equal_to@V?$basic_string@DU?$char_traits@D@std@@V?$allocator@D@2@@std@@@2@V?$libc_allocator_with_realloc@U?$pair@$$CBV?$basic_string@DU?$char_traits@D@std@@V?$allocator@D@2@@std@@PAUMaterial@@@std@@@8@@google@@QAE@ABV?$hash_compare@V?$basic_string@DU?$char_traits@D@std@@V?$allocator@D@2@@std@@U?$less@V?$basic_string@DU?$char_traits@D@std@@V?$allocator@D@2@@std@@@2@@stdext@@@Z 10015960 f i PatchMW2Materialism.obj
 0001:00014960       ??0Settings@?$dense_hashtable@U?$pair@$$CBV?$basic_string@DU?$char_traits@D@std@@V?$allocator@D@2@@std@@PAUXModel@@@std@@V?$basic_string@DU?$char_traits@D@std@@V?$allocator@D@2@@2@V?$hash_compare@V?$basic_string@DU?$char_traits@D@std@@V?$allocator@D@2@@std@@U?$less@V?$basic_string@DU?$char_traits@D@std@@V?$allocator@D@2@@std@@@2@@stdext@@USelectKey@?$dense_hash_map@V?$basic_string@DU?$char_traits@D@std@@V?$allocator@D@2@@std@@PAUXModel@@V?$hash_compare@V?$basic_string@DU?$char_traits@D@std@@V?$allocator@D@2@@std@@U?$less@V?$basic_string@DU?$char_traits@D@std@@V?$allocator@D@2@@std@@@2@@stdext@@U?$equal_to@V?$basic_string@DU?$char_traits@D@std@@V?$allocator@D@2@@std@@@2@V?$libc_allocator_with_realloc@U?$pair@$$CBV?$basic_string@DU?$char_traits@D@std@@V?$allocator@D@2@@std@@PAUXModel@@@std@@@google@@@google@@USetKey@78@U?$equal_to@V?$basic_string@DU?$char_traits@D@std@@V?$allocator@D@2@@std@@@2@V?$libc_allocator_with_realloc@U?$pair@$$CBV?$basic_string@DU?$char_traits@D@std@@V?$allocator@D@2@@std@@PAUXModel@@@std@@@8@@google@@QAE@ABV?$hash_compare@V?$basic_string@DU?$char_traits@D@std@@V?$allocator@D@2@@std@@U?$less@V?$basic_string@DU?$char_traits@D@std@@V?$allocator@D@2@@std@@@2@@stdext@@@Z 10015960 f i PatchMW2WeaponCamos.obj
 0001:00014960       ??0Settings@?$dense_hashtable@U?$pair@$$CBKPAUCModelAllocData@@@std@@KV?$hash_compare@KU?$less@K@std@@@stdext@@USelectKey@?$dense_hash_map@KPAUCModelAllocData@@V?$hash_compare@KU?$less@K@std@@@stdext@@U?$equal_to@K@std@@V?$libc_allocator_with_realloc@U?$pair@$$CBKPAUCModelAllocData@@@std@@@google@@@google@@USetKey@67@U?$equal_to@K@2@V?$libc_allocator_with_realloc@U?$pair@$$CBKPAUCModelAllocData@@@std@@@7@@google@@QAE@ABV?$hash_compare@KU?$less@K@std@@@stdext@@@Z 10015960 f i PatchMW2CModels.obj
 0001:000149b0       ??0ValInfo@?$dense_hashtable@U?$pair@$$CBKPAX@std@@KV?$hash_compare@KU?$less@K@std@@@stdext@@USelectKey@?$dense_hash_map@KPAXV?$hash_compare@KU?$less@K@std@@@stdext@@U?$equal_to@K@std@@V?$libc_allocator_with_realloc@U?$pair@$$CBKPAX@std@@@google@@@google@@USetKey@67@U?$equal_to@K@2@V?$libc_allocator_with_realloc@U?$pair@$$CBKPAX@std@@@7@@google@@QAE@ABV?$alloc_impl@V?$libc_allocator_with_realloc@U?$pair@$$CBKPAX@std@@@google@@@12@@Z 100159b0 f i PatchMW2CModels.obj
 0001:000149b0       ??0ValInfo@?$dense_hashtable@U?$pair@$$CBKPAUCModelAllocData@@@std@@KV?$hash_compare@KU?$less@K@std@@@stdext@@USelectKey@?$dense_hash_map@KPAUCModelAllocData@@V?$hash_compare@KU?$less@K@std@@@stdext@@U?$equal_to@K@std@@V?$libc_allocator_with_realloc@U?$pair@$$CBKPAUCModelAllocData@@@std@@@google@@@google@@USetKey@67@U?$equal_to@K@2@V?$libc_allocator_with_realloc@U?$pair@$$CBKPAUCModelAllocData@@@std@@@7@@google@@QAE@ABV?$alloc_impl@V?$libc_allocator_with_realloc@U?$pair@$$CBKPAUCModelAllocData@@@std@@@google@@@12@@Z 100159b0 f i PatchMW2CModels.obj
 0001:00014a10       ??1?$dense_hash_map@KPAXV?$hash_compare@KU?$less@K@std@@@stdext@@U?$equal_to@K@std@@V?$libc_allocator_with_realloc@U?$pair@$$CBKPAX@std@@@google@@@google@@QAE@XZ 10015a10 f i PatchMW2CModels.obj
 0001:00014a10       ??1?$dense_hash_map@KPAUCModelAllocData@@V?$hash_compare@KU?$less@K@std@@@stdext@@U?$equal_to@K@std@@V?$libc_allocator_with_realloc@U?$pair@$$CBKPAUCModelAllocData@@@std@@@google@@@google@@QAE@XZ 10015a10 f i PatchMW2CModels.obj
 0001:00014a30       ?DoWinMainInit@@YAXXZ      10015a30 f   PatchMW2Console.obj
 0001:00014a40       ?RefreshOutput@@YAXXZ      10015a40 f   PatchMW2Console.obj
 0001:00014a90       ?ScrollOutput@@YAXH@Z      10015a90 f   PatchMW2Console.obj
 0001:00014b10       ?Sys_CreateConsole@@YAXXZ  10015b10 f   PatchMW2Console.obj
 0001:00014c80       ?Sys_DestroyConsole@@YAXXZ 10015c80 f   PatchMW2Console.obj
 0001:00014cc0       ?Sys_Print@@YAXPBD@Z       10015cc0 f   PatchMW2Console.obj
 0001:00014dc0       ?Sys_Error@@YAXPBDZZ       10015dc0 f   PatchMW2Console.obj
 0001:00014e50       ?ShowConsolePrompt@@YAXXZ  10015e50 f   PatchMW2Console.obj
 0001:00014e90       ?UpdateConsoleStatus@@YAXXZ 10015e90 f   PatchMW2Console.obj
 0001:00014f80       ?Sys_ConsoleInput@@YAPBDXZ 10015f80 f   PatchMW2Console.obj
 0001:00015300       ?PatchMW2_Console@@YAXXZ   10016300 f   PatchMW2Console.obj
 0001:000153c0       ?StripColors@@YAXPBDPADH@Z 100163c0 f   PatchMW2ConsoleTitle.obj
 0001:00015460       ?SetWindowTitle@@YAXXZ     10016460 f   PatchMW2ConsoleTitle.obj
 0001:000155e0       ?StringCbCopyA@@YGJPADIPBD@Z 100165e0 f i PatchMW2ConsoleTitle.obj
 0001:00015630       ?InitDedicatedFastFiles@@YAXXZ 10016630 f   PatchMW2Dedicated.obj
 0001:000156a0       ?InitDedicatedVars@@YAXXZ  100166a0 f   PatchMW2Dedicated.obj
 0001:00015a00       ?InitLogFilter@@YAXXZ      10016a00 f   PatchMW2Dedicated.obj
 0001:00015a50       ?DedicatedInitHookStub@@YAXXZ 10016a50 f   PatchMW2Dedicated.obj
 0001:00015a70       ?G_MeSay@@YAXPAUgentity_s@@PBD1@Z 10016a70 f   PatchMW2Dedicated.obj
 0001:00015b50       ?Scriptability_OnSay@@YA_NHPADPAPADH@Z 10016b50 f   PatchMW2Dedicated.obj
 0001:00015b80       ?GSayPreHookFunc@@YAXXZ    10016b80 f   PatchMW2Dedicated.obj
 0001:00015d50       ?GSayPostHook1Func@@YAXXZ  10016d50 f   PatchMW2Dedicated.obj
 0001:00015d70       ?GSayPostHook2Func@@YAXXZ  10016d70 f   PatchMW2Dedicated.obj
 0001:00015d90       ?OnClientDisconnectHookFunc@@YAXPAUclient_s@@@Z 10016d90 f   PatchMW2Dedicated.obj
 0001:00015db0       ?OnClientDisconnectHookStub@@YAXXZ 10016db0 f   PatchMW2Dedicated.obj
 0001:00015dd0       ?G_RunFrameHookFunc@@YAXXZ 10016dd0 f   PatchMW2Dedicated.obj
 0001:00015de0       ?G_RunFrameHookStub@@YAXXZ 10016de0 f   PatchMW2Dedicated.obj
 0001:00015df0       ?PushAutoCommands@@YAXXZ   10016df0 f   PatchMW2Dedicated.obj
 0001:00015e90       ?DoPostInitStub@@YAXXZ     10016e90 f   PatchMW2Dedicated.obj
 0001:00015eb0       ?CLICommandHook2Stub@@YAXXZ 10016eb0 f   PatchMW2Dedicated.obj
 0001:00015ec0       ?DoSteamCheckWrap@@YAXXZ   10016ec0 f   PatchMW2Dedicated.obj
 0001:00015ed0       ?DoSteamCheckStub@@YAXXZ   10016ed0 f   PatchMW2Dedicated.obj
 0001:00015ee0       ?Hook_SV_Heartbeat_f@@YAXXZ 10016ee0 f   PatchMW2Dedicated.obj
 0001:00015ef0       ?HeartbeatHookFrameStub@@YAXXZ 10016ef0 f   PatchMW2Dedicated.obj
 0001:00015f00       ?KillServerHookStub@@YAXXZ 10016f00 f   PatchMW2Dedicated.obj
 0001:00015f10       ?StopServerHookStub@@YAXXZ 10016f10 f   PatchMW2Dedicated.obj
 0001:00015f20       ?CheckPrivateSlotHookFunc@@YAHPAX_J@Z 10016f20 f   PatchMW2Dedicated.obj
 0001:00015fd0       ?CheckPrivateSlotHookStub@@YAXXZ 10016fd0 f   PatchMW2Dedicated.obj
 0001:00015fe0       ?PatchMW2_SayCommands@@YAXXZ 10016fe0 f   PatchMW2Dedicated.obj
 0001:00016050       ?PatchMW2_Dedicated@@YAXXZ 10017050 f   PatchMW2Dedicated.obj
 0001:00016360       ?G_SayTo@@YAXHPAX0HKPBD1@Z 10017360 f   PatchMW2Dedicated.obj
 0001:00016390       ?G_SayToClient@@YAXHKPBD0@Z 10017390 f   PatchMW2Dedicated.obj
 0001:000163f0       ?G_SayToAll@@YAXKPBD0@Z    100173f0 f   PatchMW2Dedicated.obj
 0001:00016470       ?Cmd_GetStringSV@@YAXHPADI@Z 10017470 f   PatchMW2Dedicated.obj
 0001:00016510       ?SV_ConSay_f@@YAXXZ        10017510 f   PatchMW2Dedicated.obj
 0001:000165e0       ?SV_ConSayRaw_f@@YAXXZ     100175e0 f   PatchMW2Dedicated.obj
 0001:00016650       ?SV_ConTell_f@@YAXXZ       10017650 f   PatchMW2Dedicated.obj
 0001:00016750       ?SV_ConTellRaw_f@@YAXXZ    10017750 f   PatchMW2Dedicated.obj
 0001:000167f0       ?SV_ExecuteLastMap@@YAXXZ  100177f0 f   PatchMW2Dedicated.obj
 0001:00016840       ?Party_ChooseNextPlaylistEntry@@YAXH@Z 10017840 f   PatchMW2Dedicated.obj
 0001:00016860       ?SV_MapRotateUsingPlaylists@@YAXXZ 10017860 f   PatchMW2Dedicated.obj
 0001:000168d0       ?SV_MapRotate_f@@YAXXZ     100178d0 f   PatchMW2Dedicated.obj
 0001:00016be0       ?Dvar_SetS_f@@YAXXZ        10017be0 f   PatchMW2Dedicated.obj
 0001:00016c60       ?SV_Exclamation_f@@YAXXZ   10017c60 f   PatchMW2Dedicated.obj
 0001:00016d40       ?SV_MasterHeartbeat@@YAXXZ 10017d40 f   PatchMW2Dedicated.obj
 0001:00016f20       ?SV_Heartbeat_f@@YAXXZ     10017f20 f   PatchMW2Dedicated.obj
 0001:00016f40       ?SV_MasterHeartbeat_OnKill@@YAXXZ 10017f40 f   PatchMW2Dedicated.obj
 0001:00016f70       ?FrameEpilogueFunc@@YAXXZ  10017f70 f   PatchMW2Dedicated.obj
 0001:00016f80       ?PacketEventHookFunc@@YAXXZ 10017f80 f   PatchMW2Dedicated.obj
 0001:00016f90       ?PatchMW2_OneThread@@YAXXZ 10017f90 f   PatchMW2Dedicated.obj
 0001:00017040       ?Com_SaveDediConfig_Each@@YAXPAUdvar_t@@PAX@Z 10018040 f   PatchMW2DediConfig.obj
 0001:00017090       ?Com_SaveDediConfig@@YAXXZ 10018090 f   PatchMW2DediConfig.obj
 0001:000170f0       ?Com_WriteDediConfig@@YAXXZ 100180f0 f   PatchMW2DediConfig.obj
 0001:00017150       ?InitializeDediConfig@@YAXXZ 10018150 f   PatchMW2DediConfig.obj
 0001:00017500       ?ApplySlowMotionHookStub@@YAXH@Z 10018500 f   PatchMW2DediSlowmotion.obj
 0001:00017530       ?SetSlowMotionHookFunc@@YAXXZ 10018530 f   PatchMW2DediSlowmotion.obj
 0001:00017630       ?PatchMW2_DediSlowmotion@@YAXXZ 10018630 f   PatchMW2DediSlowmotion.obj
 0001:00017680       ?_divideStuff@@YAHH@Z      10018680 f   PatchMW2FrameRateSV.obj
 0001:00017690       ?G_AntiLagGetSnapStub@@YAXXZ 10018690 f   PatchMW2FrameRateSV.obj
 0001:000176b0       ?_getCachedSnapStub@@YAXXZ 100186b0 f   PatchMW2FrameRateSV.obj
 0001:000176d0       ?VM_ExecuteWaitIntFunc@@YAHH@Z 100186d0 f   PatchMW2FrameRateSV.obj
 0001:000176e0       ?VM_ExecuteWaitIntStub@@YAXXZ 100186e0 f   PatchMW2FrameRateSV.obj
 0001:00017700       ?PatchFrameRate@@YAXD@Z    10018700 f   PatchMW2FrameRateSV.obj
 0001:000177f0       ?PatchMW2_FrameRate@@YAXXZ 100187f0 f   PatchMW2FrameRateSV.obj
 0001:00017800       ?NET_Sleep@@YAXH@Z         10018800 f   PatchMW2FrameTime.obj
 0001:00017970       ?Com_TimeVal@@YAHH@Z       10018970 f   PatchMW2FrameTime.obj
 0001:000179b0       ?Com_FrameWait@@YAIH@Z     100189b0 f   PatchMW2FrameTime.obj
 0001:00017a80       ?Com_FrameWaitHookStub@@YAXXZ 10018a80 f   PatchMW2FrameTime.obj
 0001:00017aa0       ?SV_FrameWaitFunc@@YAXXZ   10018aa0 f   PatchMW2FrameTime.obj
 0001:00017ad0       ?SV_FrameWaitHookStub@@YAXXZ 10018ad0 f   PatchMW2FrameTime.obj
 0001:00017ae0       ?PatchMW2_FrameTime@@YAXXZ 10018ae0 f   PatchMW2FrameTime.obj
 0001:00017b20       ?htmlEntitiesDecode@@YA?AV?$basic_string@DU?$char_traits@D@std@@V?$allocator@D@2@@std@@V12@@Z 10018b20 f   PatchMW2Friends.obj
 0001:00017e90       ?Friends_StatsCB@@YAXPAV?$NPAsync@UNPFriendResult@@@@@Z 10018e90 f   PatchMW2Friends.obj
 0001:00018120       ?Friends_LoadFriends@@YAXPAD@Z 10019120 f   PatchMW2Friends.obj
 0001:00018150       ?CG_ParseServerInfoHookFunc@@YAXXZ 10019150 f   PatchMW2Friends.obj
 0001:000181b0       ?CL_DisconnectHookFunc@@YAXXZ 100191b0 f   PatchMW2Friends.obj
 0001:00018200       ?CL_DisconnectHookStub@@YAXXZ 10019200 f   PatchMW2Friends.obj
 0001:00018210       ?CL_ShutdownOnceForAllClientsHookFunc@@YAXXZ 10019210 f   PatchMW2Friends.obj
 0001:00018260       ?CL_ShutdownOnceForAllClientsHookStub@@YAXXZ 10019260 f   PatchMW2Friends.obj
 0001:00018270       ?CL_ShutdownHookStub@@YAXXZ 10019270 f   PatchMW2Friends.obj
 0001:00018280       ?FriendList_GetItemText@@YAPBDHH@Z 10019280 f   PatchMW2Friends.obj
 0001:00018430       ?FriendList_Select@@YAXH@Z 10019430 f   PatchMW2Friends.obj
 0001:00018460       ?UI_friendAction@@YAXPAD@Z 10019460 f   PatchMW2Friends.obj
 0001:000184d0       ?FriendList_GetItemCount@@YAHXZ 100194d0 f   PatchMW2Friends.obj
 0001:000184f0       ?PatchMW2_Friends@@YAXXZ   100194f0 f   PatchMW2Friends.obj
 0001:000185e0       ?replace@?$basic_string@DU?$char_traits@D@std@@V?$allocator@D@2@@std@@QAEAAV12@IIABV12@@Z 100195e0 f i PatchMW2Friends.obj
 0001:00018610       ?empty@?$deque@Udownload_s@@V?$allocator@Udownload_s@@@std@@@std@@QBE_NXZ 10019610 f i PatchMW2DownloadCL.obj
 0001:00018610       ?empty@?$deque@V?$deque@U?$pair@PAEPAE@std@@V?$allocator@U?$pair@PAEPAE@std@@@2@@std@@V?$allocator@V?$deque@U?$pair@PAEPAE@std@@V?$allocator@U?$pair@PAEPAE@std@@@2@@std@@@2@@std@@QBE_NXZ 10019610 f i PatchMW2StringTable.obj
 0001:00018610       ?empty@?$deque@U?$pair@PAEPAE@std@@V?$allocator@U?$pair@PAEPAE@std@@@2@@std@@QBE_NXZ 10019610 f i PatchMW2StringTable.obj
 0001:00018610       ?empty@?$basic_string@DU?$char_traits@D@std@@V?$allocator@D@2@@std@@QBE_NXZ 10019610 f i PatchMW2Friends.obj
 0001:00018630       ?find@?$basic_string@DU?$char_traits@D@std@@V?$allocator@D@2@@std@@QBEIABV12@I@Z 10019630 f i PatchMW2Friends.obj
 0001:00018660       ?push_back@?$vector@UUIFeeder_t@@V?$allocator@UUIFeeder_t@@@std@@@std@@QAEXABUUIFeeder_t@@@Z 10019660 f i PatchMW2Friends.obj
 0001:00018760       ??A?$unordered_map@HUNPFriend@@V?$hash@H@std@@U?$equal_to@H@3@V?$allocator@U?$pair@$$CBHUNPFriend@@@std@@@3@@tr1@std@@QAEAAUNPFriend@@ABH@Z 10019760 f i PatchMW2Friends.obj
 0001:00018800       ?replace@?$basic_string@DU?$char_traits@D@std@@V?$allocator@D@2@@std@@QAEAAV12@IIABV12@II@Z 10019800 f i PatchMW2Friends.obj
 0001:00018ac0       ?find@?$basic_string@DU?$char_traits@D@std@@V?$allocator@D@2@@std@@QBEIPBDII@Z 10019ac0 f i PatchMW2Friends.obj
 0001:00018ba0       ?find@?$char_traits@D@std@@SAPBDPBDIABD@Z 10019ba0 f i PatchMW2Friends.obj
 0001:00018bc0       ?_Reserve@?$vector@UUIFeeder_t@@V?$allocator@UUIFeeder_t@@@std@@@std@@IAEXI@Z 10019bc0 f i PatchMW2Friends.obj
 0001:00018c30       ??0?$pair@$$CBHUNPFriend@@@std@@QAE@ABH$$QAUNPFriend@@@Z 10019c30 f i PatchMW2Friends.obj
 0001:00018c60       ?reserve@?$vector@UUIFeeder_t@@V?$allocator@UUIFeeder_t@@@std@@@std@@QAEXI@Z 10019c60 f i PatchMW2Friends.obj
 0001:00018da0       ?capacity@?$vector@UUIFeeder_t@@V?$allocator@UUIFeeder_t@@@std@@@std@@QBEIXZ 10019da0 f i PatchMW2Friends.obj
 0001:00018dc0       ?size@?$vector@UUIFeeder_t@@V?$allocator@UUIFeeder_t@@@std@@@std@@QBEIXZ 10019dc0 f i PatchMW2Friends.obj
 0001:00018de0       ?max_size@?$vector@UUIFeeder_t@@V?$allocator@UUIFeeder_t@@@std@@@std@@QBEIXZ 10019de0 f i PatchMW2Friends.obj
 0001:00018e00       ?_Grow_to@?$vector@UUIFeeder_t@@V?$allocator@UUIFeeder_t@@@std@@@std@@IBEII@Z 10019e00 f i PatchMW2Friends.obj
 0001:00018e60       ??R?$_Hash_compare@KV?$hash@K@std@@U?$equal_to@K@2@@std@@QBE_NABK0@Z 10019e60 f i PatchMW2FilePointers.obj
 0001:00018e60       ??R?$_Hash_compare@PAXV?$hash@PAX@std@@U?$equal_to@PAX@2@@std@@QBE_NABQAX0@Z 10019e60 f i PatchMW2FilePointers.obj
 0001:00018e60       ??R?$_Hash_compare@HV?$hash@H@std@@U?$equal_to@H@2@@std@@QBE_NABH0@Z 10019e60 f i PatchMW2Friends.obj
 0001:00018e90       ??0?$_Pair_base@$$CBHUNPFriend@@@std@@QAE@ABH$$QAUNPFriend@@@Z 10019e90 f i PatchMW2Friends.obj
 0001:00018ed0       ?_Destroy@?$vector@UUIFeeder_t@@V?$allocator@UUIFeeder_t@@@std@@@std@@IAEXPAUUIFeeder_t@@0@Z 10019ed0 f i PatchMW2Friends.obj
 0001:00018f00       ??R?$_Hash_compare@KV?$hash@K@std@@U?$equal_to@K@2@@std@@QBEIABK@Z 10019f00 f i PatchMW2FilePointers.obj
 0001:00018f00       ??R?$_Hash_compare@HV?$hash@H@std@@U?$equal_to@H@2@@std@@QBEIABH@Z 10019f00 f i PatchMW2Friends.obj
 0001:00018f20       ??R?$hash@H@std@@QBEIABH@Z 10019f20 f i PatchMW2Friends.obj
 0001:00018f20       ??R?$hash@K@std@@QBEIABK@Z 10019f20 f i PatchMW2FilePointers.obj
 0001:00018f80       ??$_Cons_val@V?$allocator@UUIFeeder_t@@@std@@UUIFeeder_t@@U3@@std@@YAXAAV?$allocator@UUIFeeder_t@@@0@PAUUIFeeder_t@@$$QAU2@@Z 10019f80 f i PatchMW2Friends.obj
 0001:00018f80       ??$_Cons_val@V?$allocator@UUIFeeder_t@@@std@@UUIFeeder_t@@AAU3@@std@@YAXAAV?$allocator@UUIFeeder_t@@@0@PAUUIFeeder_t@@AAU2@@Z 10019f80 f i PatchMW2Friends.obj
 0001:00018fa0       ??$insert@U?$pair@$$CBHUNPFriend@@@std@@@?$_Hash@V?$_Umap_traits@HUNPFriend@@V?$_Hash_compare@HV?$hash@H@std@@U?$equal_to@H@2@@std@@V?$allocator@U?$pair@$$CBHUNPFriend@@@std@@@3@$0A@@tr1@std@@@std@@QAE?AU?$pair@V?$_List_iterator@V?$_List_val@U?$pair@$$CBHUNPFriend@@@std@@V?$allocator@U?$pair@$$CBHUNPFriend@@@std@@@2@@std@@@std@@_N@1@$$QAU?$pair@$$CBHUNPFriend@@@1@@Z 10019fa0 f i PatchMW2Friends.obj
 0001:00019000       ??$_Umove@PAUUIFeeder_t@@@?$vector@UUIFeeder_t@@V?$allocator@UUIFeeder_t@@@std@@@std@@IAEPAUUIFeeder_t@@PAU2@00@Z 1001a000 f i PatchMW2Friends.obj
 0001:00019030       ??$_Destroy_range@V?$allocator@UUIFeeder_t@@@std@@@std@@YAXPAUUIFeeder_t@@0AAV?$allocator@UUIFeeder_t@@@0@@Z 1001a030 f i PatchMW2Friends.obj
 0001:00019070       ?construct@?$allocator@UAttachmentPatch@@@std@@QAEXPAUAttachmentPatch@@ABU3@@Z 1001a070 f i PatchMW2PartialWeaponry.obj
 0001:00019070       ?construct@?$allocator@UUIFeeder_t@@@std@@QAEXPAUUIFeeder_t@@ABU3@@Z 1001a070 f i PatchMW2Friends.obj
 0001:00019090       ?_Insert@?$_Hash@V?$_Umap_traits@HUNPFriend@@V?$_Hash_compare@HV?$hash@H@std@@U?$equal_to@H@2@@std@@V?$allocator@U?$pair@$$CBHUNPFriend@@@std@@@3@$0A@@tr1@std@@@std@@IAE?AU?$pair@V?$_List_iterator@V?$_List_val@U?$pair@$$CBHUNPFriend@@@std@@V?$allocator@U?$pair@$$CBHUNPFriend@@@std@@@2@@std@@@std@@_N@2@ABU?$pair@$$CBHUNPFriend@@@2@V?$_List_iterator@V?$_List_val@U?$pair@$$CBHUNPFriend@@@std@@V?$allocator@U?$pair@$$CBHUNPFriend@@@std@@@2@@std@@@2@@Z 1001a090 f i PatchMW2Friends.obj
 0001:00019220       ?_Insert_bucket@?$_Hash@V?$_Umap_traits@KKV?$_Hash_compare@KV?$hash@K@std@@U?$equal_to@K@2@@std@@V?$allocator@U?$pair@$$CBKK@std@@@2@$0A@@tr1@std@@@std@@IAEXV?$_List_iterator@V?$_List_val@U?$pair@$$CBKK@std@@V?$allocator@U?$pair@$$CBKK@std@@@2@@std@@@2@0I@Z 1001a220 f i PatchMW2FilePointers.obj
 0001:00019220       ?_Insert_bucket@?$_Hash@V?$_Umap_traits@V?$basic_string@DU?$char_traits@D@std@@V?$allocator@D@2@@std@@PAUVehicleDef@@V?$_Hash_compare@V?$basic_string@DU?$char_traits@D@std@@V?$allocator@D@2@@std@@V?$hash@V?$basic_string@DU?$char_traits@D@std@@V?$allocator@D@2@@std@@@2@U?$equal_to@V?$basic_string@DU?$char_traits@D@std@@V?$allocator@D@2@@std@@@2@@2@V?$allocator@U?$pair@$$CBV?$basic_string@DU?$char_traits@D@std@@V?$allocator@D@2@@std@@PAUVehicleDef@@@std@@@2@$0A@@tr1@std@@@std@@IAEXV?$_List_iterator@V?$_List_val@U?$pair@$$CBV?$basic_string@DU?$char_traits@D@std@@V?$allocator@D@2@@std@@PAUVehicleDef@@@std@@V?$allocator@U?$pair@$$CBV?$basic_string@DU?$char_traits@D@std@@V?$allocator@D@2@@std@@PAUVehicleDef@@@std@@@2@@std@@@2@0I@Z 1001a220 f i PatchMW2LoadVehicleDef.obj
 0001:00019220       ?_Insert_bucket@?$_Hash@V?$_Umap_traits@PAXKV?$_Hash_compare@PAXV?$hash@PAX@std@@U?$equal_to@PAX@2@@std@@V?$allocator@U?$pair@QAXK@std@@@2@$0A@@tr1@std@@@std@@IAEXV?$_List_iterator@V?$_List_val@U?$pair@QAXK@std@@V?$allocator@U?$pair@QAXK@std@@@2@@std@@@2@0I@Z 1001a220 f i PatchMW2FilePointers.obj
 0001:00019220       ?_Insert_bucket@?$_Hash@V?$_Umap_traits@KPAXV?$_Hash_compare@KV?$hash@K@std@@U?$equal_to@K@2@@std@@V?$allocator@U?$pair@$$CBKPAX@std@@@2@$0A@@tr1@std@@@std@@IAEXV?$_List_iterator@V?$_List_val@U?$pair@$$CBKPAX@std@@V?$allocator@U?$pair@$$CBKPAX@std@@@2@@std@@@2@0I@Z 1001a220 f i PatchMW2FilePointers.obj
 0001:00019220       ?_Insert_bucket@?$_Hash@V?$_Umap_traits@V?$basic_string@DU?$char_traits@D@std@@V?$allocator@D@2@@std@@P6AXH@ZV?$_Hash_compare@V?$basic_string@DU?$char_traits@D@std@@V?$allocator@D@2@@std@@V?$hash@V?$basic_string@DU?$char_traits@D@std@@V?$allocator@D@2@@std@@@2@U?$equal_to@V?$basic_string@DU?$char_traits@D@std@@V?$allocator@D@2@@std@@@2@@2@V?$allocator@U?$pair@$$CBV?$basic_string@DU?$char_traits@D@std@@V?$allocator@D@2@@std@@P6AXH@Z@std@@@2@$0A@@tr1@std@@@std@@IAEXV?$_List_iterator@V?$_List_val@U?$pair@$$CBV?$basic_string@DU?$char_traits@D@std@@V?$allocator@D@2@@std@@P6AXH@Z@std@@V?$allocator@U?$pair@$$CBV?$basic_string@DU?$char_traits@D@std@@V?$allocator@D@2@@std@@P6AXH@Z@std@@@2@@std@@@2@0I@Z 1001a220 f i GameInterface.obj
 0001:00019220       ?_Insert_bucket@?$_Hash@V?$_Umap_traits@HUNPFriend@@V?$_Hash_compare@HV?$hash@H@std@@U?$equal_to@H@2@@std@@V?$allocator@U?$pair@$$CBHUNPFriend@@@std@@@3@$0A@@tr1@std@@@std@@IAEXV?$_List_iterator@V?$_List_val@U?$pair@$$CBHUNPFriend@@@std@@V?$allocator@U?$pair@$$CBHUNPFriend@@@std@@@2@@std@@@2@0I@Z 1001a220 f i PatchMW2Friends.obj
 0001:00019220       ?_Insert_bucket@?$_Hash@V?$_Umap_traits@_KPAVCCallbackBase@@V?$_Hash_compare@_KV?$hash@_K@std@@U?$equal_to@_K@2@@std@@V?$allocator@U?$pair@$$CB_KPAVCCallbackBase@@@std@@@3@$0A@@tr1@std@@@std@@IAEXV?$_List_iterator@V?$_List_val@U?$pair@$$CB_KPAVCCallbackBase@@@std@@V?$allocator@U?$pair@$$CB_KPAVCCallbackBase@@@std@@@2@@std@@@2@0I@Z 1001a220 f i SteamBase.obj
 0001:00019220       ?_Insert_bucket@?$_Hash@V?$_Umap_traits@_K_NV?$_Hash_compare@_KV?$hash@_K@std@@U?$equal_to@_K@2@@std@@V?$allocator@U?$pair@$$CB_K_N@std@@@2@$0A@@tr1@std@@@std@@IAEXV?$_List_iterator@V?$_List_val@U?$pair@$$CB_K_N@std@@V?$allocator@U?$pair@$$CB_K_N@std@@@2@@std@@@2@0I@Z 1001a220 f i SteamBase.obj
 0001:00019220       ?_Insert_bucket@?$_Hash@V?$_Umap_traits@V?$basic_string@DU?$char_traits@D@std@@V?$allocator@D@2@@std@@_NV?$_Hash_compare@V?$basic_string@DU?$char_traits@D@std@@V?$allocator@D@2@@std@@V?$hash@V?$basic_string@DU?$char_traits@D@std@@V?$allocator@D@2@@std@@@2@U?$equal_to@V?$basic_string@DU?$char_traits@D@std@@V?$allocator@D@2@@std@@@2@@2@V?$allocator@U?$pair@$$CBV?$basic_string@DU?$char_traits@D@std@@V?$allocator@D@2@@std@@_N@std@@@2@$0A@@tr1@std@@@std@@IAEXV?$_List_iterator@V?$_List_val@U?$pair@$$CBV?$basic_string@DU?$char_traits@D@std@@V?$allocator@D@2@@std@@_N@std@@V?$allocator@U?$pair@$$CBV?$basic_string@DU?$char_traits@D@std@@V?$allocator@D@2@@std@@_N@std@@@2@@std@@@2@0I@Z 1001a220 f i PatchMW2Experiments.obj
 0001:000192f0       ?_Check_size@?$_Hash@V?$_Umap_traits@HUNPFriend@@V?$_Hash_compare@HV?$hash@H@std@@U?$equal_to@H@2@@std@@V?$allocator@U?$pair@$$CBHUNPFriend@@@std@@@3@$0A@@tr1@std@@@std@@IAEXXZ 1001a2f0 f i PatchMW2Friends.obj
 0001:00019390       ?assign@?$vector@V?$_List_iterator@V?$_List_val@U?$pair@$$CBHUNPFriend@@@std@@V?$allocator@U?$pair@$$CBHUNPFriend@@@std@@@2@@std@@@std@@V?$allocator@V?$_List_iterator@V?$_List_val@U?$pair@$$CBHUNPFriend@@@std@@V?$allocator@U?$pair@$$CBHUNPFriend@@@std@@@2@@std@@@std@@@2@@std@@QAEXIABV?$_List_iterator@V?$_List_val@U?$pair@$$CBHUNPFriend@@@std@@V?$allocator@U?$pair@$$CBHUNPFriend@@@std@@@2@@std@@@2@@Z 1001a390 f i PatchMW2Friends.obj
 0001:00019390       ?assign@?$vector@V?$_List_iterator@V?$_List_val@U?$pair@$$CB_K_N@std@@V?$allocator@U?$pair@$$CB_K_N@std@@@2@@std@@@std@@V?$allocator@V?$_List_iterator@V?$_List_val@U?$pair@$$CB_K_N@std@@V?$allocator@U?$pair@$$CB_K_N@std@@@2@@std@@@std@@@2@@std@@QAEXIABV?$_List_iterator@V?$_List_val@U?$pair@$$CB_K_N@std@@V?$allocator@U?$pair@$$CB_K_N@std@@@2@@std@@@2@@Z 1001a390 f i SteamBase.obj
 0001:00019390       ?assign@?$vector@V?$_List_iterator@V?$_List_val@U?$pair@QAXK@std@@V?$allocator@U?$pair@QAXK@std@@@2@@std@@@std@@V?$allocator@V?$_List_iterator@V?$_List_val@U?$pair@QAXK@std@@V?$allocator@U?$pair@QAXK@std@@@2@@std@@@std@@@2@@std@@QAEXIABV?$_List_iterator@V?$_List_val@U?$pair@QAXK@std@@V?$allocator@U?$pair@QAXK@std@@@2@@std@@@2@@Z 1001a390 f i PatchMW2FilePointers.obj
 0001:00019390       ?assign@?$vector@V?$_List_iterator@V?$_List_val@U?$pair@$$CBKPAX@std@@V?$allocator@U?$pair@$$CBKPAX@std@@@2@@std@@@std@@V?$allocator@V?$_List_iterator@V?$_List_val@U?$pair@$$CBKPAX@std@@V?$allocator@U?$pair@$$CBKPAX@std@@@2@@std@@@std@@@2@@std@@QAEXIABV?$_List_iterator@V?$_List_val@U?$pair@$$CBKPAX@std@@V?$allocator@U?$pair@$$CBKPAX@std@@@2@@std@@@2@@Z 1001a390 f i PatchMW2FilePointers.obj
 0001:00019390       ?assign@?$vector@V?$_List_iterator@V?$_List_val@U?$pair@$$CBKK@std@@V?$allocator@U?$pair@$$CBKK@std@@@2@@std@@@std@@V?$allocator@V?$_List_iterator@V?$_List_val@U?$pair@$$CBKK@std@@V?$allocator@U?$pair@$$CBKK@std@@@2@@std@@@std@@@2@@std@@QAEXIABV?$_List_iterator@V?$_List_val@U?$pair@$$CBKK@std@@V?$allocator@U?$pair@$$CBKK@std@@@2@@std@@@2@@Z 1001a390 f i PatchMW2FilePointers.obj
 0001:00019390       ?assign@?$vector@V?$_List_iterator@V?$_List_val@U?$pair@$$CBV?$basic_string@DU?$char_traits@D@std@@V?$allocator@D@2@@std@@PAUVehicleDef@@@std@@V?$allocator@U?$pair@$$CBV?$basic_string@DU?$char_traits@D@std@@V?$allocator@D@2@@std@@PAUVehicleDef@@@std@@@2@@std@@@std@@V?$allocator@V?$_List_iterator@V?$_List_val@U?$pair@$$CBV?$basic_string@DU?$char_traits@D@std@@V?$allocator@D@2@@std@@PAUVehicleDef@@@std@@V?$allocator@U?$pair@$$CBV?$basic_string@DU?$char_traits@D@std@@V?$allocator@D@2@@std@@PAUVehicleDef@@@std@@@2@@std@@@std@@@2@@std@@QAEXIABV?$_List_iterator@V?$_List_val@U?$pair@$$CBV?$basic_string@DU?$char_traits@D@std@@V?$allocator@D@2@@std@@PAUVehicleDef@@@std@@V?$allocator@U?$pair@$$CBV?$basic_string@DU?$char_traits@D@std@@V?$allocator@D@2@@std@@PAUVehicleDef@@@std@@@2@@std@@@2@@Z 1001a390 f i PatchMW2LoadVehicleDef.obj
 0001:00019390       ?assign@?$vector@V?$_List_iterator@V?$_List_val@U?$pair@$$CBK_N@std@@V?$allocator@U?$pair@$$CBK_N@std@@@2@@std@@@std@@V?$allocator@V?$_List_iterator@V?$_List_val@U?$pair@$$CBK_N@std@@V?$allocator@U?$pair@$$CBK_N@std@@@2@@std@@@std@@@2@@std@@QAEXIABV?$_List_iterator@V?$_List_val@U?$pair@$$CBK_N@std@@V?$allocator@U?$pair@$$CBK_N@std@@@2@@std@@@2@@Z 1001a390 f i PatchMW2AssetRestrict.obj
 0001:00019390       ?assign@?$vector@V?$_List_iterator@V?$_List_val@U?$pair@$$CB_KPAVCCallbackBase@@@std@@V?$allocator@U?$pair@$$CB_KPAVCCallbackBase@@@std@@@2@@std@@@std@@V?$allocator@V?$_List_iterator@V?$_List_val@U?$pair@$$CB_KPAVCCallbackBase@@@std@@V?$allocator@U?$pair@$$CB_KPAVCCallbackBase@@@std@@@2@@std@@@std@@@2@@std@@QAEXIABV?$_List_iterator@V?$_List_val@U?$pair@$$CB_KPAVCCallbackBase@@@std@@V?$allocator@U?$pair@$$CB_KPAVCCallbackBase@@@std@@@2@@std@@@2@@Z 1001a390 f i SteamBase.obj
 0001:00019390       ?assign@?$vector@V?$_List_iterator@V?$_List_val@U?$pair@$$CBV?$basic_string@DU?$char_traits@D@std@@V?$allocator@D@2@@std@@_N@std@@V?$allocator@U?$pair@$$CBV?$basic_string@DU?$char_traits@D@std@@V?$allocator@D@2@@std@@_N@std@@@2@@std@@@std@@V?$allocator@V?$_List_iterator@V?$_List_val@U?$pair@$$CBV?$basic_string@DU?$char_traits@D@std@@V?$allocator@D@2@@std@@_N@std@@V?$allocator@U?$pair@$$CBV?$basic_string@DU?$char_traits@D@std@@V?$allocator@D@2@@std@@_N@std@@@2@@std@@@std@@@2@@std@@QAEXIABV?$_List_iterator@V?$_List_val@U?$pair@$$CBV?$basic_string@DU?$char_traits@D@std@@V?$allocator@D@2@@std@@_N@std@@V?$allocator@U?$pair@$$CBV?$basic_string@DU?$char_traits@D@std@@V?$allocator@D@2@@std@@_N@std@@@2@@std@@@2@@Z 1001a390 f i PatchMW2Experiments.obj
 0001:000193b0       ?_Assign_n@?$vector@V?$_List_iterator@V?$_List_val@U?$pair@$$CBV?$basic_string@DU?$char_traits@D@std@@V?$allocator@D@2@@std@@_N@std@@V?$allocator@U?$pair@$$CBV?$basic_string@DU?$char_traits@D@std@@V?$allocator@D@2@@std@@_N@std@@@2@@std@@@std@@V?$allocator@V?$_List_iterator@V?$_List_val@U?$pair@$$CBV?$basic_string@DU?$char_traits@D@std@@V?$allocator@D@2@@std@@_N@std@@V?$allocator@U?$pair@$$CBV?$basic_string@DU?$char_traits@D@std@@V?$allocator@D@2@@std@@_N@std@@@2@@std@@@std@@@2@@std@@IAEXIABV?$_List_iterator@V?$_List_val@U?$pair@$$CBV?$basic_string@DU?$char_traits@D@std@@V?$allocator@D@2@@std@@_N@std@@V?$allocator@U?$pair@$$CBV?$basic_string@DU?$char_traits@D@std@@V?$allocator@D@2@@std@@_N@std@@@2@@std@@@2@@Z 1001a3b0 f i PatchMW2Experiments.obj
 0001:000193b0       ?_Assign_n@?$vector@V?$_List_iterator@V?$_List_val@U?$pair@$$CBK_N@std@@V?$allocator@U?$pair@$$CBK_N@std@@@2@@std@@@std@@V?$allocator@V?$_List_iterator@V?$_List_val@U?$pair@$$CBK_N@std@@V?$allocator@U?$pair@$$CBK_N@std@@@2@@std@@@std@@@2@@std@@IAEXIABV?$_List_iterator@V?$_List_val@U?$pair@$$CBK_N@std@@V?$allocator@U?$pair@$$CBK_N@std@@@2@@std@@@2@@Z 1001a3b0 f i PatchMW2AssetRestrict.obj
 0001:000193b0       ?_Assign_n@?$vector@V?$_List_iterator@V?$_List_val@U?$pair@$$CBV?$basic_string@DU?$char_traits@D@std@@V?$allocator@D@2@@std@@PAUVehicleDef@@@std@@V?$allocator@U?$pair@$$CBV?$basic_string@DU?$char_traits@D@std@@V?$allocator@D@2@@std@@PAUVehicleDef@@@std@@@2@@std@@@std@@V?$allocator@V?$_List_iterator@V?$_List_val@U?$pair@$$CBV?$basic_string@DU?$char_traits@D@std@@V?$allocator@D@2@@std@@PAUVehicleDef@@@std@@V?$allocator@U?$pair@$$CBV?$basic_string@DU?$char_traits@D@std@@V?$allocator@D@2@@std@@PAUVehicleDef@@@std@@@2@@std@@@std@@@2@@std@@IAEXIABV?$_List_iterator@V?$_List_val@U?$pair@$$CBV?$basic_string@DU?$char_traits@D@std@@V?$allocator@D@2@@std@@PAUVehicleDef@@@std@@V?$allocator@U?$pair@$$CBV?$basic_string@DU?$char_traits@D@std@@V?$allocator@D@2@@std@@PAUVehicleDef@@@std@@@2@@std@@@2@@Z 1001a3b0 f i PatchMW2LoadVehicleDef.obj
 0001:000193b0       ?_Assign_n@?$vector@V?$_List_iterator@V?$_List_val@U?$pair@$$CBKPAX@std@@V?$allocator@U?$pair@$$CBKPAX@std@@@2@@std@@@std@@V?$allocator@V?$_List_iterator@V?$_List_val@U?$pair@$$CBKPAX@std@@V?$allocator@U?$pair@$$CBKPAX@std@@@2@@std@@@std@@@2@@std@@IAEXIABV?$_List_iterator@V?$_List_val@U?$pair@$$CBKPAX@std@@V?$allocator@U?$pair@$$CBKPAX@std@@@2@@std@@@2@@Z 1001a3b0 f i PatchMW2FilePointers.obj
 0001:000193b0       ?_Assign_n@?$vector@V?$_List_iterator@V?$_List_val@U?$pair@$$CB_KPAVCCallbackBase@@@std@@V?$allocator@U?$pair@$$CB_KPAVCCallbackBase@@@std@@@2@@std@@@std@@V?$allocator@V?$_List_iterator@V?$_List_val@U?$pair@$$CB_KPAVCCallbackBase@@@std@@V?$allocator@U?$pair@$$CB_KPAVCCallbackBase@@@std@@@2@@std@@@std@@@2@@std@@IAEXIABV?$_List_iterator@V?$_List_val@U?$pair@$$CB_KPAVCCallbackBase@@@std@@V?$allocator@U?$pair@$$CB_KPAVCCallbackBase@@@std@@@2@@std@@@2@@Z 1001a3b0 f i SteamBase.obj
 0001:000193b0       ?_Assign_n@?$vector@V?$_List_iterator@V?$_List_val@U?$pair@$$CBKK@std@@V?$allocator@U?$pair@$$CBKK@std@@@2@@std@@@std@@V?$allocator@V?$_List_iterator@V?$_List_val@U?$pair@$$CBKK@std@@V?$allocator@U?$pair@$$CBKK@std@@@2@@std@@@std@@@2@@std@@IAEXIABV?$_List_iterator@V?$_List_val@U?$pair@$$CBKK@std@@V?$allocator@U?$pair@$$CBKK@std@@@2@@std@@@2@@Z 1001a3b0 f i PatchMW2FilePointers.obj
 0001:000193b0       ?_Assign_n@?$vector@V?$_List_iterator@V?$_List_val@U?$pair@QAXK@std@@V?$allocator@U?$pair@QAXK@std@@@2@@std@@@std@@V?$allocator@V?$_List_iterator@V?$_List_val@U?$pair@QAXK@std@@V?$allocator@U?$pair@QAXK@std@@@2@@std@@@std@@@2@@std@@IAEXIABV?$_List_iterator@V?$_List_val@U?$pair@QAXK@std@@V?$allocator@U?$pair@QAXK@std@@@2@@std@@@2@@Z 1001a3b0 f i PatchMW2FilePointers.obj
 0001:000193b0       ?_Assign_n@?$vector@V?$_List_iterator@V?$_List_val@U?$pair@$$CB_K_N@std@@V?$allocator@U?$pair@$$CB_K_N@std@@@2@@std@@@std@@V?$allocator@V?$_List_iterator@V?$_List_val@U?$pair@$$CB_K_N@std@@V?$allocator@U?$pair@$$CB_K_N@std@@@2@@std@@@std@@@2@@std@@IAEXIABV?$_List_iterator@V?$_List_val@U?$pair@$$CB_K_N@std@@V?$allocator@U?$pair@$$CB_K_N@std@@@2@@std@@@2@@Z 1001a3b0 f i SteamBase.obj
 0001:000193b0       ?_Assign_n@?$vector@V?$_List_iterator@V?$_List_val@U?$pair@$$CBHUNPFriend@@@std@@V?$allocator@U?$pair@$$CBHUNPFriend@@@std@@@2@@std@@@std@@V?$allocator@V?$_List_iterator@V?$_List_val@U?$pair@$$CBHUNPFriend@@@std@@V?$allocator@U?$pair@$$CBHUNPFriend@@@std@@@2@@std@@@std@@@2@@std@@IAEXIABV?$_List_iterator@V?$_List_val@U?$pair@$$CBHUNPFriend@@@std@@V?$allocator@U?$pair@$$CBHUNPFriend@@@std@@@2@@std@@@2@@Z 1001a3b0 f i PatchMW2Friends.obj
 0001:00019430       ?insert@?$vector@V?$_List_iterator@V?$_List_val@U?$pair@$$CBHUNPFriend@@@std@@V?$allocator@U?$pair@$$CBHUNPFriend@@@std@@@2@@std@@@std@@V?$allocator@V?$_List_iterator@V?$_List_val@U?$pair@$$CBHUNPFriend@@@std@@V?$allocator@U?$pair@$$CBHUNPFriend@@@std@@@2@@std@@@std@@@2@@std@@QAEXV?$_Vector_const_iterator@V?$_Vector_val@V?$_List_iterator@V?$_List_val@U?$pair@$$CBHUNPFriend@@@std@@V?$allocator@U?$pair@$$CBHUNPFriend@@@std@@@2@@std@@@std@@V?$allocator@V?$_List_iterator@V?$_List_val@U?$pair@$$CBHUNPFriend@@@std@@V?$allocator@U?$pair@$$CBHUNPFriend@@@std@@@2@@std@@@std@@@2@@std@@@2@IABV?$_List_iterator@V?$_List_val@U?$pair@$$CBHUNPFriend@@@std@@V?$allocator@U?$pair@$$CBHUNPFriend@@@std@@@2@@std@@@2@@Z 1001a430 f i PatchMW2Friends.obj
 0001:00019430       ?insert@?$vector@V?$_List_iterator@V?$_List_val@U?$pair@$$CBKPAX@std@@V?$allocator@U?$pair@$$CBKPAX@std@@@2@@std@@@std@@V?$allocator@V?$_List_iterator@V?$_List_val@U?$pair@$$CBKPAX@std@@V?$allocator@U?$pair@$$CBKPAX@std@@@2@@std@@@std@@@2@@std@@QAEXV?$_Vector_const_iterator@V?$_Vector_val@V?$_List_iterator@V?$_List_val@U?$pair@$$CBKPAX@std@@V?$allocator@U?$pair@$$CBKPAX@std@@@2@@std@@@std@@V?$allocator@V?$_List_iterator@V?$_List_val@U?$pair@$$CBKPAX@std@@V?$allocator@U?$pair@$$CBKPAX@std@@@2@@std@@@std@@@2@@std@@@2@IABV?$_List_iterator@V?$_List_val@U?$pair@$$CBKPAX@std@@V?$allocator@U?$pair@$$CBKPAX@std@@@2@@std@@@2@@Z 1001a430 f i PatchMW2FilePointers.obj
 0001:00019430       ?insert@?$vector@V?$_List_iterator@V?$_List_val@U?$pair@$$CBK_N@std@@V?$allocator@U?$pair@$$CBK_N@std@@@2@@std@@@std@@V?$allocator@V?$_List_iterator@V?$_List_val@U?$pair@$$CBK_N@std@@V?$allocator@U?$pair@$$CBK_N@std@@@2@@std@@@std@@@2@@std@@QAEXV?$_Vector_const_iterator@V?$_Vector_val@V?$_List_iterator@V?$_List_val@U?$pair@$$CBK_N@std@@V?$allocator@U?$pair@$$CBK_N@std@@@2@@std@@@std@@V?$allocator@V?$_List_iterator@V?$_List_val@U?$pair@$$CBK_N@std@@V?$allocator@U?$pair@$$CBK_N@std@@@2@@std@@@std@@@2@@std@@@2@IABV?$_List_iterator@V?$_List_val@U?$pair@$$CBK_N@std@@V?$allocator@U?$pair@$$CBK_N@std@@@2@@std@@@2@@Z 1001a430 f i PatchMW2AssetRestrict.obj
 0001:00019430       ?insert@?$vector@V?$_List_iterator@V?$_List_val@U?$pair@$$CB_K_N@std@@V?$allocator@U?$pair@$$CB_K_N@std@@@2@@std@@@std@@V?$allocator@V?$_List_iterator@V?$_List_val@U?$pair@$$CB_K_N@std@@V?$allocator@U?$pair@$$CB_K_N@std@@@2@@std@@@std@@@2@@std@@QAEXV?$_Vector_const_iterator@V?$_Vector_val@V?$_List_iterator@V?$_List_val@U?$pair@$$CB_K_N@std@@V?$allocator@U?$pair@$$CB_K_N@std@@@2@@std@@@std@@V?$allocator@V?$_List_iterator@V?$_List_val@U?$pair@$$CB_K_N@std@@V?$allocator@U?$pair@$$CB_K_N@std@@@2@@std@@@std@@@2@@std@@@2@IABV?$_List_iterator@V?$_List_val@U?$pair@$$CB_K_N@std@@V?$allocator@U?$pair@$$CB_K_N@std@@@2@@std@@@2@@Z 1001a430 f i SteamBase.obj
 0001:00019430       ?insert@?$vector@V?$_List_iterator@V?$_List_val@U?$pair@$$CBV?$basic_string@DU?$char_traits@D@std@@V?$allocator@D@2@@std@@PAUVehicleDef@@@std@@V?$allocator@U?$pair@$$CBV?$basic_string@DU?$char_traits@D@std@@V?$allocator@D@2@@std@@PAUVehicleDef@@@std@@@2@@std@@@std@@V?$allocator@V?$_List_iterator@V?$_List_val@U?$pair@$$CBV?$basic_string@DU?$char_traits@D@std@@V?$allocator@D@2@@std@@PAUVehicleDef@@@std@@V?$allocator@U?$pair@$$CBV?$basic_string@DU?$char_traits@D@std@@V?$allocator@D@2@@std@@PAUVehicleDef@@@std@@@2@@std@@@std@@@2@@std@@QAEXV?$_Vector_const_iterator@V?$_Vector_val@V?$_List_iterator@V?$_List_val@U?$pair@$$CBV?$basic_string@DU?$char_traits@D@std@@V?$allocator@D@2@@std@@PAUVehicleDef@@@std@@V?$allocator@U?$pair@$$CBV?$basic_string@DU?$char_traits@D@std@@V?$allocator@D@2@@std@@PAUVehicleDef@@@std@@@2@@std@@@std@@V?$allocator@V?$_List_iterator@V?$_List_val@U?$pair@$$CBV?$basic_string@DU?$char_traits@D@std@@V?$allocator@D@2@@std@@PAUVehicleDef@@@std@@V?$allocator@U?$pair@$$CBV?$basic_string@DU?$char_traits@D@std@@V?$allocator@D@2@@std@@PAUVehicleDef@@@std@@@2@@std@@@std@@@2@@std@@@2@IABV?$_List_iterator@V?$_List_val@U?$pair@$$CBV?$basic_string@DU?$char_traits@D@std@@V?$allocator@D@2@@std@@PAUVehicleDef@@@std@@V?$allocator@U?$pair@$$CBV?$basic_string@DU?$char_traits@D@std@@V?$allocator@D@2@@std@@PAUVehicleDef@@@std@@@2@@std@@@2@@Z 1001a430 f i PatchMW2LoadVehicleDef.obj
 0001:00019430       ?insert@?$vector@V?$_List_iterator@V?$_List_val@U?$pair@$$CBKK@std@@V?$allocator@U?$pair@$$CBKK@std@@@2@@std@@@std@@V?$allocator@V?$_List_iterator@V?$_List_val@U?$pair@$$CBKK@std@@V?$allocator@U?$pair@$$CBKK@std@@@2@@std@@@std@@@2@@std@@QAEXV?$_Vector_const_iterator@V?$_Vector_val@V?$_List_iterator@V?$_List_val@U?$pair@$$CBKK@std@@V?$allocator@U?$pair@$$CBKK@std@@@2@@std@@@std@@V?$allocator@V?$_List_iterator@V?$_List_val@U?$pair@$$CBKK@std@@V?$allocator@U?$pair@$$CBKK@std@@@2@@std@@@std@@@2@@std@@@2@IABV?$_List_iterator@V?$_List_val@U?$pair@$$CBKK@std@@V?$allocator@U?$pair@$$CBKK@std@@@2@@std@@@2@@Z 1001a430 f i PatchMW2FilePointers.obj
 0001:00019430       ?insert@?$vector@V?$_List_iterator@V?$_List_val@U?$pair@QAXK@std@@V?$allocator@U?$pair@QAXK@std@@@2@@std@@@std@@V?$allocator@V?$_List_iterator@V?$_List_val@U?$pair@QAXK@std@@V?$allocator@U?$pair@QAXK@std@@@2@@std@@@std@@@2@@std@@QAEXV?$_Vector_const_iterator@V?$_Vector_val@V?$_List_iterator@V?$_List_val@U?$pair@QAXK@std@@V?$allocator@U?$pair@QAXK@std@@@2@@std@@@std@@V?$allocator@V?$_List_iterator@V?$_List_val@U?$pair@QAXK@std@@V?$allocator@U?$pair@QAXK@std@@@2@@std@@@std@@@2@@std@@@2@IABV?$_List_iterator@V?$_List_val@U?$pair@QAXK@std@@V?$allocator@U?$pair@QAXK@std@@@2@@std@@@2@@Z 1001a430 f i PatchMW2FilePointers.obj
 0001:00019430       ?insert@?$vector@V?$_List_iterator@V?$_List_val@U?$pair@$$CB_KPAVCCallbackBase@@@std@@V?$allocator@U?$pair@$$CB_KPAVCCallbackBase@@@std@@@2@@std@@@std@@V?$allocator@V?$_List_iterator@V?$_List_val@U?$pair@$$CB_KPAVCCallbackBase@@@std@@V?$allocator@U?$pair@$$CB_KPAVCCallbackBase@@@std@@@2@@std@@@std@@@2@@std@@QAEXV?$_Vector_const_iterator@V?$_Vector_val@V?$_List_iterator@V?$_List_val@U?$pair@$$CB_KPAVCCallbackBase@@@std@@V?$allocator@U?$pair@$$CB_KPAVCCallbackBase@@@std@@@2@@std@@@std@@V?$allocator@V?$_List_iterator@V?$_List_val@U?$pair@$$CB_KPAVCCallbackBase@@@std@@V?$allocator@U?$pair@$$CB_KPAVCCallbackBase@@@std@@@2@@std@@@std@@@2@@std@@@2@IABV?$_List_iterator@V?$_List_val@U?$pair@$$CB_KPAVCCallbackBase@@@std@@V?$allocator@U?$pair@$$CB_KPAVCCallbackBase@@@std@@@2@@std@@@2@@Z 1001a430 f i SteamBase.obj
 0001:00019430       ?insert@?$vector@V?$_List_iterator@V?$_List_val@U?$pair@$$CBV?$basic_string@DU?$char_traits@D@std@@V?$allocator@D@2@@std@@_N@std@@V?$allocator@U?$pair@$$CBV?$basic_string@DU?$char_traits@D@std@@V?$allocator@D@2@@std@@_N@std@@@2@@std@@@std@@V?$allocator@V?$_List_iterator@V?$_List_val@U?$pair@$$CBV?$basic_string@DU?$char_traits@D@std@@V?$allocator@D@2@@std@@_N@std@@V?$allocator@U?$pair@$$CBV?$basic_string@DU?$char_traits@D@std@@V?$allocator@D@2@@std@@_N@std@@@2@@std@@@std@@@2@@std@@QAEXV?$_Vector_const_iterator@V?$_Vector_val@V?$_List_iterator@V?$_List_val@U?$pair@$$CBV?$basic_string@DU?$char_traits@D@std@@V?$allocator@D@2@@std@@_N@std@@V?$allocator@U?$pair@$$CBV?$basic_string@DU?$char_traits@D@std@@V?$allocator@D@2@@std@@_N@std@@@2@@std@@@std@@V?$allocator@V?$_List_iterator@V?$_List_val@U?$pair@$$CBV?$basic_string@DU?$char_traits@D@std@@V?$allocator@D@2@@std@@_N@std@@V?$allocator@U?$pair@$$CBV?$basic_string@DU?$char_traits@D@std@@V?$allocator@D@2@@std@@_N@std@@@2@@std@@@std@@@2@@std@@@2@IABV?$_List_iterator@V?$_List_val@U?$pair@$$CBV?$basic_string@DU?$char_traits@D@std@@V?$allocator@D@2@@std@@_N@std@@V?$allocator@U?$pair@$$CBV?$basic_string@DU?$char_traits@D@std@@V?$allocator@D@2@@std@@_N@std@@@2@@std@@@2@@Z 1001a430 f i PatchMW2Experiments.obj
 0001:00019460       ?_Destroy@?$vector@V?$_List_iterator@V?$_List_val@U?$pair@$$CBK_N@std@@V?$allocator@U?$pair@$$CBK_N@std@@@2@@std@@@std@@V?$allocator@V?$_List_iterator@V?$_List_val@U?$pair@$$CBK_N@std@@V?$allocator@U?$pair@$$CBK_N@std@@@2@@std@@@std@@@2@@std@@IAEXPAV?$_List_iterator@V?$_List_val@U?$pair@$$CBK_N@std@@V?$allocator@U?$pair@$$CBK_N@std@@@2@@std@@@2@0@Z 1001a460 f i PatchMW2AssetRestrict.obj
 0001:00019460       ?_Destroy@?$vector@V?$_List_iterator@V?$_List_val@U?$pair@$$CBV?$basic_string@DU?$char_traits@D@std@@V?$allocator@D@2@@std@@PAUVehicleDef@@@std@@V?$allocator@U?$pair@$$CBV?$basic_string@DU?$char_traits@D@std@@V?$allocator@D@2@@std@@PAUVehicleDef@@@std@@@2@@std@@@std@@V?$allocator@V?$_List_iterator@V?$_List_val@U?$pair@$$CBV?$basic_string@DU?$char_traits@D@std@@V?$allocator@D@2@@std@@PAUVehicleDef@@@std@@V?$allocator@U?$pair@$$CBV?$basic_string@DU?$char_traits@D@std@@V?$allocator@D@2@@std@@PAUVehicleDef@@@std@@@2@@std@@@std@@@2@@std@@IAEXPAV?$_List_iterator@V?$_List_val@U?$pair@$$CBV?$basic_string@DU?$char_traits@D@std@@V?$allocator@D@2@@std@@PAUVehicleDef@@@std@@V?$allocator@U?$pair@$$CBV?$basic_string@DU?$char_traits@D@std@@V?$allocator@D@2@@std@@PAUVehicleDef@@@std@@@2@@std@@@2@0@Z 1001a460 f i PatchMW2LoadVehicleDef.obj
 0001:00019460       ?_Destroy@?$vector@V?$_List_iterator@V?$_List_val@U?$pair@$$CBKK@std@@V?$allocator@U?$pair@$$CBKK@std@@@2@@std@@@std@@V?$allocator@V?$_List_iterator@V?$_List_val@U?$pair@$$CBKK@std@@V?$allocator@U?$pair@$$CBKK@std@@@2@@std@@@std@@@2@@std@@IAEXPAV?$_List_iterator@V?$_List_val@U?$pair@$$CBKK@std@@V?$allocator@U?$pair@$$CBKK@std@@@2@@std@@@2@0@Z 1001a460 f i PatchMW2FilePointers.obj
 0001:00019460       ?_Destroy@?$vector@V?$_List_iterator@V?$_List_val@U?$pair@$$CBHUNPFriend@@@std@@V?$allocator@U?$pair@$$CBHUNPFriend@@@std@@@2@@std@@@std@@V?$allocator@V?$_List_iterator@V?$_List_val@U?$pair@$$CBHUNPFriend@@@std@@V?$allocator@U?$pair@$$CBHUNPFriend@@@std@@@2@@std@@@std@@@2@@std@@IAEXPAV?$_List_iterator@V?$_List_val@U?$pair@$$CBHUNPFriend@@@std@@V?$allocator@U?$pair@$$CBHUNPFriend@@@std@@@2@@std@@@2@0@Z 1001a460 f i PatchMW2Friends.obj
 0001:00019460       ?_Destroy@?$vector@V?$_List_iterator@V?$_List_val@U?$pair@$$CB_KPAVCCallbackBase@@@std@@V?$allocator@U?$pair@$$CB_KPAVCCallbackBase@@@std@@@2@@std@@@std@@V?$allocator@V?$_List_iterator@V?$_List_val@U?$pair@$$CB_KPAVCCallbackBase@@@std@@V?$allocator@U?$pair@$$CB_KPAVCCallbackBase@@@std@@@2@@std@@@std@@@2@@std@@IAEXPAV?$_List_iterator@V?$_List_val@U?$pair@$$CB_KPAVCCallbackBase@@@std@@V?$allocator@U?$pair@$$CB_KPAVCCallbackBase@@@std@@@2@@std@@@2@0@Z 1001a460 f i SteamBase.obj
 0001:00019460       ?_Destroy@?$vector@V?$_List_iterator@V?$_List_val@U?$pair@$$CBV?$basic_string@DU?$char_traits@D@std@@V?$allocator@D@2@@std@@_N@std@@V?$allocator@U?$pair@$$CBV?$basic_string@DU?$char_traits@D@std@@V?$allocator@D@2@@std@@_N@std@@@2@@std@@@std@@V?$allocator@V?$_List_iterator@V?$_List_val@U?$pair@$$CBV?$basic_string@DU?$char_traits@D@std@@V?$allocator@D@2@@std@@_N@std@@V?$allocator@U?$pair@$$CBV?$basic_string@DU?$char_traits@D@std@@V?$allocator@D@2@@std@@_N@std@@@2@@std@@@std@@@2@@std@@IAEXPAV?$_List_iterator@V?$_List_val@U?$pair@$$CBV?$basic_string@DU?$char_traits@D@std@@V?$allocator@D@2@@std@@_N@std@@V?$allocator@U?$pair@$$CBV?$basic_string@DU?$char_traits@D@std@@V?$allocator@D@2@@std@@_N@std@@@2@@std@@@2@0@Z 1001a460 f i PatchMW2Experiments.obj
 0001:00019460       ?_Destroy@?$vector@V?$_List_iterator@V?$_List_val@U?$pair@QAXK@std@@V?$allocator@U?$pair@QAXK@std@@@2@@std@@@std@@V?$allocator@V?$_List_iterator@V?$_List_val@U?$pair@QAXK@std@@V?$allocator@U?$pair@QAXK@std@@@2@@std@@@std@@@2@@std@@IAEXPAV?$_List_iterator@V?$_List_val@U?$pair@QAXK@std@@V?$allocator@U?$pair@QAXK@std@@@2@@std@@@2@0@Z 1001a460 f i PatchMW2FilePointers.obj
 0001:00019460       ?_Destroy@?$vector@V?$_List_iterator@V?$_List_val@U?$pair@$$CB_K_N@std@@V?$allocator@U?$pair@$$CB_K_N@std@@@2@@std@@@std@@V?$allocator@V?$_List_iterator@V?$_List_val@U?$pair@$$CB_K_N@std@@V?$allocator@U?$pair@$$CB_K_N@std@@@2@@std@@@std@@@2@@std@@IAEXPAV?$_List_iterator@V?$_List_val@U?$pair@$$CB_K_N@std@@V?$allocator@U?$pair@$$CB_K_N@std@@@2@@std@@@2@0@Z 1001a460 f i SteamBase.obj
 0001:00019460       ?_Destroy@?$vector@V?$_List_iterator@V?$_List_val@U?$pair@$$CBKPAX@std@@V?$allocator@U?$pair@$$CBKPAX@std@@@2@@std@@@std@@V?$allocator@V?$_List_iterator@V?$_List_val@U?$pair@$$CBKPAX@std@@V?$allocator@U?$pair@$$CBKPAX@std@@@2@@std@@@std@@@2@@std@@IAEXPAV?$_List_iterator@V?$_List_val@U?$pair@$$CBKPAX@std@@V?$allocator@U?$pair@$$CBKPAX@std@@@2@@std@@@2@0@Z 1001a460 f i PatchMW2FilePointers.obj
 0001:00019460       ?_Destroy@?$vector@V?$_List_iterator@V?$_List_val@U?$pair@$$CBV?$basic_string@DU?$char_traits@D@std@@V?$allocator@D@2@@std@@P6AXH@Z@std@@V?$allocator@U?$pair@$$CBV?$basic_string@DU?$char_traits@D@std@@V?$allocator@D@2@@std@@P6AXH@Z@std@@@2@@std@@@std@@V?$allocator@V?$_List_iterator@V?$_List_val@U?$pair@$$CBV?$basic_string@DU?$char_traits@D@std@@V?$allocator@D@2@@std@@P6AXH@Z@std@@V?$allocator@U?$pair@$$CBV?$basic_string@DU?$char_traits@D@std@@V?$allocator@D@2@@std@@P6AXH@Z@std@@@2@@std@@@std@@@2@@std@@IAEXPAV?$_List_iterator@V?$_List_val@U?$pair@$$CBV?$basic_string@DU?$char_traits@D@std@@V?$allocator@D@2@@std@@P6AXH@Z@std@@V?$allocator@U?$pair@$$CBV?$basic_string@DU?$char_traits@D@std@@V?$allocator@D@2@@std@@P6AXH@Z@std@@@2@@std@@@2@0@Z 1001a460 f i GameInterface.obj
 0001:00019490       ?_Insert_n@?$vector@V?$_List_iterator@V?$_List_val@U?$pair@$$CBK_N@std@@V?$allocator@U?$pair@$$CBK_N@std@@@2@@std@@@std@@V?$allocator@V?$_List_iterator@V?$_List_val@U?$pair@$$CBK_N@std@@V?$allocator@U?$pair@$$CBK_N@std@@@2@@std@@@std@@@2@@std@@IAEXV?$_Vector_const_iterator@V?$_Vector_val@V?$_List_iterator@V?$_List_val@U?$pair@$$CBK_N@std@@V?$allocator@U?$pair@$$CBK_N@std@@@2@@std@@@std@@V?$allocator@V?$_List_iterator@V?$_List_val@U?$pair@$$CBK_N@std@@V?$allocator@U?$pair@$$CBK_N@std@@@2@@std@@@std@@@2@@std@@@2@IABV?$_List_iterator@V?$_List_val@U?$pair@$$CBK_N@std@@V?$allocator@U?$pair@$$CBK_N@std@@@2@@std@@@2@@Z 1001a490 f i PatchMW2AssetRestrict.obj
 0001:00019490       ?_Insert_n@?$vector@V?$_List_iterator@V?$_List_val@U?$pair@$$CBV?$basic_string@DU?$char_traits@D@std@@V?$allocator@D@2@@std@@_N@std@@V?$allocator@U?$pair@$$CBV?$basic_string@DU?$char_traits@D@std@@V?$allocator@D@2@@std@@_N@std@@@2@@std@@@std@@V?$allocator@V?$_List_iterator@V?$_List_val@U?$pair@$$CBV?$basic_string@DU?$char_traits@D@std@@V?$allocator@D@2@@std@@_N@std@@V?$allocator@U?$pair@$$CBV?$basic_string@DU?$char_traits@D@std@@V?$allocator@D@2@@std@@_N@std@@@2@@std@@@std@@@2@@std@@IAEXV?$_Vector_const_iterator@V?$_Vector_val@V?$_List_iterator@V?$_List_val@U?$pair@$$CBV?$basic_string@DU?$char_traits@D@std@@V?$allocator@D@2@@std@@_N@std@@V?$allocator@U?$pair@$$CBV?$basic_string@DU?$char_traits@D@std@@V?$allocator@D@2@@std@@_N@std@@@2@@std@@@std@@V?$allocator@V?$_List_iterator@V?$_List_val@U?$pair@$$CBV?$basic_string@DU?$char_traits@D@std@@V?$allocator@D@2@@std@@_N@std@@V?$allocator@U?$pair@$$CBV?$basic_string@DU?$char_traits@D@std@@V?$allocator@D@2@@std@@_N@std@@@2@@std@@@std@@@2@@std@@@2@IABV?$_List_iterator@V?$_List_val@U?$pair@$$CBV?$basic_string@DU?$char_traits@D@std@@V?$allocator@D@2@@std@@_N@std@@V?$allocator@U?$pair@$$CBV?$basic_string@DU?$char_traits@D@std@@V?$allocator@D@2@@std@@_N@std@@@2@@std@@@2@@Z 1001a490 f i PatchMW2Experiments.obj
 0001:00019490       ?_Insert_n@?$vector@V?$_List_iterator@V?$_List_val@U?$pair@QAXK@std@@V?$allocator@U?$pair@QAXK@std@@@2@@std@@@std@@V?$allocator@V?$_List_iterator@V?$_List_val@U?$pair@QAXK@std@@V?$allocator@U?$pair@QAXK@std@@@2@@std@@@std@@@2@@std@@IAEXV?$_Vector_const_iterator@V?$_Vector_val@V?$_List_iterator@V?$_List_val@U?$pair@QAXK@std@@V?$allocator@U?$pair@QAXK@std@@@2@@std@@@std@@V?$allocator@V?$_List_iterator@V?$_List_val@U?$pair@QAXK@std@@V?$allocator@U?$pair@QAXK@std@@@2@@std@@@std@@@2@@std@@@2@IABV?$_List_iterator@V?$_List_val@U?$pair@QAXK@std@@V?$allocator@U?$pair@QAXK@std@@@2@@std@@@2@@Z 1001a490 f i PatchMW2FilePointers.obj
 0001:00019490       ?_Insert_n@?$vector@V?$_List_iterator@V?$_List_val@U?$pair@$$CBKPAX@std@@V?$allocator@U?$pair@$$CBKPAX@std@@@2@@std@@@std@@V?$allocator@V?$_List_iterator@V?$_List_val@U?$pair@$$CBKPAX@std@@V?$allocator@U?$pair@$$CBKPAX@std@@@2@@std@@@std@@@2@@std@@IAEXV?$_Vector_const_iterator@V?$_Vector_val@V?$_List_iterator@V?$_List_val@U?$pair@$$CBKPAX@std@@V?$allocator@U?$pair@$$CBKPAX@std@@@2@@std@@@std@@V?$allocator@V?$_List_iterator@V?$_List_val@U?$pair@$$CBKPAX@std@@V?$allocator@U?$pair@$$CBKPAX@std@@@2@@std@@@std@@@2@@std@@@2@IABV?$_List_iterator@V?$_List_val@U?$pair@$$CBKPAX@std@@V?$allocator@U?$pair@$$CBKPAX@std@@@2@@std@@@2@@Z 1001a490 f i PatchMW2FilePointers.obj
 0001:00019490       ?_Insert_n@?$vector@V?$_List_iterator@V?$_List_val@U?$pair@$$CB_K_N@std@@V?$allocator@U?$pair@$$CB_K_N@std@@@2@@std@@@std@@V?$allocator@V?$_List_iterator@V?$_List_val@U?$pair@$$CB_K_N@std@@V?$allocator@U?$pair@$$CB_K_N@std@@@2@@std@@@std@@@2@@std@@IAEXV?$_Vector_const_iterator@V?$_Vector_val@V?$_List_iterator@V?$_List_val@U?$pair@$$CB_K_N@std@@V?$allocator@U?$pair@$$CB_K_N@std@@@2@@std@@@std@@V?$allocator@V?$_List_iterator@V?$_List_val@U?$pair@$$CB_K_N@std@@V?$allocator@U?$pair@$$CB_K_N@std@@@2@@std@@@std@@@2@@std@@@2@IABV?$_List_iterator@V?$_List_val@U?$pair@$$CB_K_N@std@@V?$allocator@U?$pair@$$CB_K_N@std@@@2@@std@@@2@@Z 1001a490 f i SteamBase.obj
 0001:00019490       ?_Insert_n@?$vector@V?$_List_iterator@V?$_List_val@U?$pair@$$CB_KPAVCCallbackBase@@@std@@V?$allocator@U?$pair@$$CB_KPAVCCallbackBase@@@std@@@2@@std@@@std@@V?$allocator@V?$_List_iterator@V?$_List_val@U?$pair@$$CB_KPAVCCallbackBase@@@std@@V?$allocator@U?$pair@$$CB_KPAVCCallbackBase@@@std@@@2@@std@@@std@@@2@@std@@IAEXV?$_Vector_const_iterator@V?$_Vector_val@V?$_List_iterator@V?$_List_val@U?$pair@$$CB_KPAVCCallbackBase@@@std@@V?$allocator@U?$pair@$$CB_KPAVCCallbackBase@@@std@@@2@@std@@@std@@V?$allocator@V?$_List_iterator@V?$_List_val@U?$pair@$$CB_KPAVCCallbackBase@@@std@@V?$allocator@U?$pair@$$CB_KPAVCCallbackBase@@@std@@@2@@std@@@std@@@2@@std@@@2@IABV?$_List_iterator@V?$_List_val@U?$pair@$$CB_KPAVCCallbackBase@@@std@@V?$allocator@U?$pair@$$CB_KPAVCCallbackBase@@@std@@@2@@std@@@2@@Z 1001a490 f i SteamBase.obj
 0001:00019490       ?_Insert_n@?$vector@V?$_List_iterator@V?$_List_val@U?$pair@$$CBKK@std@@V?$allocator@U?$pair@$$CBKK@std@@@2@@std@@@std@@V?$allocator@V?$_List_iterator@V?$_List_val@U?$pair@$$CBKK@std@@V?$allocator@U?$pair@$$CBKK@std@@@2@@std@@@std@@@2@@std@@IAEXV?$_Vector_const_iterator@V?$_Vector_val@V?$_List_iterator@V?$_List_val@U?$pair@$$CBKK@std@@V?$allocator@U?$pair@$$CBKK@std@@@2@@std@@@std@@V?$allocator@V?$_List_iterator@V?$_List_val@U?$pair@$$CBKK@std@@V?$allocator@U?$pair@$$CBKK@std@@@2@@std@@@std@@@2@@std@@@2@IABV?$_List_iterator@V?$_List_val@U?$pair@$$CBKK@std@@V?$allocator@U?$pair@$$CBKK@std@@@2@@std@@@2@@Z 1001a490 f i PatchMW2FilePointers.obj
 0001:00019490       ?_Insert_n@?$vector@V?$_List_iterator@V?$_List_val@U?$pair@$$CBV?$basic_string@DU?$char_traits@D@std@@V?$allocator@D@2@@std@@PAUVehicleDef@@@std@@V?$allocator@U?$pair@$$CBV?$basic_string@DU?$char_traits@D@std@@V?$allocator@D@2@@std@@PAUVehicleDef@@@std@@@2@@std@@@std@@V?$allocator@V?$_List_iterator@V?$_List_val@U?$pair@$$CBV?$basic_string@DU?$char_traits@D@std@@V?$allocator@D@2@@std@@PAUVehicleDef@@@std@@V?$allocator@U?$pair@$$CBV?$basic_string@DU?$char_traits@D@std@@V?$allocator@D@2@@std@@PAUVehicleDef@@@std@@@2@@std@@@std@@@2@@std@@IAEXV?$_Vector_const_iterator@V?$_Vector_val@V?$_List_iterator@V?$_List_val@U?$pair@$$CBV?$basic_string@DU?$char_traits@D@std@@V?$allocator@D@2@@std@@PAUVehicleDef@@@std@@V?$allocator@U?$pair@$$CBV?$basic_string@DU?$char_traits@D@std@@V?$allocator@D@2@@std@@PAUVehicleDef@@@std@@@2@@std@@@std@@V?$allocator@V?$_List_iterator@V?$_List_val@U?$pair@$$CBV?$basic_string@DU?$char_traits@D@std@@V?$allocator@D@2@@std@@PAUVehicleDef@@@std@@V?$allocator@U?$pair@$$CBV?$basic_string@DU?$char_traits@D@std@@V?$allocator@D@2@@std@@PAUVehicleDef@@@std@@@2@@std@@@std@@@2@@std@@@2@IABV?$_List_iterator@V?$_List_val@U?$pair@$$CBV?$basic_string@DU?$char_traits@D@std@@V?$allocator@D@2@@std@@PAUVehicleDef@@@std@@V?$allocator@U?$pair@$$CBV?$basic_string@DU?$char_traits@D@std@@V?$allocator@D@2@@std@@PAUVehicleDef@@@std@@@2@@std@@@2@@Z 1001a490 f i PatchMW2LoadVehicleDef.obj
 0001:00019490       ?_Insert_n@?$vector@V?$_List_iterator@V?$_List_val@U?$pair@$$CBHUNPFriend@@@std@@V?$allocator@U?$pair@$$CBHUNPFriend@@@std@@@2@@std@@@std@@V?$allocator@V?$_List_iterator@V?$_List_val@U?$pair@$$CBHUNPFriend@@@std@@V?$allocator@U?$pair@$$CBHUNPFriend@@@std@@@2@@std@@@std@@@2@@std@@IAEXV?$_Vector_const_iterator@V?$_Vector_val@V?$_List_iterator@V?$_List_val@U?$pair@$$CBHUNPFriend@@@std@@V?$allocator@U?$pair@$$CBHUNPFriend@@@std@@@2@@std@@@std@@V?$allocator@V?$_List_iterator@V?$_List_val@U?$pair@$$CBHUNPFriend@@@std@@V?$allocator@U?$pair@$$CBHUNPFriend@@@std@@@2@@std@@@std@@@2@@std@@@2@IABV?$_List_iterator@V?$_List_val@U?$pair@$$CBHUNPFriend@@@std@@V?$allocator@U?$pair@$$CBHUNPFriend@@@std@@@2@@std@@@2@@Z 1001a490 f i PatchMW2Friends.obj
 0001:00019840       ?_Ufill@?$vector@V?$_List_iterator@V?$_List_val@U?$pair@$$CBK_N@std@@V?$allocator@U?$pair@$$CBK_N@std@@@2@@std@@@std@@V?$allocator@V?$_List_iterator@V?$_List_val@U?$pair@$$CBK_N@std@@V?$allocator@U?$pair@$$CBK_N@std@@@2@@std@@@std@@@2@@std@@IAEPAV?$_List_iterator@V?$_List_val@U?$pair@$$CBK_N@std@@V?$allocator@U?$pair@$$CBK_N@std@@@2@@std@@@2@PAV32@IPBV32@@Z 1001a840 f i PatchMW2AssetRestrict.obj
 0001:00019840       ?_Ufill@?$vector@V?$_List_iterator@V?$_List_val@U?$pair@$$CB_KPAVCCallbackBase@@@std@@V?$allocator@U?$pair@$$CB_KPAVCCallbackBase@@@std@@@2@@std@@@std@@V?$allocator@V?$_List_iterator@V?$_List_val@U?$pair@$$CB_KPAVCCallbackBase@@@std@@V?$allocator@U?$pair@$$CB_KPAVCCallbackBase@@@std@@@2@@std@@@std@@@2@@std@@IAEPAV?$_List_iterator@V?$_List_val@U?$pair@$$CB_KPAVCCallbackBase@@@std@@V?$allocator@U?$pair@$$CB_KPAVCCallbackBase@@@std@@@2@@std@@@2@PAV32@IPBV32@@Z 1001a840 f i SteamBase.obj
 0001:00019840       ?_Ufill@?$vector@V?$_List_iterator@V?$_List_val@U?$pair@$$CBV?$basic_string@DU?$char_traits@D@std@@V?$allocator@D@2@@std@@_N@std@@V?$allocator@U?$pair@$$CBV?$basic_string@DU?$char_traits@D@std@@V?$allocator@D@2@@std@@_N@std@@@2@@std@@@std@@V?$allocator@V?$_List_iterator@V?$_List_val@U?$pair@$$CBV?$basic_string@DU?$char_traits@D@std@@V?$allocator@D@2@@std@@_N@std@@V?$allocator@U?$pair@$$CBV?$basic_string@DU?$char_traits@D@std@@V?$allocator@D@2@@std@@_N@std@@@2@@std@@@std@@@2@@std@@IAEPAV?$_List_iterator@V?$_List_val@U?$pair@$$CBV?$basic_string@DU?$char_traits@D@std@@V?$allocator@D@2@@std@@_N@std@@V?$allocator@U?$pair@$$CBV?$basic_string@DU?$char_traits@D@std@@V?$allocator@D@2@@std@@_N@std@@@2@@std@@@2@PAV32@IPBV32@@Z 1001a840 f i PatchMW2Experiments.obj
 0001:00019840       ?_Ufill@?$vector@V?$_List_iterator@V?$_List_val@U?$pair@QAXK@std@@V?$allocator@U?$pair@QAXK@std@@@2@@std@@@std@@V?$allocator@V?$_List_iterator@V?$_List_val@U?$pair@QAXK@std@@V?$allocator@U?$pair@QAXK@std@@@2@@std@@@std@@@2@@std@@IAEPAV?$_List_iterator@V?$_List_val@U?$pair@QAXK@std@@V?$allocator@U?$pair@QAXK@std@@@2@@std@@@2@PAV32@IPBV32@@Z 1001a840 f i PatchMW2FilePointers.obj
 0001:00019840       ?_Ufill@?$vector@V?$_List_iterator@V?$_List_val@U?$pair@$$CB_K_N@std@@V?$allocator@U?$pair@$$CB_K_N@std@@@2@@std@@@std@@V?$allocator@V?$_List_iterator@V?$_List_val@U?$pair@$$CB_K_N@std@@V?$allocator@U?$pair@$$CB_K_N@std@@@2@@std@@@std@@@2@@std@@IAEPAV?$_List_iterator@V?$_List_val@U?$pair@$$CB_K_N@std@@V?$allocator@U?$pair@$$CB_K_N@std@@@2@@std@@@2@PAV32@IPBV32@@Z 1001a840 f i SteamBase.obj
 0001:00019840       ?_Ufill@?$vector@V?$_List_iterator@V?$_List_val@U?$pair@$$CBV?$basic_string@DU?$char_traits@D@std@@V?$allocator@D@2@@std@@PAUVehicleDef@@@std@@V?$allocator@U?$pair@$$CBV?$basic_string@DU?$char_traits@D@std@@V?$allocator@D@2@@std@@PAUVehicleDef@@@std@@@2@@std@@@std@@V?$allocator@V?$_List_iterator@V?$_List_val@U?$pair@$$CBV?$basic_string@DU?$char_traits@D@std@@V?$allocator@D@2@@std@@PAUVehicleDef@@@std@@V?$allocator@U?$pair@$$CBV?$basic_string@DU?$char_traits@D@std@@V?$allocator@D@2@@std@@PAUVehicleDef@@@std@@@2@@std@@@std@@@2@@std@@IAEPAV?$_List_iterator@V?$_List_val@U?$pair@$$CBV?$basic_string@DU?$char_traits@D@std@@V?$allocator@D@2@@std@@PAUVehicleDef@@@std@@V?$allocator@U?$pair@$$CBV?$basic_string@DU?$char_traits@D@std@@V?$allocator@D@2@@std@@PAUVehicleDef@@@std@@@2@@std@@@2@PAV32@IPBV32@@Z 1001a840 f i PatchMW2LoadVehicleDef.obj
 0001:00019840       ?_Ufill@?$vector@V?$_List_iterator@V?$_List_val@U?$pair@$$CBHUNPFriend@@@std@@V?$allocator@U?$pair@$$CBHUNPFriend@@@std@@@2@@std@@@std@@V?$allocator@V?$_List_iterator@V?$_List_val@U?$pair@$$CBHUNPFriend@@@std@@V?$allocator@U?$pair@$$CBHUNPFriend@@@std@@@2@@std@@@std@@@2@@std@@IAEPAV?$_List_iterator@V?$_List_val@U?$pair@$$CBHUNPFriend@@@std@@V?$allocator@U?$pair@$$CBHUNPFriend@@@std@@@2@@std@@@2@PAV32@IPBV32@@Z 1001a840 f i PatchMW2Friends.obj
 0001:00019840       ?_Ufill@?$vector@V?$_List_iterator@V?$_List_val@U?$pair@$$CBKK@std@@V?$allocator@U?$pair@$$CBKK@std@@@2@@std@@@std@@V?$allocator@V?$_List_iterator@V?$_List_val@U?$pair@$$CBKK@std@@V?$allocator@U?$pair@$$CBKK@std@@@2@@std@@@std@@@2@@std@@IAEPAV?$_List_iterator@V?$_List_val@U?$pair@$$CBKK@std@@V?$allocator@U?$pair@$$CBKK@std@@@2@@std@@@2@PAV32@IPBV32@@Z 1001a840 f i PatchMW2FilePointers.obj
 0001:00019840       ?_Ufill@?$vector@V?$_List_iterator@V?$_List_val@U?$pair@$$CBKPAX@std@@V?$allocator@U?$pair@$$CBKPAX@std@@@2@@std@@@std@@V?$allocator@V?$_List_iterator@V?$_List_val@U?$pair@$$CBKPAX@std@@V?$allocator@U?$pair@$$CBKPAX@std@@@2@@std@@@std@@@2@@std@@IAEPAV?$_List_iterator@V?$_List_val@U?$pair@$$CBKPAX@std@@V?$allocator@U?$pair@$$CBKPAX@std@@@2@@std@@@2@PAV32@IPBV32@@Z 1001a840 f i PatchMW2FilePointers.obj
 0001:00019880       ??$_Destroy_range@V?$allocator@V?$_List_iterator@V?$_List_val@U?$pair@$$CBV?$basic_string@DU?$char_traits@D@std@@V?$allocator@D@2@@std@@P6AXH@Z@std@@V?$allocator@U?$pair@$$CBV?$basic_string@DU?$char_traits@D@std@@V?$allocator@D@2@@std@@P6AXH@Z@std@@@2@@std@@@std@@@std@@@std@@YAXPAV?$_List_iterator@V?$_List_val@U?$pair@$$CBV?$basic_string@DU?$char_traits@D@std@@V?$allocator@D@2@@std@@P6AXH@Z@std@@V?$allocator@U?$pair@$$CBV?$basic_string@DU?$char_traits@D@std@@V?$allocator@D@2@@std@@P6AXH@Z@std@@@2@@std@@@0@0AAV?$allocator@V?$_List_iterator@V?$_List_val@U?$pair@$$CBV?$basic_string@DU?$char_traits@D@std@@V?$allocator@D@2@@std@@P6AXH@Z@std@@V?$allocator@U?$pair@$$CBV?$basic_string@DU?$char_traits@D@std@@V?$allocator@D@2@@std@@P6AXH@Z@std@@@2@@std@@@std@@@0@@Z 1001a880 f i GameInterface.obj
 0001:00019880       ??$_Destroy_range@V?$allocator@V?$_List_iterator@V?$_List_val@U?$pair@$$CBKPAX@std@@V?$allocator@U?$pair@$$CBKPAX@std@@@2@@std@@@std@@@std@@@std@@YAXPAV?$_List_iterator@V?$_List_val@U?$pair@$$CBKPAX@std@@V?$allocator@U?$pair@$$CBKPAX@std@@@2@@std@@@0@0AAV?$allocator@V?$_List_iterator@V?$_List_val@U?$pair@$$CBKPAX@std@@V?$allocator@U?$pair@$$CBKPAX@std@@@2@@std@@@std@@@0@@Z 1001a880 f i PatchMW2FilePointers.obj
 0001:00019880       ??$_Destroy_range@V?$allocator@V?$_List_iterator@V?$_List_val@U?$pair@$$CBHUNPFriend@@@std@@V?$allocator@U?$pair@$$CBHUNPFriend@@@std@@@2@@std@@@std@@@std@@@std@@YAXPAV?$_List_iterator@V?$_List_val@U?$pair@$$CBHUNPFriend@@@std@@V?$allocator@U?$pair@$$CBHUNPFriend@@@std@@@2@@std@@@0@0AAV?$allocator@V?$_List_iterator@V?$_List_val@U?$pair@$$CBHUNPFriend@@@std@@V?$allocator@U?$pair@$$CBHUNPFriend@@@std@@@2@@std@@@std@@@0@@Z 1001a880 f i PatchMW2Friends.obj
 0001:00019880       ??$_Destroy_range@V?$allocator@V?$_List_iterator@V?$_List_val@U?$pair@$$CBKK@std@@V?$allocator@U?$pair@$$CBKK@std@@@2@@std@@@std@@@std@@@std@@YAXPAV?$_List_iterator@V?$_List_val@U?$pair@$$CBKK@std@@V?$allocator@U?$pair@$$CBKK@std@@@2@@std@@@0@0AAV?$allocator@V?$_List_iterator@V?$_List_val@U?$pair@$$CBKK@std@@V?$allocator@U?$pair@$$CBKK@std@@@2@@std@@@std@@@0@@Z 1001a880 f i PatchMW2FilePointers.obj
 0001:00019880       ??$_Destroy_range@V?$allocator@V?$_List_iterator@V?$_List_val@U?$pair@QAXK@std@@V?$allocator@U?$pair@QAXK@std@@@2@@std@@@std@@@std@@@std@@YAXPAV?$_List_iterator@V?$_List_val@U?$pair@QAXK@std@@V?$allocator@U?$pair@QAXK@std@@@2@@std@@@0@0AAV?$allocator@V?$_List_iterator@V?$_List_val@U?$pair@QAXK@std@@V?$allocator@U?$pair@QAXK@std@@@2@@std@@@std@@@0@@Z 1001a880 f i PatchMW2FilePointers.obj
 0001:00019880       ??$_Destroy_range@V?$allocator@V?$_List_iterator@V?$_List_val@U?$pair@$$CB_KPAVCCallbackBase@@@std@@V?$allocator@U?$pair@$$CB_KPAVCCallbackBase@@@std@@@2@@std@@@std@@@std@@@std@@YAXPAV?$_List_iterator@V?$_List_val@U?$pair@$$CB_KPAVCCallbackBase@@@std@@V?$allocator@U?$pair@$$CB_KPAVCCallbackBase@@@std@@@2@@std@@@0@0AAV?$allocator@V?$_List_iterator@V?$_List_val@U?$pair@$$CB_KPAVCCallbackBase@@@std@@V?$allocator@U?$pair@$$CB_KPAVCCallbackBase@@@std@@@2@@std@@@std@@@0@@Z 1001a880 f i SteamBase.obj
 0001:00019880       ??$_Destroy_range@V?$allocator@V?$_List_iterator@V?$_List_val@U?$pair@$$CBV?$basic_string@DU?$char_traits@D@std@@V?$allocator@D@2@@std@@PAUVehicleDef@@@std@@V?$allocator@U?$pair@$$CBV?$basic_string@DU?$char_traits@D@std@@V?$allocator@D@2@@std@@PAUVehicleDef@@@std@@@2@@std@@@std@@@std@@@std@@YAXPAV?$_List_iterator@V?$_List_val@U?$pair@$$CBV?$basic_string@DU?$char_traits@D@std@@V?$allocator@D@2@@std@@PAUVehicleDef@@@std@@V?$allocator@U?$pair@$$CBV?$basic_string@DU?$char_traits@D@std@@V?$allocator@D@2@@std@@PAUVehicleDef@@@std@@@2@@std@@@0@0AAV?$allocator@V?$_List_iterator@V?$_List_val@U?$pair@$$CBV?$basic_string@DU?$char_traits@D@std@@V?$allocator@D@2@@std@@PAUVehicleDef@@@std@@V?$allocator@U?$pair@$$CBV?$basic_string@DU?$char_traits@D@std@@V?$allocator@D@2@@std@@PAUVehicleDef@@@std@@@2@@std@@@std@@@0@@Z 1001a880 f i PatchMW2LoadVehicleDef.obj
 0001:00019880       ??$_Destroy_range@V?$allocator@V?$_List_iterator@V?$_List_val@U?$pair@$$CB_K_N@std@@V?$allocator@U?$pair@$$CB_K_N@std@@@2@@std@@@std@@@std@@@std@@YAXPAV?$_List_iterator@V?$_List_val@U?$pair@$$CB_K_N@std@@V?$allocator@U?$pair@$$CB_K_N@std@@@2@@std@@@0@0AAV?$allocator@V?$_List_iterator@V?$_List_val@U?$pair@$$CB_K_N@std@@V?$allocator@U?$pair@$$CB_K_N@std@@@2@@std@@@std@@@0@@Z 1001a880 f i SteamBase.obj
 0001:00019880       ??$_Destroy_range@V?$allocator@V?$_List_iterator@V?$_List_val@U?$pair@$$CBK_N@std@@V?$allocator@U?$pair@$$CBK_N@std@@@2@@std@@@std@@@std@@@std@@YAXPAV?$_List_iterator@V?$_List_val@U?$pair@$$CBK_N@std@@V?$allocator@U?$pair@$$CBK_N@std@@@2@@std@@@0@0AAV?$allocator@V?$_List_iterator@V?$_List_val@U?$pair@$$CBK_N@std@@V?$allocator@U?$pair@$$CBK_N@std@@@2@@std@@@std@@@0@@Z 1001a880 f i PatchMW2AssetRestrict.obj
 0001:00019880       ??$_Destroy_range@V?$allocator@V?$_List_iterator@V?$_List_val@U?$pair@$$CBV?$basic_string@DU?$char_traits@D@std@@V?$allocator@D@2@@std@@_N@std@@V?$allocator@U?$pair@$$CBV?$basic_string@DU?$char_traits@D@std@@V?$allocator@D@2@@std@@_N@std@@@2@@std@@@std@@@std@@@std@@YAXPAV?$_List_iterator@V?$_List_val@U?$pair@$$CBV?$basic_string@DU?$char_traits@D@std@@V?$allocator@D@2@@std@@_N@std@@V?$allocator@U?$pair@$$CBV?$basic_string@DU?$char_traits@D@std@@V?$allocator@D@2@@std@@_N@std@@@2@@std@@@0@0AAV?$allocator@V?$_List_iterator@V?$_List_val@U?$pair@$$CBV?$basic_string@DU?$char_traits@D@std@@V?$allocator@D@2@@std@@_N@std@@V?$allocator@U?$pair@$$CBV?$basic_string@DU?$char_traits@D@std@@V?$allocator@D@2@@std@@_N@std@@@2@@std@@@std@@@0@@Z 1001a880 f i PatchMW2Experiments.obj
 0001:000198c0       ??$_Umove@PAV?$_List_iterator@V?$_List_val@U?$pair@$$CBK_N@std@@V?$allocator@U?$pair@$$CBK_N@std@@@2@@std@@@std@@@?$vector@V?$_List_iterator@V?$_List_val@U?$pair@$$CBK_N@std@@V?$allocator@U?$pair@$$CBK_N@std@@@2@@std@@@std@@V?$allocator@V?$_List_iterator@V?$_List_val@U?$pair@$$CBK_N@std@@V?$allocator@U?$pair@$$CBK_N@std@@@2@@std@@@std@@@2@@std@@IAEPAV?$_List_iterator@V?$_List_val@U?$pair@$$CBK_N@std@@V?$allocator@U?$pair@$$CBK_N@std@@@2@@std@@@1@PAV21@00@Z 1001a8c0 f i PatchMW2AssetRestrict.obj
 0001:000198c0       ??$_Umove@PAV?$_List_iterator@V?$_List_val@U?$pair@$$CBKPAX@std@@V?$allocator@U?$pair@$$CBKPAX@std@@@2@@std@@@std@@@?$vector@V?$_List_iterator@V?$_List_val@U?$pair@$$CBKPAX@std@@V?$allocator@U?$pair@$$CBKPAX@std@@@2@@std@@@std@@V?$allocator@V?$_List_iterator@V?$_List_val@U?$pair@$$CBKPAX@std@@V?$allocator@U?$pair@$$CBKPAX@std@@@2@@std@@@std@@@2@@std@@IAEPAV?$_List_iterator@V?$_List_val@U?$pair@$$CBKPAX@std@@V?$allocator@U?$pair@$$CBKPAX@std@@@2@@std@@@1@PAV21@00@Z 1001a8c0 f i PatchMW2FilePointers.obj
 0001:000198c0       ??$_Umove@PAV?$_List_iterator@V?$_List_val@U?$pair@QAXK@std@@V?$allocator@U?$pair@QAXK@std@@@2@@std@@@std@@@?$vector@V?$_List_iterator@V?$_List_val@U?$pair@QAXK@std@@V?$allocator@U?$pair@QAXK@std@@@2@@std@@@std@@V?$allocator@V?$_List_iterator@V?$_List_val@U?$pair@QAXK@std@@V?$allocator@U?$pair@QAXK@std@@@2@@std@@@std@@@2@@std@@IAEPAV?$_List_iterator@V?$_List_val@U?$pair@QAXK@std@@V?$allocator@U?$pair@QAXK@std@@@2@@std@@@1@PAV21@00@Z 1001a8c0 f i PatchMW2FilePointers.obj
 0001:000198c0       ??$_Umove@PAV?$_List_iterator@V?$_List_val@U?$pair@$$CB_KPAVCCallbackBase@@@std@@V?$allocator@U?$pair@$$CB_KPAVCCallbackBase@@@std@@@2@@std@@@std@@@?$vector@V?$_List_iterator@V?$_List_val@U?$pair@$$CB_KPAVCCallbackBase@@@std@@V?$allocator@U?$pair@$$CB_KPAVCCallbackBase@@@std@@@2@@std@@@std@@V?$allocator@V?$_List_iterator@V?$_List_val@U?$pair@$$CB_KPAVCCallbackBase@@@std@@V?$allocator@U?$pair@$$CB_KPAVCCallbackBase@@@std@@@2@@std@@@std@@@2@@std@@IAEPAV?$_List_iterator@V?$_List_val@U?$pair@$$CB_KPAVCCallbackBase@@@std@@V?$allocator@U?$pair@$$CB_KPAVCCallbackBase@@@std@@@2@@std@@@1@PAV21@00@Z 1001a8c0 f i SteamBase.obj
 0001:000198c0       ??$_Umove@PAV?$_List_iterator@V?$_List_val@U?$pair@$$CBHUNPFriend@@@std@@V?$allocator@U?$pair@$$CBHUNPFriend@@@std@@@2@@std@@@std@@@?$vector@V?$_List_iterator@V?$_List_val@U?$pair@$$CBHUNPFriend@@@std@@V?$allocator@U?$pair@$$CBHUNPFriend@@@std@@@2@@std@@@std@@V?$allocator@V?$_List_iterator@V?$_List_val@U?$pair@$$CBHUNPFriend@@@std@@V?$allocator@U?$pair@$$CBHUNPFriend@@@std@@@2@@std@@@std@@@2@@std@@IAEPAV?$_List_iterator@V?$_List_val@U?$pair@$$CBHUNPFriend@@@std@@V?$allocator@U?$pair@$$CBHUNPFriend@@@std@@@2@@std@@@1@PAV21@00@Z 1001a8c0 f i PatchMW2Friends.obj
 0001:000198c0       ??$_Umove@PAV?$_List_iterator@V?$_List_val@U?$pair@$$CB_K_N@std@@V?$allocator@U?$pair@$$CB_K_N@std@@@2@@std@@@std@@@?$vector@V?$_List_iterator@V?$_List_val@U?$pair@$$CB_K_N@std@@V?$allocator@U?$pair@$$CB_K_N@std@@@2@@std@@@std@@V?$allocator@V?$_List_iterator@V?$_List_val@U?$pair@$$CB_K_N@std@@V?$allocator@U?$pair@$$CB_K_N@std@@@2@@std@@@std@@@2@@std@@IAEPAV?$_List_iterator@V?$_List_val@U?$pair@$$CB_K_N@std@@V?$allocator@U?$pair@$$CB_K_N@std@@@2@@std@@@1@PAV21@00@Z 1001a8c0 f i SteamBase.obj
 0001:000198c0       ??$_Umove@PAV?$_List_iterator@V?$_List_val@U?$pair@$$CBKK@std@@V?$allocator@U?$pair@$$CBKK@std@@@2@@std@@@std@@@?$vector@V?$_List_iterator@V?$_List_val@U?$pair@$$CBKK@std@@V?$allocator@U?$pair@$$CBKK@std@@@2@@std@@@std@@V?$allocator@V?$_List_iterator@V?$_List_val@U?$pair@$$CBKK@std@@V?$allocator@U?$pair@$$CBKK@std@@@2@@std@@@std@@@2@@std@@IAEPAV?$_List_iterator@V?$_List_val@U?$pair@$$CBKK@std@@V?$allocator@U?$pair@$$CBKK@std@@@2@@std@@@1@PAV21@00@Z 1001a8c0 f i PatchMW2FilePointers.obj
 0001:000198c0       ??$_Umove@PAV?$_List_iterator@V?$_List_val@U?$pair@$$CBV?$basic_string@DU?$char_traits@D@std@@V?$allocator@D@2@@std@@_N@std@@V?$allocator@U?$pair@$$CBV?$basic_string@DU?$char_traits@D@std@@V?$allocator@D@2@@std@@_N@std@@@2@@std@@@std@@@?$vector@V?$_List_iterator@V?$_List_val@U?$pair@$$CBV?$basic_string@DU?$char_traits@D@std@@V?$allocator@D@2@@std@@_N@std@@V?$allocator@U?$pair@$$CBV?$basic_string@DU?$char_traits@D@std@@V?$allocator@D@2@@std@@_N@std@@@2@@std@@@std@@V?$allocator@V?$_List_iterator@V?$_List_val@U?$pair@$$CBV?$basic_string@DU?$char_traits@D@std@@V?$allocator@D@2@@std@@_N@std@@V?$allocator@U?$pair@$$CBV?$basic_string@DU?$char_traits@D@std@@V?$allocator@D@2@@std@@_N@std@@@2@@std@@@std@@@2@@std@@IAEPAV?$_List_iterator@V?$_List_val@U?$pair@$$CBV?$basic_string@DU?$char_traits@D@std@@V?$allocator@D@2@@std@@_N@std@@V?$allocator@U?$pair@$$CBV?$basic_string@DU?$char_traits@D@std@@V?$allocator@D@2@@std@@_N@std@@@2@@std@@@1@PAV21@00@Z 1001a8c0 f i PatchMW2Experiments.obj
 0001:000198c0       ??$_Umove@PAV?$_List_iterator@V?$_List_val@U?$pair@$$CBV?$basic_string@DU?$char_traits@D@std@@V?$allocator@D@2@@std@@PAUVehicleDef@@@std@@V?$allocator@U?$pair@$$CBV?$basic_string@DU?$char_traits@D@std@@V?$allocator@D@2@@std@@PAUVehicleDef@@@std@@@2@@std@@@std@@@?$vector@V?$_List_iterator@V?$_List_val@U?$pair@$$CBV?$basic_string@DU?$char_traits@D@std@@V?$allocator@D@2@@std@@PAUVehicleDef@@@std@@V?$allocator@U?$pair@$$CBV?$basic_string@DU?$char_traits@D@std@@V?$allocator@D@2@@std@@PAUVehicleDef@@@std@@@2@@std@@@std@@V?$allocator@V?$_List_iterator@V?$_List_val@U?$pair@$$CBV?$basic_string@DU?$char_traits@D@std@@V?$allocator@D@2@@std@@PAUVehicleDef@@@std@@V?$allocator@U?$pair@$$CBV?$basic_string@DU?$char_traits@D@std@@V?$allocator@D@2@@std@@PAUVehicleDef@@@std@@@2@@std@@@std@@@2@@std@@IAEPAV?$_List_iterator@V?$_List_val@U?$pair@$$CBV?$basic_string@DU?$char_traits@D@std@@V?$allocator@D@2@@std@@PAUVehicleDef@@@std@@V?$allocator@U?$pair@$$CBV?$basic_string@DU?$char_traits@D@std@@V?$allocator@D@2@@std@@PAUVehicleDef@@@std@@@2@@std@@@1@PAV21@00@Z 1001a8c0 f i PatchMW2LoadVehicleDef.obj
 0001:000198f0       ??$fill@PAV?$_List_iterator@V?$_List_val@U?$pair@QAXK@std@@V?$allocator@U?$pair@QAXK@std@@@2@@std@@@std@@V12@@std@@YAXPAV?$_List_iterator@V?$_List_val@U?$pair@QAXK@std@@V?$allocator@U?$pair@QAXK@std@@@2@@std@@@0@0ABV10@@Z 1001a8f0 f i PatchMW2FilePointers.obj
 0001:000198f0       ??$fill@PAV?$_List_iterator@V?$_List_val@U?$pair@$$CBHUNPFriend@@@std@@V?$allocator@U?$pair@$$CBHUNPFriend@@@std@@@2@@std@@@std@@V12@@std@@YAXPAV?$_List_iterator@V?$_List_val@U?$pair@$$CBHUNPFriend@@@std@@V?$allocator@U?$pair@$$CBHUNPFriend@@@std@@@2@@std@@@0@0ABV10@@Z 1001a8f0 f i PatchMW2Friends.obj
 0001:000198f0       ??$fill@PAV?$_List_iterator@V?$_List_val@U?$pair@$$CBK_N@std@@V?$allocator@U?$pair@$$CBK_N@std@@@2@@std@@@std@@V12@@std@@YAXPAV?$_List_iterator@V?$_List_val@U?$pair@$$CBK_N@std@@V?$allocator@U?$pair@$$CBK_N@std@@@2@@std@@@0@0ABV10@@Z 1001a8f0 f i PatchMW2AssetRestrict.obj
 0001:000198f0       ??$fill@PAV?$_List_iterator@V?$_List_val@U?$pair@$$CBKK@std@@V?$allocator@U?$pair@$$CBKK@std@@@2@@std@@@std@@V12@@std@@YAXPAV?$_List_iterator@V?$_List_val@U?$pair@$$CBKK@std@@V?$allocator@U?$pair@$$CBKK@std@@@2@@std@@@0@0ABV10@@Z 1001a8f0 f i PatchMW2FilePointers.obj
 0001:000198f0       ??$fill@PAV?$_List_iterator@V?$_List_val@U?$pair@$$CBV?$basic_string@DU?$char_traits@D@std@@V?$allocator@D@2@@std@@PAUVehicleDef@@@std@@V?$allocator@U?$pair@$$CBV?$basic_string@DU?$char_traits@D@std@@V?$allocator@D@2@@std@@PAUVehicleDef@@@std@@@2@@std@@@std@@V12@@std@@YAXPAV?$_List_iterator@V?$_List_val@U?$pair@$$CBV?$basic_string@DU?$char_traits@D@std@@V?$allocator@D@2@@std@@PAUVehicleDef@@@std@@V?$allocator@U?$pair@$$CBV?$basic_string@DU?$char_traits@D@std@@V?$allocator@D@2@@std@@PAUVehicleDef@@@std@@@2@@std@@@0@0ABV10@@Z 1001a8f0 f i PatchMW2LoadVehicleDef.obj
 0001:000198f0       ??$fill@PAV?$_List_iterator@V?$_List_val@U?$pair@$$CBV?$basic_string@DU?$char_traits@D@std@@V?$allocator@D@2@@std@@P6AXH@Z@std@@V?$allocator@U?$pair@$$CBV?$basic_string@DU?$char_traits@D@std@@V?$allocator@D@2@@std@@P6AXH@Z@std@@@2@@std@@@std@@V12@@std@@YAXPAV?$_List_iterator@V?$_List_val@U?$pair@$$CBV?$basic_string@DU?$char_traits@D@std@@V?$allocator@D@2@@std@@P6AXH@Z@std@@V?$allocator@U?$pair@$$CBV?$basic_string@DU?$char_traits@D@std@@V?$allocator@D@2@@std@@P6AXH@Z@std@@@2@@std@@@0@0ABV10@@Z 1001a8f0 f i GameInterface.obj
 0001:000198f0       ??$fill@PAV?$_List_iterator@V?$_List_val@U?$pair@$$CB_K_N@std@@V?$allocator@U?$pair@$$CB_K_N@std@@@2@@std@@@std@@V12@@std@@YAXPAV?$_List_iterator@V?$_List_val@U?$pair@$$CB_K_N@std@@V?$allocator@U?$pair@$$CB_K_N@std@@@2@@std@@@0@0ABV10@@Z 1001a8f0 f i SteamBase.obj
 0001:000198f0       ??$fill@PAV?$_List_iterator@V?$_List_val@U?$pair@$$CB_KPAVCCallbackBase@@@std@@V?$allocator@U?$pair@$$CB_KPAVCCallbackBase@@@std@@@2@@std@@@std@@V12@@std@@YAXPAV?$_List_iterator@V?$_List_val@U?$pair@$$CB_KPAVCCallbackBase@@@std@@V?$allocator@U?$pair@$$CB_KPAVCCallbackBase@@@std@@@2@@std@@@0@0ABV10@@Z 1001a8f0 f i SteamBase.obj
 0001:000198f0       ??$fill@PAV?$_List_iterator@V?$_List_val@U?$pair@$$CBKPAX@std@@V?$allocator@U?$pair@$$CBKPAX@std@@@2@@std@@@std@@V12@@std@@YAXPAV?$_List_iterator@V?$_List_val@U?$pair@$$CBKPAX@std@@V?$allocator@U?$pair@$$CBKPAX@std@@@2@@std@@@0@0ABV10@@Z 1001a8f0 f i PatchMW2FilePointers.obj
 0001:000198f0       ??$fill@PAV?$_List_iterator@V?$_List_val@U?$pair@$$CBV?$basic_string@DU?$char_traits@D@std@@V?$allocator@D@2@@std@@_N@std@@V?$allocator@U?$pair@$$CBV?$basic_string@DU?$char_traits@D@std@@V?$allocator@D@2@@std@@_N@std@@@2@@std@@@std@@V12@@std@@YAXPAV?$_List_iterator@V?$_List_val@U?$pair@$$CBV?$basic_string@DU?$char_traits@D@std@@V?$allocator@D@2@@std@@_N@std@@V?$allocator@U?$pair@$$CBV?$basic_string@DU?$char_traits@D@std@@V?$allocator@D@2@@std@@_N@std@@@2@@std@@@0@0ABV10@@Z 1001a8f0 f i PatchMW2Experiments.obj
 0001:00019920       ??$_Uninitialized_fill_n@PAV?$_List_iterator@V?$_List_val@U?$pair@$$CB_KPAVCCallbackBase@@@std@@V?$allocator@U?$pair@$$CB_KPAVCCallbackBase@@@std@@@2@@std@@@std@@IV12@V?$allocator@V?$_List_iterator@V?$_List_val@U?$pair@$$CB_KPAVCCallbackBase@@@std@@V?$allocator@U?$pair@$$CB_KPAVCCallbackBase@@@std@@@2@@std@@@std@@@2@@std@@YAXPAV?$_List_iterator@V?$_List_val@U?$pair@$$CB_KPAVCCallbackBase@@@std@@V?$allocator@U?$pair@$$CB_KPAVCCallbackBase@@@std@@@2@@std@@@0@IPBV10@AAV?$allocator@V?$_List_iterator@V?$_List_val@U?$pair@$$CB_KPAVCCallbackBase@@@std@@V?$allocator@U?$pair@$$CB_KPAVCCallbackBase@@@std@@@2@@std@@@std@@@0@@Z 1001a920 f i SteamBase.obj
 0001:00019920       ??$_Uninitialized_fill_n@PAV?$_List_iterator@V?$_List_val@U?$pair@$$CBK_N@std@@V?$allocator@U?$pair@$$CBK_N@std@@@2@@std@@@std@@IV12@V?$allocator@V?$_List_iterator@V?$_List_val@U?$pair@$$CBK_N@std@@V?$allocator@U?$pair@$$CBK_N@std@@@2@@std@@@std@@@2@@std@@YAXPAV?$_List_iterator@V?$_List_val@U?$pair@$$CBK_N@std@@V?$allocator@U?$pair@$$CBK_N@std@@@2@@std@@@0@IPBV10@AAV?$allocator@V?$_List_iterator@V?$_List_val@U?$pair@$$CBK_N@std@@V?$allocator@U?$pair@$$CBK_N@std@@@2@@std@@@std@@@0@@Z 1001a920 f i PatchMW2AssetRestrict.obj
 0001:00019920       ??$_Uninitialized_fill_n@PAV?$_List_iterator@V?$_List_val@U?$pair@$$CBHUNPFriend@@@std@@V?$allocator@U?$pair@$$CBHUNPFriend@@@std@@@2@@std@@@std@@IV12@V?$allocator@V?$_List_iterator@V?$_List_val@U?$pair@$$CBHUNPFriend@@@std@@V?$allocator@U?$pair@$$CBHUNPFriend@@@std@@@2@@std@@@std@@@2@@std@@YAXPAV?$_List_iterator@V?$_List_val@U?$pair@$$CBHUNPFriend@@@std@@V?$allocator@U?$pair@$$CBHUNPFriend@@@std@@@2@@std@@@0@IPBV10@AAV?$allocator@V?$_List_iterator@V?$_List_val@U?$pair@$$CBHUNPFriend@@@std@@V?$allocator@U?$pair@$$CBHUNPFriend@@@std@@@2@@std@@@std@@@0@@Z 1001a920 f i PatchMW2Friends.obj
 0001:00019920       ??$_Uninitialized_fill_n@PAV?$_List_iterator@V?$_List_val@U?$pair@$$CBKPAX@std@@V?$allocator@U?$pair@$$CBKPAX@std@@@2@@std@@@std@@IV12@V?$allocator@V?$_List_iterator@V?$_List_val@U?$pair@$$CBKPAX@std@@V?$allocator@U?$pair@$$CBKPAX@std@@@2@@std@@@std@@@2@@std@@YAXPAV?$_List_iterator@V?$_List_val@U?$pair@$$CBKPAX@std@@V?$allocator@U?$pair@$$CBKPAX@std@@@2@@std@@@0@IPBV10@AAV?$allocator@V?$_List_iterator@V?$_List_val@U?$pair@$$CBKPAX@std@@V?$allocator@U?$pair@$$CBKPAX@std@@@2@@std@@@std@@@0@@Z 1001a920 f i PatchMW2FilePointers.obj
 0001:00019920       ??$_Uninitialized_fill_n@PAV?$_List_iterator@V?$_List_val@U?$pair@QAXK@std@@V?$allocator@U?$pair@QAXK@std@@@2@@std@@@std@@IV12@V?$allocator@V?$_List_iterator@V?$_List_val@U?$pair@QAXK@std@@V?$allocator@U?$pair@QAXK@std@@@2@@std@@@std@@@2@@std@@YAXPAV?$_List_iterator@V?$_List_val@U?$pair@QAXK@std@@V?$allocator@U?$pair@QAXK@std@@@2@@std@@@0@IPBV10@AAV?$allocator@V?$_List_iterator@V?$_List_val@U?$pair@QAXK@std@@V?$allocator@U?$pair@QAXK@std@@@2@@std@@@std@@@0@@Z 1001a920 f i PatchMW2FilePointers.obj
 0001:00019920       ??$_Uninitialized_fill_n@PAV?$_List_iterator@V?$_List_val@U?$pair@$$CBV?$basic_string@DU?$char_traits@D@std@@V?$allocator@D@2@@std@@_N@std@@V?$allocator@U?$pair@$$CBV?$basic_string@DU?$char_traits@D@std@@V?$allocator@D@2@@std@@_N@std@@@2@@std@@@std@@IV12@V?$allocator@V?$_List_iterator@V?$_List_val@U?$pair@$$CBV?$basic_string@DU?$char_traits@D@std@@V?$allocator@D@2@@std@@_N@std@@V?$allocator@U?$pair@$$CBV?$basic_string@DU?$char_traits@D@std@@V?$allocator@D@2@@std@@_N@std@@@2@@std@@@std@@@2@@std@@YAXPAV?$_List_iterator@V?$_List_val@U?$pair@$$CBV?$basic_string@DU?$char_traits@D@std@@V?$allocator@D@2@@std@@_N@std@@V?$allocator@U?$pair@$$CBV?$basic_string@DU?$char_traits@D@std@@V?$allocator@D@2@@std@@_N@std@@@2@@std@@@0@IPBV10@AAV?$allocator@V?$_List_iterator@V?$_List_val@U?$pair@$$CBV?$basic_string@DU?$char_traits@D@std@@V?$allocator@D@2@@std@@_N@std@@V?$allocator@U?$pair@$$CBV?$basic_string@DU?$char_traits@D@std@@V?$allocator@D@2@@std@@_N@std@@@2@@std@@@std@@@0@@Z 1001a920 f i PatchMW2Experiments.obj
 0001:00019920       ??$_Uninitialized_fill_n@PAV?$_List_iterator@V?$_List_val@U?$pair@$$CB_K_N@std@@V?$allocator@U?$pair@$$CB_K_N@std@@@2@@std@@@std@@IV12@V?$allocator@V?$_List_iterator@V?$_List_val@U?$pair@$$CB_K_N@std@@V?$allocator@U?$pair@$$CB_K_N@std@@@2@@std@@@std@@@2@@std@@YAXPAV?$_List_iterator@V?$_List_val@U?$pair@$$CB_K_N@std@@V?$allocator@U?$pair@$$CB_K_N@std@@@2@@std@@@0@IPBV10@AAV?$allocator@V?$_List_iterator@V?$_List_val@U?$pair@$$CB_K_N@std@@V?$allocator@U?$pair@$$CB_K_N@std@@@2@@std@@@std@@@0@@Z 1001a920 f i SteamBase.obj
 0001:00019920       ??$_Uninitialized_fill_n@PAV?$_List_iterator@V?$_List_val@U?$pair@$$CBV?$basic_string@DU?$char_traits@D@std@@V?$allocator@D@2@@std@@PAUVehicleDef@@@std@@V?$allocator@U?$pair@$$CBV?$basic_string@DU?$char_traits@D@std@@V?$allocator@D@2@@std@@PAUVehicleDef@@@std@@@2@@std@@@std@@IV12@V?$allocator@V?$_List_iterator@V?$_List_val@U?$pair@$$CBV?$basic_string@DU?$char_traits@D@std@@V?$allocator@D@2@@std@@PAUVehicleDef@@@std@@V?$allocator@U?$pair@$$CBV?$basic_string@DU?$char_traits@D@std@@V?$allocator@D@2@@std@@PAUVehicleDef@@@std@@@2@@std@@@std@@@2@@std@@YAXPAV?$_List_iterator@V?$_List_val@U?$pair@$$CBV?$basic_string@DU?$char_traits@D@std@@V?$allocator@D@2@@std@@PAUVehicleDef@@@std@@V?$allocator@U?$pair@$$CBV?$basic_string@DU?$char_traits@D@std@@V?$allocator@D@2@@std@@PAUVehicleDef@@@std@@@2@@std@@@0@IPBV10@AAV?$allocator@V?$_List_iterator@V?$_List_val@U?$pair@$$CBV?$basic_string@DU?$char_traits@D@std@@V?$allocator@D@2@@std@@PAUVehicleDef@@@std@@V?$allocator@U?$pair@$$CBV?$basic_string@DU?$char_traits@D@std@@V?$allocator@D@2@@std@@PAUVehicleDef@@@std@@@2@@std@@@std@@@0@@Z 1001a920 f i PatchMW2LoadVehicleDef.obj
 0001:00019920       ??$_Uninitialized_fill_n@PAV?$_List_iterator@V?$_List_val@U?$pair@$$CBKK@std@@V?$allocator@U?$pair@$$CBKK@std@@@2@@std@@@std@@IV12@V?$allocator@V?$_List_iterator@V?$_List_val@U?$pair@$$CBKK@std@@V?$allocator@U?$pair@$$CBKK@std@@@2@@std@@@std@@@2@@std@@YAXPAV?$_List_iterator@V?$_List_val@U?$pair@$$CBKK@std@@V?$allocator@U?$pair@$$CBKK@std@@@2@@std@@@0@IPBV10@AAV?$allocator@V?$_List_iterator@V?$_List_val@U?$pair@$$CBKK@std@@V?$allocator@U?$pair@$$CBKK@std@@@2@@std@@@std@@@0@@Z 1001a920 f i PatchMW2FilePointers.obj
 0001:00019970       ?_Splice_same@?$list@U?$pair@$$CBHUNPFriend@@@std@@V?$allocator@U?$pair@$$CBHUNPFriend@@@std@@@2@@std@@QAEXV?$_List_const_iterator@V?$_List_val@U?$pair@$$CBHUNPFriend@@@std@@V?$allocator@U?$pair@$$CBHUNPFriend@@@std@@@2@@std@@@2@AAV12@00I@Z 1001a970 f i PatchMW2Friends.obj
 0001:00019aa0       ?bucket_count@?$_Hash@V?$_Umap_traits@V?$basic_string@DU?$char_traits@D@std@@V?$allocator@D@2@@std@@_NV?$_Hash_compare@V?$basic_string@DU?$char_traits@D@std@@V?$allocator@D@2@@std@@V?$hash@V?$basic_string@DU?$char_traits@D@std@@V?$allocator@D@2@@std@@@2@U?$equal_to@V?$basic_string@DU?$char_traits@D@std@@V?$allocator@D@2@@std@@@2@@2@V?$allocator@U?$pair@$$CBV?$basic_string@DU?$char_traits@D@std@@V?$allocator@D@2@@std@@_N@std@@@2@$0A@@tr1@std@@@std@@QBEIXZ 1001aaa0 f i PatchMW2Experiments.obj
 0001:00019aa0       ?bucket_count@?$_Hash@V?$_Umap_traits@_KPAVCCallbackBase@@V?$_Hash_compare@_KV?$hash@_K@std@@U?$equal_to@_K@2@@std@@V?$allocator@U?$pair@$$CB_KPAVCCallbackBase@@@std@@@3@$0A@@tr1@std@@@std@@QBEIXZ 1001aaa0 f i SteamBase.obj
 0001:00019aa0       ?bucket_count@?$_Hash@V?$_Umap_traits@KPAXV?$_Hash_compare@KV?$hash@K@std@@U?$equal_to@K@2@@std@@V?$allocator@U?$pair@$$CBKPAX@std@@@2@$0A@@tr1@std@@@std@@QBEIXZ 1001aaa0 f i PatchMW2FilePointers.obj
 0001:00019aa0       ?bucket_count@?$_Hash@V?$_Umap_traits@HUNPFriend@@V?$_Hash_compare@HV?$hash@H@std@@U?$equal_to@H@2@@std@@V?$allocator@U?$pair@$$CBHUNPFriend@@@std@@@3@$0A@@tr1@std@@@std@@QBEIXZ 1001aaa0 f i PatchMW2Friends.obj
 0001:00019aa0       ?bucket_count@?$_Hash@V?$_Umap_traits@KKV?$_Hash_compare@KV?$hash@K@std@@U?$equal_to@K@2@@std@@V?$allocator@U?$pair@$$CBKK@std@@@2@$0A@@tr1@std@@@std@@QBEIXZ 1001aaa0 f i PatchMW2FilePointers.obj
 0001:00019aa0       ?bucket_count@?$_Hash@V?$_Umap_traits@V?$basic_string@DU?$char_traits@D@std@@V?$allocator@D@2@@std@@P6AXH@ZV?$_Hash_compare@V?$basic_string@DU?$char_traits@D@std@@V?$allocator@D@2@@std@@V?$hash@V?$basic_string@DU?$char_traits@D@std@@V?$allocator@D@2@@std@@@2@U?$equal_to@V?$basic_string@DU?$char_traits@D@std@@V?$allocator@D@2@@std@@@2@@2@V?$allocator@U?$pair@$$CBV?$basic_string@DU?$char_traits@D@std@@V?$allocator@D@2@@std@@P6AXH@Z@std@@@2@$0A@@tr1@std@@@std@@QBEIXZ 1001aaa0 f i GameInterface.obj
 0001:00019aa0       ?bucket_count@?$_Hash@V?$_Umap_traits@PAXKV?$_Hash_compare@PAXV?$hash@PAX@std@@U?$equal_to@PAX@2@@std@@V?$allocator@U?$pair@QAXK@std@@@2@$0A@@tr1@std@@@std@@QBEIXZ 1001aaa0 f i PatchMW2FilePointers.obj
 0001:00019aa0       ?bucket_count@?$_Hash@V?$_Umap_traits@V?$basic_string@DU?$char_traits@D@std@@V?$allocator@D@2@@std@@PAUVehicleDef@@V?$_Hash_compare@V?$basic_string@DU?$char_traits@D@std@@V?$allocator@D@2@@std@@V?$hash@V?$basic_string@DU?$char_traits@D@std@@V?$allocator@D@2@@std@@@2@U?$equal_to@V?$basic_string@DU?$char_traits@D@std@@V?$allocator@D@2@@std@@@2@@2@V?$allocator@U?$pair@$$CBV?$basic_string@DU?$char_traits@D@std@@V?$allocator@D@2@@std@@PAUVehicleDef@@@std@@@2@$0A@@tr1@std@@@std@@QBEIXZ 1001aaa0 f i PatchMW2LoadVehicleDef.obj
 0001:00019aa0       ?bucket_count@?$_Hash@V?$_Umap_traits@_K_NV?$_Hash_compare@_KV?$hash@_K@std@@U?$equal_to@_K@2@@std@@V?$allocator@U?$pair@$$CB_K_N@std@@@2@$0A@@tr1@std@@@std@@QBEIXZ 1001aaa0 f i SteamBase.obj
 0001:00019ac0       ?_Reinsert@?$_Hash@V?$_Umap_traits@HUNPFriend@@V?$_Hash_compare@HV?$hash@H@std@@U?$equal_to@H@2@@std@@V?$allocator@U?$pair@$$CBHUNPFriend@@@std@@@3@$0A@@tr1@std@@@std@@IAEXV?$_List_iterator@V?$_List_val@U?$pair@$$CBHUNPFriend@@@std@@V?$allocator@U?$pair@$$CBHUNPFriend@@@std@@@2@@std@@@2@@Z 1001aac0 f i PatchMW2Friends.obj
 0001:00019b40       ?_Incsize@?$list@U?$pair@$$CBHUNPFriend@@@std@@V?$allocator@U?$pair@$$CBHUNPFriend@@@std@@@2@@std@@QAEXI@Z 1001ab40 f i PatchMW2Friends.obj
 0001:00019b80       ?max_size@?$list@U?$pair@$$CBHUNPFriend@@@std@@V?$allocator@U?$pair@$$CBHUNPFriend@@@std@@@2@@std@@QBEIXZ 1001ab80 f i PatchMW2Friends.obj
 0001:00019ba0       ?max_size@?$allocator@U?$pair@$$CBHUNPFriend@@@std@@@std@@QBEIXZ 1001aba0 f i PatchMW2Friends.obj
 0001:00019bd0       ??$construct@AAUUIFeeder_t@@@?$allocator@UUIFeeder_t@@@std@@QAEXPAUUIFeeder_t@@AAU2@@Z 1001abd0 f i PatchMW2Friends.obj
 0001:00019bd0       ?construct@?$allocator@UUIFeeder_t@@@std@@QAEXPAUUIFeeder_t@@$$QAU3@@Z 1001abd0 f i PatchMW2Friends.obj
 0001:00019c60       ??$emplace_front@U?$pair@$$CBHUNPFriend@@@std@@@?$list@U?$pair@$$CBHUNPFriend@@@std@@V?$allocator@U?$pair@$$CBHUNPFriend@@@std@@@2@@std@@QAEX$$QAU?$pair@$$CBHUNPFriend@@@1@@Z 1001ac60 f i PatchMW2Friends.obj
 0001:00019ca0       ??$_Uninitialized_move@PAUUIFeeder_t@@PAU1@V?$allocator@UUIFeeder_t@@@std@@@std@@YAPAUUIFeeder_t@@PAU1@00AAV?$allocator@UUIFeeder_t@@@0@@Z 1001aca0 f i PatchMW2Friends.obj
 0001:00019cf0       ??$_Destroy_range@V?$allocator@UUIFeeder_t@@@std@@@std@@YAXPAUUIFeeder_t@@0AAV?$allocator@UUIFeeder_t@@@0@U_Nonscalar_ptr_iterator_tag@0@@Z 1001acf0 f i PatchMW2Friends.obj
 0001:00019d20       ??$_Destroy_range@V?$allocator@V?$_List_iterator@V?$_List_val@U?$pair@$$CBKPAX@std@@V?$allocator@U?$pair@$$CBKPAX@std@@@2@@std@@@std@@@std@@@std@@YAXPAV?$_List_iterator@V?$_List_val@U?$pair@$$CBKPAX@std@@V?$allocator@U?$pair@$$CBKPAX@std@@@2@@std@@@0@0AAV?$allocator@V?$_List_iterator@V?$_List_val@U?$pair@$$CBKPAX@std@@V?$allocator@U?$pair@$$CBKPAX@std@@@2@@std@@@std@@@0@U_Nonscalar_ptr_iterator_tag@0@@Z 1001ad20 f i PatchMW2FilePointers.obj
 0001:00019d20       ??$_Destroy_range@V?$allocator@V?$_List_iterator@V?$_List_val@U?$pair@$$CBV?$basic_string@DU?$char_traits@D@std@@V?$allocator@D@2@@std@@PAUVehicleDef@@@std@@V?$allocator@U?$pair@$$CBV?$basic_string@DU?$char_traits@D@std@@V?$allocator@D@2@@std@@PAUVehicleDef@@@std@@@2@@std@@@std@@@std@@@std@@YAXPAV?$_List_iterator@V?$_List_val@U?$pair@$$CBV?$basic_string@DU?$char_traits@D@std@@V?$allocator@D@2@@std@@PAUVehicleDef@@@std@@V?$allocator@U?$pair@$$CBV?$basic_string@DU?$char_traits@D@std@@V?$allocator@D@2@@std@@PAUVehicleDef@@@std@@@2@@std@@@0@0AAV?$allocator@V?$_List_iterator@V?$_List_val@U?$pair@$$CBV?$basic_string@DU?$char_traits@D@std@@V?$allocator@D@2@@std@@PAUVehicleDef@@@std@@V?$allocator@U?$pair@$$CBV?$basic_string@DU?$char_traits@D@std@@V?$allocator@D@2@@std@@PAUVehicleDef@@@std@@@2@@std@@@std@@@0@U_Nonscalar_ptr_iterator_tag@0@@Z 1001ad20 f i PatchMW2LoadVehicleDef.obj
 0001:00019d20       ??$_Destroy_range@V?$allocator@V?$_List_iterator@V?$_List_val@U?$pair@QAXK@std@@V?$allocator@U?$pair@QAXK@std@@@2@@std@@@std@@@std@@@std@@YAXPAV?$_List_iterator@V?$_List_val@U?$pair@QAXK@std@@V?$allocator@U?$pair@QAXK@std@@@2@@std@@@0@0AAV?$allocator@V?$_List_iterator@V?$_List_val@U?$pair@QAXK@std@@V?$allocator@U?$pair@QAXK@std@@@2@@std@@@std@@@0@U_Nonscalar_ptr_iterator_tag@0@@Z 1001ad20 f i PatchMW2FilePointers.obj
 0001:00019d20       ??$_Destroy_range@V?$allocator@V?$_List_iterator@V?$_List_val@U?$pair@$$CBK_N@std@@V?$allocator@U?$pair@$$CBK_N@std@@@2@@std@@@std@@@std@@@std@@YAXPAV?$_List_iterator@V?$_List_val@U?$pair@$$CBK_N@std@@V?$allocator@U?$pair@$$CBK_N@std@@@2@@std@@@0@0AAV?$allocator@V?$_List_iterator@V?$_List_val@U?$pair@$$CBK_N@std@@V?$allocator@U?$pair@$$CBK_N@std@@@2@@std@@@std@@@0@U_Nonscalar_ptr_iterator_tag@0@@Z 1001ad20 f i PatchMW2AssetRestrict.obj
 0001:00019d20       ??$_Destroy_range@V?$allocator@V?$_List_iterator@V?$_List_val@U?$pair@$$CB_K_N@std@@V?$allocator@U?$pair@$$CB_K_N@std@@@2@@std@@@std@@@std@@@std@@YAXPAV?$_List_iterator@V?$_List_val@U?$pair@$$CB_K_N@std@@V?$allocator@U?$pair@$$CB_K_N@std@@@2@@std@@@0@0AAV?$allocator@V?$_List_iterator@V?$_List_val@U?$pair@$$CB_K_N@std@@V?$allocator@U?$pair@$$CB_K_N@std@@@2@@std@@@std@@@0@U_Nonscalar_ptr_iterator_tag@0@@Z 1001ad20 f i SteamBase.obj
 0001:00019d20       ??$_Destroy_range@V?$allocator@V?$_List_iterator@V?$_List_val@U?$pair@$$CBKK@std@@V?$allocator@U?$pair@$$CBKK@std@@@2@@std@@@std@@@std@@@std@@YAXPAV?$_List_iterator@V?$_List_val@U?$pair@$$CBKK@std@@V?$allocator@U?$pair@$$CBKK@std@@@2@@std@@@0@0AAV?$allocator@V?$_List_iterator@V?$_List_val@U?$pair@$$CBKK@std@@V?$allocator@U?$pair@$$CBKK@std@@@2@@std@@@std@@@0@U_Nonscalar_ptr_iterator_tag@0@@Z 1001ad20 f i PatchMW2FilePointers.obj
 0001:00019d20       ??$_Destroy_range@V?$allocator@V?$_List_iterator@V?$_List_val@U?$pair@$$CBV?$basic_string@DU?$char_traits@D@std@@V?$allocator@D@2@@std@@P6AXH@Z@std@@V?$allocator@U?$pair@$$CBV?$basic_string@DU?$char_traits@D@std@@V?$allocator@D@2@@std@@P6AXH@Z@std@@@2@@std@@@std@@@std@@@std@@YAXPAV?$_List_iterator@V?$_List_val@U?$pair@$$CBV?$basic_string@DU?$char_traits@D@std@@V?$allocator@D@2@@std@@P6AXH@Z@std@@V?$allocator@U?$pair@$$CBV?$basic_string@DU?$char_traits@D@std@@V?$allocator@D@2@@std@@P6AXH@Z@std@@@2@@std@@@0@0AAV?$allocator@V?$_List_iterator@V?$_List_val@U?$pair@$$CBV?$basic_string@DU?$char_traits@D@std@@V?$allocator@D@2@@std@@P6AXH@Z@std@@V?$allocator@U?$pair@$$CBV?$basic_string@DU?$char_traits@D@std@@V?$allocator@D@2@@std@@P6AXH@Z@std@@@2@@std@@@std@@@0@U_Nonscalar_ptr_iterator_tag@0@@Z 1001ad20 f i GameInterface.obj
 0001:00019d20       ??$_Destroy_range@V?$allocator@V?$_List_iterator@V?$_List_val@U?$pair@$$CBHUNPFriend@@@std@@V?$allocator@U?$pair@$$CBHUNPFriend@@@std@@@2@@std@@@std@@@std@@@std@@YAXPAV?$_List_iterator@V?$_List_val@U?$pair@$$CBHUNPFriend@@@std@@V?$allocator@U?$pair@$$CBHUNPFriend@@@std@@@2@@std@@@0@0AAV?$allocator@V?$_List_iterator@V?$_List_val@U?$pair@$$CBHUNPFriend@@@std@@V?$allocator@U?$pair@$$CBHUNPFriend@@@std@@@2@@std@@@std@@@0@U_Nonscalar_ptr_iterator_tag@0@@Z 1001ad20 f i PatchMW2Friends.obj
 0001:00019d20       ??$_Destroy_range@V?$allocator@V?$_List_iterator@V?$_List_val@U?$pair@$$CBV?$basic_string@DU?$char_traits@D@std@@V?$allocator@D@2@@std@@_N@std@@V?$allocator@U?$pair@$$CBV?$basic_string@DU?$char_traits@D@std@@V?$allocator@D@2@@std@@_N@std@@@2@@std@@@std@@@std@@@std@@YAXPAV?$_List_iterator@V?$_List_val@U?$pair@$$CBV?$basic_string@DU?$char_traits@D@std@@V?$allocator@D@2@@std@@_N@std@@V?$allocator@U?$pair@$$CBV?$basic_string@DU?$char_traits@D@std@@V?$allocator@D@2@@std@@_N@std@@@2@@std@@@0@0AAV?$allocator@V?$_List_iterator@V?$_List_val@U?$pair@$$CBV?$basic_string@DU?$char_traits@D@std@@V?$allocator@D@2@@std@@_N@std@@V?$allocator@U?$pair@$$CBV?$basic_string@DU?$char_traits@D@std@@V?$allocator@D@2@@std@@_N@std@@@2@@std@@@std@@@0@U_Nonscalar_ptr_iterator_tag@0@@Z 1001ad20 f i PatchMW2Experiments.obj
 0001:00019d20       ??$_Destroy_range@V?$allocator@V?$_List_iterator@V?$_List_val@U?$pair@$$CB_KPAVCCallbackBase@@@std@@V?$allocator@U?$pair@$$CB_KPAVCCallbackBase@@@std@@@2@@std@@@std@@@std@@@std@@YAXPAV?$_List_iterator@V?$_List_val@U?$pair@$$CB_KPAVCCallbackBase@@@std@@V?$allocator@U?$pair@$$CB_KPAVCCallbackBase@@@std@@@2@@std@@@0@0AAV?$allocator@V?$_List_iterator@V?$_List_val@U?$pair@$$CB_KPAVCCallbackBase@@@std@@V?$allocator@U?$pair@$$CB_KPAVCCallbackBase@@@std@@@2@@std@@@std@@@0@U_Nonscalar_ptr_iterator_tag@0@@Z 1001ad20 f i SteamBase.obj
 0001:00019d50       ??$_Uninitialized_move@PAV?$_List_iterator@V?$_List_val@U?$pair@$$CBV?$basic_string@DU?$char_traits@D@std@@V?$allocator@D@2@@std@@_N@std@@V?$allocator@U?$pair@$$CBV?$basic_string@DU?$char_traits@D@std@@V?$allocator@D@2@@std@@_N@std@@@2@@std@@@std@@PAV12@V?$allocator@V?$_List_iterator@V?$_List_val@U?$pair@$$CBV?$basic_string@DU?$char_traits@D@std@@V?$allocator@D@2@@std@@_N@std@@V?$allocator@U?$pair@$$CBV?$basic_string@DU?$char_traits@D@std@@V?$allocator@D@2@@std@@_N@std@@@2@@std@@@std@@@2@@std@@YAPAV?$_List_iterator@V?$_List_val@U?$pair@$$CBV?$basic_string@DU?$char_traits@D@std@@V?$allocator@D@2@@std@@_N@std@@V?$allocator@U?$pair@$$CBV?$basic_string@DU?$char_traits@D@std@@V?$allocator@D@2@@std@@_N@std@@@2@@std@@@0@PAV10@00AAV?$allocator@V?$_List_iterator@V?$_List_val@U?$pair@$$CBV?$basic_string@DU?$char_traits@D@std@@V?$allocator@D@2@@std@@_N@std@@V?$allocator@U?$pair@$$CBV?$basic_string@DU?$char_traits@D@std@@V?$allocator@D@2@@std@@_N@std@@@2@@std@@@std@@@0@@Z 1001ad50 f i PatchMW2Experiments.obj
 0001:00019d50       ??$_Uninitialized_move@PAV?$_List_iterator@V?$_List_val@U?$pair@$$CBKK@std@@V?$allocator@U?$pair@$$CBKK@std@@@2@@std@@@std@@PAV12@V?$allocator@V?$_List_iterator@V?$_List_val@U?$pair@$$CBKK@std@@V?$allocator@U?$pair@$$CBKK@std@@@2@@std@@@std@@@2@@std@@YAPAV?$_List_iterator@V?$_List_val@U?$pair@$$CBKK@std@@V?$allocator@U?$pair@$$CBKK@std@@@2@@std@@@0@PAV10@00AAV?$allocator@V?$_List_iterator@V?$_List_val@U?$pair@$$CBKK@std@@V?$allocator@U?$pair@$$CBKK@std@@@2@@std@@@std@@@0@@Z 1001ad50 f i PatchMW2FilePointers.obj
 0001:00019d50       ??$_Uninitialized_move@PAV?$_List_iterator@V?$_List_val@U?$pair@$$CBV?$basic_string@DU?$char_traits@D@std@@V?$allocator@D@2@@std@@PAUVehicleDef@@@std@@V?$allocator@U?$pair@$$CBV?$basic_string@DU?$char_traits@D@std@@V?$allocator@D@2@@std@@PAUVehicleDef@@@std@@@2@@std@@@std@@PAV12@V?$allocator@V?$_List_iterator@V?$_List_val@U?$pair@$$CBV?$basic_string@DU?$char_traits@D@std@@V?$allocator@D@2@@std@@PAUVehicleDef@@@std@@V?$allocator@U?$pair@$$CBV?$basic_string@DU?$char_traits@D@std@@V?$allocator@D@2@@std@@PAUVehicleDef@@@std@@@2@@std@@@std@@@2@@std@@YAPAV?$_List_iterator@V?$_List_val@U?$pair@$$CBV?$basic_string@DU?$char_traits@D@std@@V?$allocator@D@2@@std@@PAUVehicleDef@@@std@@V?$allocator@U?$pair@$$CBV?$basic_string@DU?$char_traits@D@std@@V?$allocator@D@2@@std@@PAUVehicleDef@@@std@@@2@@std@@@0@PAV10@00AAV?$allocator@V?$_List_iterator@V?$_List_val@U?$pair@$$CBV?$basic_string@DU?$char_traits@D@std@@V?$allocator@D@2@@std@@PAUVehicleDef@@@std@@V?$allocator@U?$pair@$$CBV?$basic_string@DU?$char_traits@D@std@@V?$allocator@D@2@@std@@PAUVehicleDef@@@std@@@2@@std@@@std@@@0@@Z 1001ad50 f i PatchMW2LoadVehicleDef.obj
 0001:00019d50       ??$_Uninitialized_move@PAV?$_List_iterator@V?$_List_val@U?$pair@$$CB_K_N@std@@V?$allocator@U?$pair@$$CB_K_N@std@@@2@@std@@@std@@PAV12@V?$allocator@V?$_List_iterator@V?$_List_val@U?$pair@$$CB_K_N@std@@V?$allocator@U?$pair@$$CB_K_N@std@@@2@@std@@@std@@@2@@std@@YAPAV?$_List_iterator@V?$_List_val@U?$pair@$$CB_K_N@std@@V?$allocator@U?$pair@$$CB_K_N@std@@@2@@std@@@0@PAV10@00AAV?$allocator@V?$_List_iterator@V?$_List_val@U?$pair@$$CB_K_N@std@@V?$allocator@U?$pair@$$CB_K_N@std@@@2@@std@@@std@@@0@@Z 1001ad50 f i SteamBase.obj
 0001:00019d50       ??$_Uninitialized_move@PAV?$_List_iterator@V?$_List_val@U?$pair@$$CB_KPAVCCallbackBase@@@std@@V?$allocator@U?$pair@$$CB_KPAVCCallbackBase@@@std@@@2@@std@@@std@@PAV12@V?$allocator@V?$_List_iterator@V?$_List_val@U?$pair@$$CB_KPAVCCallbackBase@@@std@@V?$allocator@U?$pair@$$CB_KPAVCCallbackBase@@@std@@@2@@std@@@std@@@2@@std@@YAPAV?$_List_iterator@V?$_List_val@U?$pair@$$CB_KPAVCCallbackBase@@@std@@V?$allocator@U?$pair@$$CB_KPAVCCallbackBase@@@std@@@2@@std@@@0@PAV10@00AAV?$allocator@V?$_List_iterator@V?$_List_val@U?$pair@$$CB_KPAVCCallbackBase@@@std@@V?$allocator@U?$pair@$$CB_KPAVCCallbackBase@@@std@@@2@@std@@@std@@@0@@Z 1001ad50 f i SteamBase.obj
 0001:00019d50       ??$_Uninitialized_move@PAV?$_List_iterator@V?$_List_val@U?$pair@$$CBHUNPFriend@@@std@@V?$allocator@U?$pair@$$CBHUNPFriend@@@std@@@2@@std@@@std@@PAV12@V?$allocator@V?$_List_iterator@V?$_List_val@U?$pair@$$CBHUNPFriend@@@std@@V?$allocator@U?$pair@$$CBHUNPFriend@@@std@@@2@@std@@@std@@@2@@std@@YAPAV?$_List_iterator@V?$_List_val@U?$pair@$$CBHUNPFriend@@@std@@V?$allocator@U?$pair@$$CBHUNPFriend@@@std@@@2@@std@@@0@PAV10@00AAV?$allocator@V?$_List_iterator@V?$_List_val@U?$pair@$$CBHUNPFriend@@@std@@V?$allocator@U?$pair@$$CBHUNPFriend@@@std@@@2@@std@@@std@@@0@@Z 1001ad50 f i PatchMW2Friends.obj
 0001:00019d50       ??$_Uninitialized_move@PAV?$_List_iterator@V?$_List_val@U?$pair@$$CBK_N@std@@V?$allocator@U?$pair@$$CBK_N@std@@@2@@std@@@std@@PAV12@V?$allocator@V?$_List_iterator@V?$_List_val@U?$pair@$$CBK_N@std@@V?$allocator@U?$pair@$$CBK_N@std@@@2@@std@@@std@@@2@@std@@YAPAV?$_List_iterator@V?$_List_val@U?$pair@$$CBK_N@std@@V?$allocator@U?$pair@$$CBK_N@std@@@2@@std@@@0@PAV10@00AAV?$allocator@V?$_List_iterator@V?$_List_val@U?$pair@$$CBK_N@std@@V?$allocator@U?$pair@$$CBK_N@std@@@2@@std@@@std@@@0@@Z 1001ad50 f i PatchMW2AssetRestrict.obj
 0001:00019d50       ??$_Uninitialized_move@PAV?$_List_iterator@V?$_List_val@U?$pair@$$CBKPAX@std@@V?$allocator@U?$pair@$$CBKPAX@std@@@2@@std@@@std@@PAV12@V?$allocator@V?$_List_iterator@V?$_List_val@U?$pair@$$CBKPAX@std@@V?$allocator@U?$pair@$$CBKPAX@std@@@2@@std@@@std@@@2@@std@@YAPAV?$_List_iterator@V?$_List_val@U?$pair@$$CBKPAX@std@@V?$allocator@U?$pair@$$CBKPAX@std@@@2@@std@@@0@PAV10@00AAV?$allocator@V?$_List_iterator@V?$_List_val@U?$pair@$$CBKPAX@std@@V?$allocator@U?$pair@$$CBKPAX@std@@@2@@std@@@std@@@0@@Z 1001ad50 f i PatchMW2FilePointers.obj
 0001:00019d50       ??$_Uninitialized_move@PAV?$_List_iterator@V?$_List_val@U?$pair@QAXK@std@@V?$allocator@U?$pair@QAXK@std@@@2@@std@@@std@@PAV12@V?$allocator@V?$_List_iterator@V?$_List_val@U?$pair@QAXK@std@@V?$allocator@U?$pair@QAXK@std@@@2@@std@@@std@@@2@@std@@YAPAV?$_List_iterator@V?$_List_val@U?$pair@QAXK@std@@V?$allocator@U?$pair@QAXK@std@@@2@@std@@@0@PAV10@00AAV?$allocator@V?$_List_iterator@V?$_List_val@U?$pair@QAXK@std@@V?$allocator@U?$pair@QAXK@std@@@2@@std@@@std@@@0@@Z 1001ad50 f i PatchMW2FilePointers.obj
 0001:00019da0       ??$_Uninit_fill_n@PAV?$_List_iterator@V?$_List_val@U?$pair@QAXK@std@@V?$allocator@U?$pair@QAXK@std@@@2@@std@@@std@@IV12@V?$allocator@V?$_List_iterator@V?$_List_val@U?$pair@QAXK@std@@V?$allocator@U?$pair@QAXK@std@@@2@@std@@@std@@@2@V12@@std@@YAXPAV?$_List_iterator@V?$_List_val@U?$pair@QAXK@std@@V?$allocator@U?$pair@QAXK@std@@@2@@std@@@0@IPBV10@AAV?$allocator@V?$_List_iterator@V?$_List_val@U?$pair@QAXK@std@@V?$allocator@U?$pair@QAXK@std@@@2@@std@@@std@@@0@0U_Nonscalar_ptr_iterator_tag@0@@Z 1001ada0 f i PatchMW2FilePointers.obj
 0001:00019da0       ??$_Uninit_fill_n@PAV?$_List_iterator@V?$_List_val@U?$pair@$$CBV?$basic_string@DU?$char_traits@D@std@@V?$allocator@D@2@@std@@PAUVehicleDef@@@std@@V?$allocator@U?$pair@$$CBV?$basic_string@DU?$char_traits@D@std@@V?$allocator@D@2@@std@@PAUVehicleDef@@@std@@@2@@std@@@std@@IV12@V?$allocator@V?$_List_iterator@V?$_List_val@U?$pair@$$CBV?$basic_string@DU?$char_traits@D@std@@V?$allocator@D@2@@std@@PAUVehicleDef@@@std@@V?$allocator@U?$pair@$$CBV?$basic_string@DU?$char_traits@D@std@@V?$allocator@D@2@@std@@PAUVehicleDef@@@std@@@2@@std@@@std@@@2@V12@@std@@YAXPAV?$_List_iterator@V?$_List_val@U?$pair@$$CBV?$basic_string@DU?$char_traits@D@std@@V?$allocator@D@2@@std@@PAUVehicleDef@@@std@@V?$allocator@U?$pair@$$CBV?$basic_string@DU?$char_traits@D@std@@V?$allocator@D@2@@std@@PAUVehicleDef@@@std@@@2@@std@@@0@IPBV10@AAV?$allocator@V?$_List_iterator@V?$_List_val@U?$pair@$$CBV?$basic_string@DU?$char_traits@D@std@@V?$allocator@D@2@@std@@PAUVehicleDef@@@std@@V?$allocator@U?$pair@$$CBV?$basic_string@DU?$char_traits@D@std@@V?$allocator@D@2@@std@@PAUVehicleDef@@@std@@@2@@std@@@std@@@0@0U_Nonscalar_ptr_iterator_tag@0@@Z 1001ada0 f i PatchMW2LoadVehicleDef.obj
 0001:00019da0       ??$_Uninit_fill_n@PAV?$_List_iterator@V?$_List_val@U?$pair@$$CBKK@std@@V?$allocator@U?$pair@$$CBKK@std@@@2@@std@@@std@@IV12@V?$allocator@V?$_List_iterator@V?$_List_val@U?$pair@$$CBKK@std@@V?$allocator@U?$pair@$$CBKK@std@@@2@@std@@@std@@@2@V12@@std@@YAXPAV?$_List_iterator@V?$_List_val@U?$pair@$$CBKK@std@@V?$allocator@U?$pair@$$CBKK@std@@@2@@std@@@0@IPBV10@AAV?$allocator@V?$_List_iterator@V?$_List_val@U?$pair@$$CBKK@std@@V?$allocator@U?$pair@$$CBKK@std@@@2@@std@@@std@@@0@0U_Nonscalar_ptr_iterator_tag@0@@Z 1001ada0 f i PatchMW2FilePointers.obj
 0001:00019da0       ??$_Uninit_fill_n@PAV?$_List_iterator@V?$_List_val@U?$pair@$$CBHUNPFriend@@@std@@V?$allocator@U?$pair@$$CBHUNPFriend@@@std@@@2@@std@@@std@@IV12@V?$allocator@V?$_List_iterator@V?$_List_val@U?$pair@$$CBHUNPFriend@@@std@@V?$allocator@U?$pair@$$CBHUNPFriend@@@std@@@2@@std@@@std@@@2@V12@@std@@YAXPAV?$_List_iterator@V?$_List_val@U?$pair@$$CBHUNPFriend@@@std@@V?$allocator@U?$pair@$$CBHUNPFriend@@@std@@@2@@std@@@0@IPBV10@AAV?$allocator@V?$_List_iterator@V?$_List_val@U?$pair@$$CBHUNPFriend@@@std@@V?$allocator@U?$pair@$$CBHUNPFriend@@@std@@@2@@std@@@std@@@0@0U_Nonscalar_ptr_iterator_tag@0@@Z 1001ada0 f i PatchMW2Friends.obj
 0001:00019da0       ??$_Uninit_fill_n@PAV?$_List_iterator@V?$_List_val@U?$pair@$$CB_K_N@std@@V?$allocator@U?$pair@$$CB_K_N@std@@@2@@std@@@std@@IV12@V?$allocator@V?$_List_iterator@V?$_List_val@U?$pair@$$CB_K_N@std@@V?$allocator@U?$pair@$$CB_K_N@std@@@2@@std@@@std@@@2@V12@@std@@YAXPAV?$_List_iterator@V?$_List_val@U?$pair@$$CB_K_N@std@@V?$allocator@U?$pair@$$CB_K_N@std@@@2@@std@@@0@IPBV10@AAV?$allocator@V?$_List_iterator@V?$_List_val@U?$pair@$$CB_K_N@std@@V?$allocator@U?$pair@$$CB_K_N@std@@@2@@std@@@std@@@0@0U_Nonscalar_ptr_iterator_tag@0@@Z 1001ada0 f i SteamBase.obj
 0001:00019da0       ??$_Uninit_fill_n@PAV?$_List_iterator@V?$_List_val@U?$pair@$$CBKPAX@std@@V?$allocator@U?$pair@$$CBKPAX@std@@@2@@std@@@std@@IV12@V?$allocator@V?$_List_iterator@V?$_List_val@U?$pair@$$CBKPAX@std@@V?$allocator@U?$pair@$$CBKPAX@std@@@2@@std@@@std@@@2@V12@@std@@YAXPAV?$_List_iterator@V?$_List_val@U?$pair@$$CBKPAX@std@@V?$allocator@U?$pair@$$CBKPAX@std@@@2@@std@@@0@IPBV10@AAV?$allocator@V?$_List_iterator@V?$_List_val@U?$pair@$$CBKPAX@std@@V?$allocator@U?$pair@$$CBKPAX@std@@@2@@std@@@std@@@0@0U_Nonscalar_ptr_iterator_tag@0@@Z 1001ada0 f i PatchMW2FilePointers.obj
 0001:00019da0       ??$_Uninit_fill_n@PAV?$_List_iterator@V?$_List_val@U?$pair@$$CBV?$basic_string@DU?$char_traits@D@std@@V?$allocator@D@2@@std@@_N@std@@V?$allocator@U?$pair@$$CBV?$basic_string@DU?$char_traits@D@std@@V?$allocator@D@2@@std@@_N@std@@@2@@std@@@std@@IV12@V?$allocator@V?$_List_iterator@V?$_List_val@U?$pair@$$CBV?$basic_string@DU?$char_traits@D@std@@V?$allocator@D@2@@std@@_N@std@@V?$allocator@U?$pair@$$CBV?$basic_string@DU?$char_traits@D@std@@V?$allocator@D@2@@std@@_N@std@@@2@@std@@@std@@@2@V12@@std@@YAXPAV?$_List_iterator@V?$_List_val@U?$pair@$$CBV?$basic_string@DU?$char_traits@D@std@@V?$allocator@D@2@@std@@_N@std@@V?$allocator@U?$pair@$$CBV?$basic_string@DU?$char_traits@D@std@@V?$allocator@D@2@@std@@_N@std@@@2@@std@@@0@IPBV10@AAV?$allocator@V?$_List_iterator@V?$_List_val@U?$pair@$$CBV?$basic_string@DU?$char_traits@D@std@@V?$allocator@D@2@@std@@_N@std@@V?$allocator@U?$pair@$$CBV?$basic_string@DU?$char_traits@D@std@@V?$allocator@D@2@@std@@_N@std@@@2@@std@@@std@@@0@0U_Nonscalar_ptr_iterator_tag@0@@Z 1001ada0 f i PatchMW2Experiments.obj
 0001:00019da0       ??$_Uninit_fill_n@PAV?$_List_iterator@V?$_List_val@U?$pair@$$CBK_N@std@@V?$allocator@U?$pair@$$CBK_N@std@@@2@@std@@@std@@IV12@V?$allocator@V?$_List_iterator@V?$_List_val@U?$pair@$$CBK_N@std@@V?$allocator@U?$pair@$$CBK_N@std@@@2@@std@@@std@@@2@V12@@std@@YAXPAV?$_List_iterator@V?$_List_val@U?$pair@$$CBK_N@std@@V?$allocator@U?$pair@$$CBK_N@std@@@2@@std@@@0@IPBV10@AAV?$allocator@V?$_List_iterator@V?$_List_val@U?$pair@$$CBK_N@std@@V?$allocator@U?$pair@$$CBK_N@std@@@2@@std@@@std@@@0@0U_Nonscalar_ptr_iterator_tag@0@@Z 1001ada0 f i PatchMW2AssetRestrict.obj
 0001:00019da0       ??$_Uninit_fill_n@PAV?$_List_iterator@V?$_List_val@U?$pair@$$CB_KPAVCCallbackBase@@@std@@V?$allocator@U?$pair@$$CB_KPAVCCallbackBase@@@std@@@2@@std@@@std@@IV12@V?$allocator@V?$_List_iterator@V?$_List_val@U?$pair@$$CB_KPAVCCallbackBase@@@std@@V?$allocator@U?$pair@$$CB_KPAVCCallbackBase@@@std@@@2@@std@@@std@@@2@V12@@std@@YAXPAV?$_List_iterator@V?$_List_val@U?$pair@$$CB_KPAVCCallbackBase@@@std@@V?$allocator@U?$pair@$$CB_KPAVCCallbackBase@@@std@@@2@@std@@@0@IPBV10@AAV?$allocator@V?$_List_iterator@V?$_List_val@U?$pair@$$CB_KPAVCCallbackBase@@@std@@V?$allocator@U?$pair@$$CB_KPAVCCallbackBase@@@std@@@2@@std@@@std@@@0@0U_Nonscalar_ptr_iterator_tag@0@@Z 1001ada0 f i SteamBase.obj
 0001:00019e60       ??$_Construct@UAttachmentPatch@@ABU1@@std@@YAXPAUAttachmentPatch@@ABU1@@Z 1001ae60 f i PatchMW2PartialWeaponry.obj
 0001:00019e60       ??$_Construct@UUIFeeder_t@@ABU1@@std@@YAXPAUUIFeeder_t@@ABU1@@Z 1001ae60 f i PatchMW2Friends.obj
 0001:00019ef0       ??$_Insert_rv@U?$pair@$$CBHUNPFriend@@@std@@@?$list@U?$pair@$$CBHUNPFriend@@@std@@V?$allocator@U?$pair@$$CBHUNPFriend@@@std@@@2@@std@@QAEXV?$_List_const_iterator@V?$_List_val@U?$pair@$$CBHUNPFriend@@@std@@V?$allocator@U?$pair@$$CBHUNPFriend@@@std@@@2@@std@@@1@$$QAU?$pair@$$CBHUNPFriend@@@1@@Z 1001aef0 f i PatchMW2Friends.obj
 0001:00019f70       ??$_Uninit_move@PAUUIFeeder_t@@PAU1@V?$allocator@UUIFeeder_t@@@std@@U1@@std@@YAPAUUIFeeder_t@@PAU1@00AAV?$allocator@UUIFeeder_t@@@0@0U_Nonscalar_ptr_iterator_tag@0@@Z 1001af70 f i PatchMW2Friends.obj
 0001:0001a030       ??$_Uninit_move@PAV?$_List_iterator@V?$_List_val@U?$pair@$$CB_K_N@std@@V?$allocator@U?$pair@$$CB_K_N@std@@@2@@std@@@std@@PAV12@V?$allocator@V?$_List_iterator@V?$_List_val@U?$pair@$$CB_K_N@std@@V?$allocator@U?$pair@$$CB_K_N@std@@@2@@std@@@std@@@2@V12@@std@@YAPAV?$_List_iterator@V?$_List_val@U?$pair@$$CB_K_N@std@@V?$allocator@U?$pair@$$CB_K_N@std@@@2@@std@@@0@PAV10@00AAV?$allocator@V?$_List_iterator@V?$_List_val@U?$pair@$$CB_K_N@std@@V?$allocator@U?$pair@$$CB_K_N@std@@@2@@std@@@std@@@0@0U_Nonscalar_ptr_iterator_tag@0@@Z 1001b030 f i SteamBase.obj
 0001:0001a030       ??$_Uninit_move@PAV?$_List_iterator@V?$_List_val@U?$pair@$$CB_KPAVCCallbackBase@@@std@@V?$allocator@U?$pair@$$CB_KPAVCCallbackBase@@@std@@@2@@std@@@std@@PAV12@V?$allocator@V?$_List_iterator@V?$_List_val@U?$pair@$$CB_KPAVCCallbackBase@@@std@@V?$allocator@U?$pair@$$CB_KPAVCCallbackBase@@@std@@@2@@std@@@std@@@2@V12@@std@@YAPAV?$_List_iterator@V?$_List_val@U?$pair@$$CB_KPAVCCallbackBase@@@std@@V?$allocator@U?$pair@$$CB_KPAVCCallbackBase@@@std@@@2@@std@@@0@PAV10@00AAV?$allocator@V?$_List_iterator@V?$_List_val@U?$pair@$$CB_KPAVCCallbackBase@@@std@@V?$allocator@U?$pair@$$CB_KPAVCCallbackBase@@@std@@@2@@std@@@std@@@0@0U_Nonscalar_ptr_iterator_tag@0@@Z 1001b030 f i SteamBase.obj
 0001:0001a030       ??$_Uninit_move@PAV?$_List_iterator@V?$_List_val@U?$pair@$$CBV?$basic_string@DU?$char_traits@D@std@@V?$allocator@D@2@@std@@PAUVehicleDef@@@std@@V?$allocator@U?$pair@$$CBV?$basic_string@DU?$char_traits@D@std@@V?$allocator@D@2@@std@@PAUVehicleDef@@@std@@@2@@std@@@std@@PAV12@V?$allocator@V?$_List_iterator@V?$_List_val@U?$pair@$$CBV?$basic_string@DU?$char_traits@D@std@@V?$allocator@D@2@@std@@PAUVehicleDef@@@std@@V?$allocator@U?$pair@$$CBV?$basic_string@DU?$char_traits@D@std@@V?$allocator@D@2@@std@@PAUVehicleDef@@@std@@@2@@std@@@std@@@2@V12@@std@@YAPAV?$_List_iterator@V?$_List_val@U?$pair@$$CBV?$basic_string@DU?$char_traits@D@std@@V?$allocator@D@2@@std@@PAUVehicleDef@@@std@@V?$allocator@U?$pair@$$CBV?$basic_string@DU?$char_traits@D@std@@V?$allocator@D@2@@std@@PAUVehicleDef@@@std@@@2@@std@@@0@PAV10@00AAV?$allocator@V?$_List_iterator@V?$_List_val@U?$pair@$$CBV?$basic_string@DU?$char_traits@D@std@@V?$allocator@D@2@@std@@PAUVehicleDef@@@std@@V?$allocator@U?$pair@$$CBV?$basic_string@DU?$char_traits@D@std@@V?$allocator@D@2@@std@@PAUVehicleDef@@@std@@@2@@std@@@std@@@0@0U_Nonscalar_ptr_iterator_tag@0@@Z 1001b030 f i PatchMW2LoadVehicleDef.obj
 0001:0001a030       ??$_Uninit_move@PAV?$_List_iterator@V?$_List_val@U?$pair@$$CBKPAX@std@@V?$allocator@U?$pair@$$CBKPAX@std@@@2@@std@@@std@@PAV12@V?$allocator@V?$_List_iterator@V?$_List_val@U?$pair@$$CBKPAX@std@@V?$allocator@U?$pair@$$CBKPAX@std@@@2@@std@@@std@@@2@V12@@std@@YAPAV?$_List_iterator@V?$_List_val@U?$pair@$$CBKPAX@std@@V?$allocator@U?$pair@$$CBKPAX@std@@@2@@std@@@0@PAV10@00AAV?$allocator@V?$_List_iterator@V?$_List_val@U?$pair@$$CBKPAX@std@@V?$allocator@U?$pair@$$CBKPAX@std@@@2@@std@@@std@@@0@0U_Nonscalar_ptr_iterator_tag@0@@Z 1001b030 f i PatchMW2FilePointers.obj
 0001:0001a030       ??$_Uninit_move@PAV?$_List_iterator@V?$_List_val@U?$pair@$$CBKK@std@@V?$allocator@U?$pair@$$CBKK@std@@@2@@std@@@std@@PAV12@V?$allocator@V?$_List_iterator@V?$_List_val@U?$pair@$$CBKK@std@@V?$allocator@U?$pair@$$CBKK@std@@@2@@std@@@std@@@2@V12@@std@@YAPAV?$_List_iterator@V?$_List_val@U?$pair@$$CBKK@std@@V?$allocator@U?$pair@$$CBKK@std@@@2@@std@@@0@PAV10@00AAV?$allocator@V?$_List_iterator@V?$_List_val@U?$pair@$$CBKK@std@@V?$allocator@U?$pair@$$CBKK@std@@@2@@std@@@std@@@0@0U_Nonscalar_ptr_iterator_tag@0@@Z 1001b030 f i PatchMW2FilePointers.obj
 0001:0001a030       ??$_Uninit_move@PAV?$_List_iterator@V?$_List_val@U?$pair@$$CBK_N@std@@V?$allocator@U?$pair@$$CBK_N@std@@@2@@std@@@std@@PAV12@V?$allocator@V?$_List_iterator@V?$_List_val@U?$pair@$$CBK_N@std@@V?$allocator@U?$pair@$$CBK_N@std@@@2@@std@@@std@@@2@V12@@std@@YAPAV?$_List_iterator@V?$_List_val@U?$pair@$$CBK_N@std@@V?$allocator@U?$pair@$$CBK_N@std@@@2@@std@@@0@PAV10@00AAV?$allocator@V?$_List_iterator@V?$_List_val@U?$pair@$$CBK_N@std@@V?$allocator@U?$pair@$$CBK_N@std@@@2@@std@@@std@@@0@0U_Nonscalar_ptr_iterator_tag@0@@Z 1001b030 f i PatchMW2AssetRestrict.obj
 0001:0001a030       ??$_Uninit_move@PAV?$_List_iterator@V?$_List_val@U?$pair@QAXK@std@@V?$allocator@U?$pair@QAXK@std@@@2@@std@@@std@@PAV12@V?$allocator@V?$_List_iterator@V?$_List_val@U?$pair@QAXK@std@@V?$allocator@U?$pair@QAXK@std@@@2@@std@@@std@@@2@V12@@std@@YAPAV?$_List_iterator@V?$_List_val@U?$pair@QAXK@std@@V?$allocator@U?$pair@QAXK@std@@@2@@std@@@0@PAV10@00AAV?$allocator@V?$_List_iterator@V?$_List_val@U?$pair@QAXK@std@@V?$allocator@U?$pair@QAXK@std@@@2@@std@@@std@@@0@0U_Nonscalar_ptr_iterator_tag@0@@Z 1001b030 f i PatchMW2FilePointers.obj
 0001:0001a030       ??$_Uninit_move@PAV?$_List_iterator@V?$_List_val@U?$pair@$$CBV?$basic_string@DU?$char_traits@D@std@@V?$allocator@D@2@@std@@_N@std@@V?$allocator@U?$pair@$$CBV?$basic_string@DU?$char_traits@D@std@@V?$allocator@D@2@@std@@_N@std@@@2@@std@@@std@@PAV12@V?$allocator@V?$_List_iterator@V?$_List_val@U?$pair@$$CBV?$basic_string@DU?$char_traits@D@std@@V?$allocator@D@2@@std@@_N@std@@V?$allocator@U?$pair@$$CBV?$basic_string@DU?$char_traits@D@std@@V?$allocator@D@2@@std@@_N@std@@@2@@std@@@std@@@2@V12@@std@@YAPAV?$_List_iterator@V?$_List_val@U?$pair@$$CBV?$basic_string@DU?$char_traits@D@std@@V?$allocator@D@2@@std@@_N@std@@V?$allocator@U?$pair@$$CBV?$basic_string@DU?$char_traits@D@std@@V?$allocator@D@2@@std@@_N@std@@@2@@std@@@0@PAV10@00AAV?$allocator@V?$_List_iterator@V?$_List_val@U?$pair@$$CBV?$basic_string@DU?$char_traits@D@std@@V?$allocator@D@2@@std@@_N@std@@V?$allocator@U?$pair@$$CBV?$basic_string@DU?$char_traits@D@std@@V?$allocator@D@2@@std@@_N@std@@@2@@std@@@std@@@0@0U_Nonscalar_ptr_iterator_tag@0@@Z 1001b030 f i PatchMW2Experiments.obj
 0001:0001a030       ??$_Uninit_move@PAV?$_List_iterator@V?$_List_val@U?$pair@$$CBHUNPFriend@@@std@@V?$allocator@U?$pair@$$CBHUNPFriend@@@std@@@2@@std@@@std@@PAV12@V?$allocator@V?$_List_iterator@V?$_List_val@U?$pair@$$CBHUNPFriend@@@std@@V?$allocator@U?$pair@$$CBHUNPFriend@@@std@@@2@@std@@@std@@@2@V12@@std@@YAPAV?$_List_iterator@V?$_List_val@U?$pair@$$CBHUNPFriend@@@std@@V?$allocator@U?$pair@$$CBHUNPFriend@@@std@@@2@@std@@@0@PAV10@00AAV?$allocator@V?$_List_iterator@V?$_List_val@U?$pair@$$CBHUNPFriend@@@std@@V?$allocator@U?$pair@$$CBHUNPFriend@@@std@@@2@@std@@@std@@@0@0U_Nonscalar_ptr_iterator_tag@0@@Z 1001b030 f i PatchMW2Friends.obj
 0001:0001a0f0       ??$_Buynode@U?$pair@$$CBHUNPFriend@@@std@@@?$_List_val@U?$pair@$$CBHUNPFriend@@@std@@V?$allocator@U?$pair@$$CBHUNPFriend@@@std@@@2@@std@@QAEPAU_Node@?$_List_nod@U?$pair@$$CBHUNPFriend@@@std@@V?$allocator@U?$pair@$$CBHUNPFriend@@@std@@@2@@1@PAU231@0$$QAU?$pair@$$CBHUNPFriend@@@1@@Z 1001b0f0 f i PatchMW2Friends.obj
 0001:0001a1f0       ?allocate@?$allocator@U_Node@?$_List_nod@U?$pair@$$CBHUNPFriend@@@std@@V?$allocator@U?$pair@$$CBHUNPFriend@@@std@@@2@@std@@@std@@QAEPAU_Node@?$_List_nod@U?$pair@$$CBHUNPFriend@@@std@@V?$allocator@U?$pair@$$CBHUNPFriend@@@std@@@2@@2@I@Z 1001b1f0 f i PatchMW2Friends.obj
 0001:0001a210       ??$_Allocate@U_Node@?$_List_nod@U?$pair@$$CBHUNPFriend@@@std@@V?$allocator@U?$pair@$$CBHUNPFriend@@@std@@@2@@std@@@std@@YAPAU_Node@?$_List_nod@U?$pair@$$CBHUNPFriend@@@std@@V?$allocator@U?$pair@$$CBHUNPFriend@@@std@@@2@@0@IPAU120@@Z 1001b210 f i PatchMW2Friends.obj
 0001:0001a270       ??$_Cons_val@V?$allocator@U?$pair@$$CBHUNPFriend@@@std@@@std@@U?$pair@$$CBHUNPFriend@@@2@U32@@std@@YAXAAV?$allocator@U?$pair@$$CBHUNPFriend@@@std@@@0@PAU?$pair@$$CBHUNPFriend@@@0@$$QAU20@@Z 1001b270 f i PatchMW2Friends.obj
 0001:0001a290       ?construct@?$allocator@U?$pair@$$CBHUNPFriend@@@std@@@std@@QAEXPAU?$pair@$$CBHUNPFriend@@@2@$$QAU32@@Z 1001b290 f i PatchMW2Friends.obj
 0001:0001a310       ??$?0$$CBHUNPFriend@@@?$pair@$$CBHUNPFriend@@@std@@QAE@$$QAU01@@Z 1001b310 f i PatchMW2Friends.obj
 0001:0001a350       ??0?$_Pair_base@$$CBHUNPFriend@@@std@@QAE@$$QBH$$QAUNPFriend@@@Z 1001b350 f i PatchMW2Friends.obj
 0001:0001a3a0       ??0<unnamed-type-g_friends>@@QAE@XZ 1001b3a0 f i PatchMW2Friends.obj
 0001:0001a3c0       ??0?$unordered_map@HUNPFriend@@V?$hash@H@std@@U?$equal_to@H@3@V?$allocator@U?$pair@$$CBHUNPFriend@@@std@@@3@@tr1@std@@QAE@XZ 1001b3c0 f i PatchMW2Friends.obj
 0001:0001a3f0       ??0?$_Hash@V?$_Umap_traits@HUNPFriend@@V?$_Hash_compare@HV?$hash@H@std@@U?$equal_to@H@2@@std@@V?$allocator@U?$pair@$$CBHUNPFriend@@@std@@@3@$0A@@tr1@std@@@std@@QAE@ABV?$_Hash_compare@HV?$hash@H@std@@U?$equal_to@H@2@@1@ABV?$allocator@U?$pair@$$CBHUNPFriend@@@std@@@1@@Z 1001b3f0 f i PatchMW2Friends.obj
 0001:0001a480       ??0?$list@U?$pair@$$CBHUNPFriend@@@std@@V?$allocator@U?$pair@$$CBHUNPFriend@@@std@@@2@@std@@QAE@ABV?$allocator@U?$pair@$$CBHUNPFriend@@@std@@@1@@Z 1001b480 f i PatchMW2Friends.obj
 0001:0001a4b0       ??0?$_List_val@U?$pair@$$CBHUNPFriend@@@std@@V?$allocator@U?$pair@$$CBHUNPFriend@@@std@@@2@@std@@QAE@V?$allocator@U?$pair@$$CBHUNPFriend@@@std@@@1@@Z 1001b4b0 f i PatchMW2Friends.obj
 0001:0001a520       ??1<unnamed-type-g_friends>@@QAE@XZ 1001b520 f i PatchMW2Friends.obj
 0001:0001a540       ?PatchMW2_IGCAC@@YAXXZ     1001b540 f   PatchMW2IGCAC.obj
 0001:0001a550       ?crc24@@YAIPAEI@Z          1001b550 f   PatchMW2Packet.obj
 0001:0001a5d0       ?IP6Hash_IsIP6@@YA_NPAE@Z  1001b5d0 f   PatchMW2Packet.obj
 0001:0001a5f0       ?IP6Hash_Find@@YAIPAE@Z    1001b5f0 f   PatchMW2Packet.obj
 0001:0001a680       ?IP6Hash_Add@@YAIPAE@Z     1001b680 f   PatchMW2Packet.obj
 0001:0001a770       ?IP6Hash_6to4@@YAIPAE@Z    1001b770 f   PatchMW2Packet.obj
 0001:0001a7b0       ?IP6Hash_4to6@@YAPAEI@Z    1001b7b0 f   PatchMW2Packet.obj
 0001:0001a830       ?NET_ErrorString@@YAPADXZ  1001b830 f   PatchMW2Packet.obj
 0001:0001a860       ?Sys_StringToAdr@@YAHPBDPAUnetadr_t@@@Z 1001b860 f   PatchMW2Packet.obj
 0001:0001aaa0       ?NET_StringToAdr_c@@YA_NPBDPAUnetadr_t@@@Z 1001baa0 f   PatchMW2Packet.obj
 0001:0001ac20       ?NET_CompareBaseAdrSigned_c@@YA_NPAUnetadr_t@@0@Z 1001bc20 f   PatchMW2Packet.obj
 0001:0001ac80       ?NET_CompareAdrSigned_c@@YA_NPAUnetadr_t@@0@Z 1001bc80 f   PatchMW2Packet.obj
 0001:0001acd0       ?NET_AdrToString_c@@YAPBDUnetadr_t@@@Z 1001bcd0 f   PatchMW2Packet.obj
 0001:0001ae60       ?Sys_GetPacket_c@@YAHPAUnetadr_t@@PAUmsg_t@@@Z 1001be60 f   PatchMW2Packet.obj
 0001:0001b260       ?Sys_SendPacket_c@@YAXHPBDUnetadr_t@@@Z 1001c260 f   PatchMW2Packet.obj
 0001:0001b390       ?PatchMW2_Packet@@YAXXZ    1001c390 f   PatchMW2Packet.obj
 0001:0001b3c0       _gai_strerrorA             1001c3c0 f i PatchMW2Packet.obj
 0001:0001b400       ?strchr@@YAPADPADH@Z       1001c400 f i PatchMW2Packet.obj
 0001:0001b420       ?find@?$basic_string@DU?$char_traits@D@std@@V?$allocator@D@2@@std@@QBEIPBDI@Z 1001c420 f i PatchMW2Packet.obj
 0001:0001b450       ??$find@V?$_Vector_iterator@V?$_Vector_val@V?$basic_string@DU?$char_traits@D@std@@V?$allocator@D@2@@std@@V?$allocator@V?$basic_string@DU?$char_traits@D@std@@V?$allocator@D@2@@std@@@2@@std@@@std@@V?$basic_string@DU?$char_traits@D@std@@V?$allocator@D@2@@2@@std@@YA?AV?$_Vector_iterator@V?$_Vector_val@V?$basic_string@DU?$char_traits@D@std@@V?$allocator@D@2@@std@@V?$allocator@V?$basic_string@DU?$char_traits@D@std@@V?$allocator@D@2@@std@@@2@@std@@@0@V10@0ABV?$basic_string@DU?$char_traits@D@std@@V?$allocator@D@2@@0@@Z 1001c450 f i PatchMW2Packet.obj
 0001:0001b4a0       ??$transform@V?$_String_iterator@DU?$char_traits@D@std@@V?$allocator@D@2@@std@@V12@P6AHH@Z@std@@YA?AV?$_String_iterator@DU?$char_traits@D@std@@V?$allocator@D@2@@0@V10@00P6AHH@Z@Z 1001c4a0 f i PatchMW2Packet.obj
 0001:0001b500       ??$?9DU?$char_traits@D@std@@V?$allocator@D@1@@std@@YA_NABV?$basic_string@DU?$char_traits@D@std@@V?$allocator@D@2@@0@PBD@Z 1001c500 f i PatchMW2Packet.obj
 0001:0001b520       ??$_Find@PAV?$basic_string@DU?$char_traits@D@std@@V?$allocator@D@2@@std@@V12@@std@@YAPAV?$basic_string@DU?$char_traits@D@std@@V?$allocator@D@2@@0@PAV10@0ABV10@@Z 1001c520 f i PatchMW2Packet.obj
 0001:0001b560       ??$_Rechecked@V?$_Vector_val@V?$basic_string@DU?$char_traits@D@std@@V?$allocator@D@2@@std@@V?$allocator@V?$basic_string@DU?$char_traits@D@std@@V?$allocator@D@2@@std@@@2@@std@@@std@@YAAAV?$_Vector_iterator@V?$_Vector_val@V?$basic_string@DU?$char_traits@D@std@@V?$allocator@D@2@@std@@V?$allocator@V?$basic_string@DU?$char_traits@D@std@@V?$allocator@D@2@@std@@@2@@std@@@0@AAV10@PAV?$basic_string@DU?$char_traits@D@std@@V?$allocator@D@2@@0@@Z 1001c560 f i PatchMW2Packet.obj
 0001:0001b580       ??$_Unchecked@V?$_Vector_val@V?$basic_string@DU?$char_traits@D@std@@V?$allocator@D@2@@std@@V?$allocator@V?$basic_string@DU?$char_traits@D@std@@V?$allocator@D@2@@std@@@2@@std@@@std@@YAPAV?$basic_string@DU?$char_traits@D@std@@V?$allocator@D@2@@0@V?$_Vector_iterator@V?$_Vector_val@V?$basic_string@DU?$char_traits@D@std@@V?$allocator@D@2@@std@@V?$allocator@V?$basic_string@DU?$char_traits@D@std@@V?$allocator@D@2@@std@@@2@@std@@@0@@Z 1001c580 f i PatchMW2Packet.obj
 0001:0001b580       ??$_Unchecked@DU?$char_traits@D@std@@V?$allocator@D@2@@std@@YAPADV?$_String_iterator@DU?$char_traits@D@std@@V?$allocator@D@2@@0@@Z 1001c580 f i PatchMW2Packet.obj
 0001:0001b590       ??$_Transform@PADV?$_String_iterator@DU?$char_traits@D@std@@V?$allocator@D@2@@std@@P6AHH@Z@std@@YA?AV?$_String_iterator@DU?$char_traits@D@std@@V?$allocator@D@2@@0@PAD0V10@P6AHH@Z@Z 1001c590 f i PatchMW2Packet.obj
 0001:0001b5e0       ??$?8DU?$char_traits@D@std@@V?$allocator@D@1@@std@@YA_NABV?$basic_string@DU?$char_traits@D@std@@V?$allocator@D@2@@0@PBD@Z 1001c5e0 f i PatchMW2Packet.obj
 0001:0001b600       ??E?$_String_iterator@DU?$char_traits@D@std@@V?$allocator@D@2@@std@@QAEAAV01@XZ 1001c600 f i PatchMW2Packet.obj
 0001:0001b620       ??E?$_String_const_iterator@DU?$char_traits@D@std@@V?$allocator@D@2@@std@@QAEAAV01@XZ 1001c620 f i PatchMW2Packet.obj
 0001:0001b640       ?compare@?$basic_string@DU?$char_traits@D@std@@V?$allocator@D@2@@std@@QBEHPBD@Z 1001c640 f i PatchMW2Packet.obj
 0001:0001b670       ?end@?$basic_string@DU?$char_traits@D@std@@V?$allocator@D@2@@std@@QAE?AV?$_String_iterator@DU?$char_traits@D@std@@V?$allocator@D@2@@2@XZ 1001c670 f i PatchMW2Packet.obj
 0001:0001b6a0       ?begin@?$basic_string@DU?$char_traits@D@std@@V?$allocator@D@2@@std@@QAE?AV?$_String_iterator@DU?$char_traits@D@std@@V?$allocator@D@2@@2@XZ 1001c6a0 f i PatchMW2Packet.obj
 0001:0001b6d0       ??0?$_String_iterator@DU?$char_traits@D@std@@V?$allocator@D@2@@std@@QAE@PADPBU_Container_base0@1@@Z 1001c6d0 f i PatchMW2Packet.obj
 0001:0001b6f0       ??0?$_String_const_iterator@DU?$char_traits@D@std@@V?$allocator@D@2@@std@@QAE@PBDPBU_Container_base0@1@@Z 1001c6f0 f i PatchMW2Packet.obj
 0001:0001b720       ?BG_LoadAttachmentDef_LoadObj@@YAPAUAttachmentDef@@PBD@Z 1001c720 f   PatchMW2PartialWeaponry.obj
 0001:0001bab0       ?BG_LoadAttachmentDef@@YAPAUAttachmentDef@@PBD@Z 1001cab0 f   PatchMW2PartialWeaponry.obj
 0001:0001bad0       ?BG_FindAttachmentDef@@YAHPBD@Z 1001cad0 f   PatchMW2PartialWeaponry.obj
 0001:0001bb50       ?DoStringParse@@YAPADPBDPBUAttachmentPatch@@@Z 1001cb50 f   PatchMW2PartialWeaponry.obj
 0001:0001be00       ?BG_PatchWeaponDef@@YAXPADPAUAttachmentDef@@@Z 1001ce00 f   PatchMW2PartialWeaponry.obj
 0001:0001ce20       ?BG_LoadWeaponDef_LoadObj_hook@@YAPAXPBD@Z 1001de20 f   PatchMW2PartialWeaponry.obj
 0001:0001d0a0       ?WeaponDefInitHook@@YAXPAXHH@Z 1001e0a0 f   PatchMW2PartialWeaponry.obj
 0001:0001d0f0       ?PatchMW2_PartialWeaponry@@YAXXZ 1001e0f0 f   PatchMW2PartialWeaponry.obj
 0001:0001d200       ??0?$list@UAttachmentPatch@@V?$allocator@UAttachmentPatch@@@std@@@std@@QAE@XZ 1001e200 f i PatchMW2PartialWeaponry.obj
 0001:0001d230       ??1?$list@U?$pair@$$CBHUNPFriend@@@std@@V?$allocator@U?$pair@$$CBHUNPFriend@@@std@@@2@@std@@QAE@XZ 1001e230 f i PatchMW2Friends.obj
 0001:0001d230       ??1?$list@UAssetRelocation@@V?$allocator@UAssetRelocation@@@std@@@std@@QAE@XZ 1001e230 f i PatchMW2FilePointers.obj
 0001:0001d230       ??1?$list@U?$pair@$$CBKK@std@@V?$allocator@U?$pair@$$CBKK@std@@@2@@std@@QAE@XZ 1001e230 f i PatchMW2FilePointers.obj
 0001:0001d230       ??1?$list@U?$pair@$$CB_KPAVCCallbackBase@@@std@@V?$allocator@U?$pair@$$CB_KPAVCCallbackBase@@@std@@@2@@std@@QAE@XZ 1001e230 f i SteamBase.obj
 0001:0001d230       ??1?$list@U?$pair@$$CBK_N@std@@V?$allocator@U?$pair@$$CBK_N@std@@@2@@std@@QAE@XZ 1001e230 f i PatchMW2AssetRestrict.obj
 0001:0001d230       ??1?$list@U?$pair@$$CB_K_N@std@@V?$allocator@U?$pair@$$CB_K_N@std@@@2@@std@@QAE@XZ 1001e230 f i SteamBase.obj
 0001:0001d230       ??1?$list@UAttachmentPatch@@V?$allocator@UAttachmentPatch@@@std@@@std@@QAE@XZ 1001e230 f i PatchMW2PartialWeaponry.obj
 0001:0001d230       ??1?$list@U?$pair@$$CBKPAX@std@@V?$allocator@U?$pair@$$CBKPAX@std@@@2@@std@@QAE@XZ 1001e230 f i PatchMW2FilePointers.obj
 0001:0001d230       ??1?$list@U?$pair@QAXK@std@@V?$allocator@U?$pair@QAXK@std@@@2@@std@@QAE@XZ 1001e230 f i PatchMW2FilePointers.obj
 0001:0001d280       ?end@?$list@U?$pair@$$CBKPAX@std@@V?$allocator@U?$pair@$$CBKPAX@std@@@2@@std@@QAE?AV?$_List_iterator@V?$_List_val@U?$pair@$$CBKPAX@std@@V?$allocator@U?$pair@$$CBKPAX@std@@@2@@std@@@2@XZ 1001e280 f i PatchMW2FilePointers.obj
 0001:0001d280       ?end@?$list@U?$pair@$$CB_K_N@std@@V?$allocator@U?$pair@$$CB_K_N@std@@@2@@std@@QAE?AV?$_List_iterator@V?$_List_val@U?$pair@$$CB_K_N@std@@V?$allocator@U?$pair@$$CB_K_N@std@@@2@@std@@@2@XZ 1001e280 f i SteamBase.obj
 0001:0001d280       ?end@?$list@U?$pair@$$CBKK@std@@V?$allocator@U?$pair@$$CBKK@std@@@2@@std@@QAE?AV?$_List_iterator@V?$_List_val@U?$pair@$$CBKK@std@@V?$allocator@U?$pair@$$CBKK@std@@@2@@std@@@2@XZ 1001e280 f i PatchMW2FilePointers.obj
 0001:0001d280       ?end@?$list@U?$pair@$$CBV?$basic_string@DU?$char_traits@D@std@@V?$allocator@D@2@@std@@P6AXH@Z@std@@V?$allocator@U?$pair@$$CBV?$basic_string@DU?$char_traits@D@std@@V?$allocator@D@2@@std@@P6AXH@Z@std@@@2@@std@@QAE?AV?$_List_iterator@V?$_List_val@U?$pair@$$CBV?$basic_string@DU?$char_traits@D@std@@V?$allocator@D@2@@std@@P6AXH@Z@std@@V?$allocator@U?$pair@$$CBV?$basic_string@DU?$char_traits@D@std@@V?$allocator@D@2@@std@@P6AXH@Z@std@@@2@@std@@@2@XZ 1001e280 f i GameInterface.obj
 0001:0001d280       ?end@?$list@U?$pair@QAXK@std@@V?$allocator@U?$pair@QAXK@std@@@2@@std@@QAE?AV?$_List_iterator@V?$_List_val@U?$pair@QAXK@std@@V?$allocator@U?$pair@QAXK@std@@@2@@std@@@2@XZ 1001e280 f i PatchMW2FilePointers.obj
 0001:0001d280       ?end@?$list@U?$pair@$$CBV?$basic_string@DU?$char_traits@D@std@@V?$allocator@D@2@@std@@_N@std@@V?$allocator@U?$pair@$$CBV?$basic_string@DU?$char_traits@D@std@@V?$allocator@D@2@@std@@_N@std@@@2@@std@@QAE?AV?$_List_iterator@V?$_List_val@U?$pair@$$CBV?$basic_string@DU?$char_traits@D@std@@V?$allocator@D@2@@std@@_N@std@@V?$allocator@U?$pair@$$CBV?$basic_string@DU?$char_traits@D@std@@V?$allocator@D@2@@std@@_N@std@@@2@@std@@@2@XZ 1001e280 f i PatchMW2Experiments.obj
 0001:0001d280       ?end@?$list@UAssetRelocation@@V?$allocator@UAssetRelocation@@@std@@@std@@QAE?AV?$_List_iterator@V?$_List_val@UAssetRelocation@@V?$allocator@UAssetRelocation@@@std@@@std@@@2@XZ 1001e280 f i PatchMW2FilePointers.obj
 0001:0001d280       ?end@?$list@U?$pair@$$CB_KPAVCCallbackBase@@@std@@V?$allocator@U?$pair@$$CB_KPAVCCallbackBase@@@std@@@2@@std@@QAE?AV?$_List_iterator@V?$_List_val@U?$pair@$$CB_KPAVCCallbackBase@@@std@@V?$allocator@U?$pair@$$CB_KPAVCCallbackBase@@@std@@@2@@std@@@2@XZ 1001e280 f i SteamBase.obj
 0001:0001d280       ?end@?$list@U?$pair@$$CBHUNPFriend@@@std@@V?$allocator@U?$pair@$$CBHUNPFriend@@@std@@@2@@std@@QAE?AV?$_List_iterator@V?$_List_val@U?$pair@$$CBHUNPFriend@@@std@@V?$allocator@U?$pair@$$CBHUNPFriend@@@std@@@2@@std@@@2@XZ 1001e280 f i PatchMW2Friends.obj
 0001:0001d280       ?end@?$list@U?$pair@$$CBV?$basic_string@DU?$char_traits@D@std@@V?$allocator@D@2@@std@@PAUVehicleDef@@@std@@V?$allocator@U?$pair@$$CBV?$basic_string@DU?$char_traits@D@std@@V?$allocator@D@2@@std@@PAUVehicleDef@@@std@@@2@@std@@QAE?AV?$_List_iterator@V?$_List_val@U?$pair@$$CBV?$basic_string@DU?$char_traits@D@std@@V?$allocator@D@2@@std@@PAUVehicleDef@@@std@@V?$allocator@U?$pair@$$CBV?$basic_string@DU?$char_traits@D@std@@V?$allocator@D@2@@std@@PAUVehicleDef@@@std@@@2@@std@@@2@XZ 1001e280 f i PatchMW2LoadVehicleDef.obj
 0001:0001d280       ?end@?$list@UAttachmentPatch@@V?$allocator@UAttachmentPatch@@@std@@@std@@QAE?AV?$_List_iterator@V?$_List_val@UAttachmentPatch@@V?$allocator@UAttachmentPatch@@@std@@@std@@@2@XZ 1001e280 f i PatchMW2PartialWeaponry.obj
 0001:0001d280       ?end@?$list@U?$pair@$$CBK_N@std@@V?$allocator@U?$pair@$$CBK_N@std@@@2@@std@@QAE?AV?$_List_iterator@V?$_List_val@U?$pair@$$CBK_N@std@@V?$allocator@U?$pair@$$CBK_N@std@@@2@@std@@@2@XZ 1001e280 f i PatchMW2AssetRestrict.obj
 0001:0001d2b0       ?push_back@?$list@UAttachmentPatch@@V?$allocator@UAttachmentPatch@@@std@@@std@@QAEXABUAttachmentPatch@@@Z 1001e2b0 f i PatchMW2PartialWeaponry.obj
 0001:0001d2e0       ??D?$_List_iterator@V?$_List_val@U?$pair@$$CBHUNPFriend@@@std@@V?$allocator@U?$pair@$$CBHUNPFriend@@@std@@@2@@std@@@std@@QBEAAU?$pair@$$CBHUNPFriend@@@1@XZ 1001e2e0 f i PatchMW2Friends.obj
 0001:0001d2e0       ??D?$_List_iterator@V?$_List_val@U?$pair@$$CBKPAX@std@@V?$allocator@U?$pair@$$CBKPAX@std@@@2@@std@@@std@@QBEAAU?$pair@$$CBKPAX@1@XZ 1001e2e0 f i PatchMW2FilePointers.obj
 0001:0001d2e0       ??D?$_List_iterator@V?$_List_val@U?$pair@$$CB_K_N@std@@V?$allocator@U?$pair@$$CB_K_N@std@@@2@@std@@@std@@QBEAAU?$pair@$$CB_K_N@1@XZ 1001e2e0 f i SteamBase.obj
 0001:0001d2e0       ??D?$_List_iterator@V?$_List_val@U?$pair@QAXK@std@@V?$allocator@U?$pair@QAXK@std@@@2@@std@@@std@@QBEAAU?$pair@QAXK@1@XZ 1001e2e0 f i PatchMW2FilePointers.obj
 0001:0001d2e0       ??D?$_List_iterator@V?$_List_val@U?$pair@$$CBKK@std@@V?$allocator@U?$pair@$$CBKK@std@@@2@@std@@@std@@QBEAAU?$pair@$$CBKK@1@XZ 1001e2e0 f i PatchMW2FilePointers.obj
 0001:0001d2e0       ??D?$_List_iterator@V?$_List_val@UAttachmentPatch@@V?$allocator@UAttachmentPatch@@@std@@@std@@@std@@QBEAAUAttachmentPatch@@XZ 1001e2e0 f i PatchMW2PartialWeaponry.obj
 0001:0001d2e0       ??D?$_List_iterator@V?$_List_val@U?$pair@$$CBV?$basic_string@DU?$char_traits@D@std@@V?$allocator@D@2@@std@@PAUVehicleDef@@@std@@V?$allocator@U?$pair@$$CBV?$basic_string@DU?$char_traits@D@std@@V?$allocator@D@2@@std@@PAUVehicleDef@@@std@@@2@@std@@@std@@QBEAAU?$pair@$$CBV?$basic_string@DU?$char_traits@D@std@@V?$allocator@D@2@@std@@PAUVehicleDef@@@1@XZ 1001e2e0 f i PatchMW2LoadVehicleDef.obj
 0001:0001d2e0       ??C?$_List_unchecked_const_iterator@V?$_List_val@UAssetRelocation@@V?$allocator@UAssetRelocation@@@std@@@std@@U_Iterator_base0@2@@std@@QBEPBUAssetRelocation@@XZ 1001e2e0 f i PatchMW2FilePointers.obj
 0001:0001d2e0       ??D?$_List_iterator@V?$_List_val@U?$pair@$$CB_KPAVCCallbackBase@@@std@@V?$allocator@U?$pair@$$CB_KPAVCCallbackBase@@@std@@@2@@std@@@std@@QBEAAU?$pair@$$CB_KPAVCCallbackBase@@@1@XZ 1001e2e0 f i SteamBase.obj
 0001:0001d2e0       ??D?$_List_iterator@V?$_List_val@U?$pair@$$CBV?$basic_string@DU?$char_traits@D@std@@V?$allocator@D@2@@std@@_N@std@@V?$allocator@U?$pair@$$CBV?$basic_string@DU?$char_traits@D@std@@V?$allocator@D@2@@std@@_N@std@@@2@@std@@@std@@QBEAAU?$pair@$$CBV?$basic_string@DU?$char_traits@D@std@@V?$allocator@D@2@@std@@_N@1@XZ 1001e2e0 f i PatchMW2Experiments.obj
 0001:0001d2e0       ??D?$_List_iterator@V?$_List_val@U?$pair@$$CBV?$basic_string@DU?$char_traits@D@std@@V?$allocator@D@2@@std@@P6AXH@Z@std@@V?$allocator@U?$pair@$$CBV?$basic_string@DU?$char_traits@D@std@@V?$allocator@D@2@@std@@P6AXH@Z@std@@@2@@std@@@std@@QBEAAU?$pair@$$CBV?$basic_string@DU?$char_traits@D@std@@V?$allocator@D@2@@std@@P6AXH@Z@1@XZ 1001e2e0 f i GameInterface.obj
 0001:0001d300       ??E?$_List_iterator@V?$_List_val@UAttachmentPatch@@V?$allocator@UAttachmentPatch@@@std@@@std@@@std@@QAE?AV01@H@Z 1001e300 f i PatchMW2PartialWeaponry.obj
 0001:0001d330       ?_Insert@?$list@UAttachmentPatch@@V?$allocator@UAttachmentPatch@@@std@@@std@@QAEXV?$_List_const_iterator@V?$_List_val@UAttachmentPatch@@V?$allocator@UAttachmentPatch@@@std@@@std@@@2@ABUAttachmentPatch@@@Z 1001e330 f i PatchMW2PartialWeaponry.obj
 0001:0001d3b0       ?_Tidy@?$list@UAssetRelocation@@V?$allocator@UAssetRelocation@@@std@@@std@@QAEXXZ 1001e3b0 f i PatchMW2FilePointers.obj
 0001:0001d3b0       ?_Tidy@?$list@U?$pair@$$CBHUNPFriend@@@std@@V?$allocator@U?$pair@$$CBHUNPFriend@@@std@@@2@@std@@QAEXXZ 1001e3b0 f i PatchMW2Friends.obj
 0001:0001d3b0       ?_Tidy@?$list@U?$pair@$$CB_KPAVCCallbackBase@@@std@@V?$allocator@U?$pair@$$CB_KPAVCCallbackBase@@@std@@@2@@std@@QAEXXZ 1001e3b0 f i SteamBase.obj
 0001:0001d3b0       ?_Tidy@?$list@U?$pair@$$CBKK@std@@V?$allocator@U?$pair@$$CBKK@std@@@2@@std@@QAEXXZ 1001e3b0 f i PatchMW2FilePointers.obj
 0001:0001d3b0       ?_Tidy@?$list@UAttachmentPatch@@V?$allocator@UAttachmentPatch@@@std@@@std@@QAEXXZ 1001e3b0 f i PatchMW2PartialWeaponry.obj
 0001:0001d3b0       ?_Tidy@?$list@U?$pair@QAXK@std@@V?$allocator@U?$pair@QAXK@std@@@2@@std@@QAEXXZ 1001e3b0 f i PatchMW2FilePointers.obj
 0001:0001d3b0       ?_Tidy@?$list@U?$pair@$$CBK_N@std@@V?$allocator@U?$pair@$$CBK_N@std@@@2@@std@@QAEXXZ 1001e3b0 f i PatchMW2AssetRestrict.obj
 0001:0001d3b0       ?_Tidy@?$list@U?$pair@$$CBKPAX@std@@V?$allocator@U?$pair@$$CBKPAX@std@@@2@@std@@QAEXXZ 1001e3b0 f i PatchMW2FilePointers.obj
 0001:0001d3b0       ?_Tidy@?$list@U?$pair@$$CB_K_N@std@@V?$allocator@U?$pair@$$CB_K_N@std@@@2@@std@@QAEXXZ 1001e3b0 f i SteamBase.obj
 0001:0001d3d0       ??D?$_List_const_iterator@V?$_List_val@U?$pair@$$CBV?$basic_string@DU?$char_traits@D@std@@V?$allocator@D@2@@std@@PAUVehicleDef@@@std@@V?$allocator@U?$pair@$$CBV?$basic_string@DU?$char_traits@D@std@@V?$allocator@D@2@@std@@PAUVehicleDef@@@std@@@2@@std@@@std@@QBEABU?$pair@$$CBV?$basic_string@DU?$char_traits@D@std@@V?$allocator@D@2@@std@@PAUVehicleDef@@@1@XZ 1001e3d0 f i PatchMW2LoadVehicleDef.obj
 0001:0001d3d0       ??D?$_List_const_iterator@V?$_List_val@U?$pair@$$CBKK@std@@V?$allocator@U?$pair@$$CBKK@std@@@2@@std@@@std@@QBEABU?$pair@$$CBKK@1@XZ 1001e3d0 f i PatchMW2FilePointers.obj
 0001:0001d3d0       ??D?$_List_const_iterator@V?$_List_val@U?$pair@$$CB_K_N@std@@V?$allocator@U?$pair@$$CB_K_N@std@@@2@@std@@@std@@QBEABU?$pair@$$CB_K_N@1@XZ 1001e3d0 f i SteamBase.obj
 0001:0001d3d0       ??D?$_List_const_iterator@V?$_List_val@U?$pair@$$CBV?$basic_string@DU?$char_traits@D@std@@V?$allocator@D@2@@std@@P6AXH@Z@std@@V?$allocator@U?$pair@$$CBV?$basic_string@DU?$char_traits@D@std@@V?$allocator@D@2@@std@@P6AXH@Z@std@@@2@@std@@@std@@QBEABU?$pair@$$CBV?$basic_string@DU?$char_traits@D@std@@V?$allocator@D@2@@std@@P6AXH@Z@1@XZ 1001e3d0 f i GameInterface.obj
 0001:0001d3d0       ??D?$_List_const_iterator@V?$_List_val@U?$pair@$$CBV?$basic_string@DU?$char_traits@D@std@@V?$allocator@D@2@@std@@_N@std@@V?$allocator@U?$pair@$$CBV?$basic_string@DU?$char_traits@D@std@@V?$allocator@D@2@@std@@_N@std@@@2@@std@@@std@@QBEABU?$pair@$$CBV?$basic_string@DU?$char_traits@D@std@@V?$allocator@D@2@@std@@_N@1@XZ 1001e3d0 f i PatchMW2Experiments.obj
 0001:0001d3d0       ??D?$_List_const_iterator@V?$_List_val@U?$pair@$$CBHUNPFriend@@@std@@V?$allocator@U?$pair@$$CBHUNPFriend@@@std@@@2@@std@@@std@@QBEABU?$pair@$$CBHUNPFriend@@@1@XZ 1001e3d0 f i PatchMW2Friends.obj
 0001:0001d3d0       ??D?$_List_const_iterator@V?$_List_val@U?$pair@$$CBKPAX@std@@V?$allocator@U?$pair@$$CBKPAX@std@@@2@@std@@@std@@QBEABU?$pair@$$CBKPAX@1@XZ 1001e3d0 f i PatchMW2FilePointers.obj
 0001:0001d3d0       ??D?$_List_const_iterator@V?$_List_val@U?$pair@QAXK@std@@V?$allocator@U?$pair@QAXK@std@@@2@@std@@@std@@QBEABU?$pair@QAXK@1@XZ 1001e3d0 f i PatchMW2FilePointers.obj
 0001:0001d3d0       ??D?$_List_unchecked_const_iterator@V?$_List_val@UAssetRelocation@@V?$allocator@UAssetRelocation@@@std@@@std@@U_Iterator_base0@2@@std@@QBEABUAssetRelocation@@XZ 1001e3d0 f i PatchMW2FilePointers.obj
 0001:0001d3d0       ??D?$_List_const_iterator@V?$_List_val@U?$pair@$$CB_KPAVCCallbackBase@@@std@@V?$allocator@U?$pair@$$CB_KPAVCCallbackBase@@@std@@@2@@std@@@std@@QBEABU?$pair@$$CB_KPAVCCallbackBase@@@1@XZ 1001e3d0 f i SteamBase.obj
 0001:0001d3d0       ??D?$_List_const_iterator@V?$_List_val@UAttachmentPatch@@V?$allocator@UAttachmentPatch@@@std@@@std@@@std@@QBEABUAttachmentPatch@@XZ 1001e3d0 f i PatchMW2PartialWeaponry.obj
 0001:0001d3f0       ?clear@?$list@U?$pair@$$CB_KPAVCCallbackBase@@@std@@V?$allocator@U?$pair@$$CB_KPAVCCallbackBase@@@std@@@2@@std@@QAEXXZ 1001e3f0 f i SteamBase.obj
 0001:0001d3f0       ?clear@?$list@UAssetRelocation@@V?$allocator@UAssetRelocation@@@std@@@std@@QAEXXZ 1001e3f0 f i PatchMW2FilePointers.obj
 0001:0001d3f0       ?clear@?$list@U?$pair@QAXK@std@@V?$allocator@U?$pair@QAXK@std@@@2@@std@@QAEXXZ 1001e3f0 f i PatchMW2FilePointers.obj
 0001:0001d3f0       ?clear@?$list@U?$pair@$$CBKK@std@@V?$allocator@U?$pair@$$CBKK@std@@@2@@std@@QAEXXZ 1001e3f0 f i PatchMW2FilePointers.obj
 0001:0001d3f0       ?clear@?$list@UAttachmentPatch@@V?$allocator@UAttachmentPatch@@@std@@@std@@QAEXXZ 1001e3f0 f i PatchMW2PartialWeaponry.obj
 0001:0001d3f0       ?clear@?$list@U?$pair@$$CBK_N@std@@V?$allocator@U?$pair@$$CBK_N@std@@@2@@std@@QAEXXZ 1001e3f0 f i PatchMW2AssetRestrict.obj
 0001:0001d3f0       ?clear@?$list@U?$pair@$$CBHUNPFriend@@@std@@V?$allocator@U?$pair@$$CBHUNPFriend@@@std@@@2@@std@@QAEXXZ 1001e3f0 f i PatchMW2Friends.obj
 0001:0001d3f0       ?clear@?$list@U?$pair@$$CB_K_N@std@@V?$allocator@U?$pair@$$CB_K_N@std@@@2@@std@@QAEXXZ 1001e3f0 f i SteamBase.obj
 0001:0001d3f0       ?clear@?$list@U?$pair@$$CBKPAX@std@@V?$allocator@U?$pair@$$CBKPAX@std@@@2@@std@@QAEXXZ 1001e3f0 f i PatchMW2FilePointers.obj
 0001:0001d490       ?_Buynode@?$_List_val@UAttachmentPatch@@V?$allocator@UAttachmentPatch@@@std@@@std@@QAEPAU_Node@?$_List_nod@UAttachmentPatch@@V?$allocator@UAttachmentPatch@@@std@@@2@PAU342@0ABUAttachmentPatch@@@Z 1001e490 f i PatchMW2PartialWeaponry.obj
 0001:0001d580       ?deallocate@?$allocator@V?$deque@U?$pair@PAEPAE@std@@V?$allocator@U?$pair@PAEPAE@std@@@2@@std@@@std@@QAEXPAV?$deque@U?$pair@PAEPAE@std@@V?$allocator@U?$pair@PAEPAE@std@@@2@@2@I@Z 1001e580 f i PatchMW2StringTable.obj
 0001:0001d580       ?deallocate@?$allocator@V?$_List_iterator@V?$_List_val@U?$pair@$$CBKK@std@@V?$allocator@U?$pair@$$CBKK@std@@@2@@std@@@std@@@std@@QAEXPAV?$_List_iterator@V?$_List_val@U?$pair@$$CBKK@std@@V?$allocator@U?$pair@$$CBKK@std@@@2@@std@@@2@I@Z 1001e580 f i PatchMW2FilePointers.obj
 0001:0001d580       ?deallocate@?$allocator@V?$_List_iterator@V?$_List_val@U?$pair@$$CBV?$basic_string@DU?$char_traits@D@std@@V?$allocator@D@2@@std@@P6AXH@Z@std@@V?$allocator@U?$pair@$$CBV?$basic_string@DU?$char_traits@D@std@@V?$allocator@D@2@@std@@P6AXH@Z@std@@@2@@std@@@std@@@std@@QAEXPAV?$_List_iterator@V?$_List_val@U?$pair@$$CBV?$basic_string@DU?$char_traits@D@std@@V?$allocator@D@2@@std@@P6AXH@Z@std@@V?$allocator@U?$pair@$$CBV?$basic_string@DU?$char_traits@D@std@@V?$allocator@D@2@@std@@P6AXH@Z@std@@@2@@std@@@2@I@Z 1001e580 f i GameInterface.obj
 0001:0001d580       ?deallocate@?$allocator@USteamAPIResult_s@@@std@@QAEXPAUSteamAPIResult_s@@I@Z 1001e580 f i SteamBase.obj
 0001:0001d580       ?deallocate@?$allocator@U_Node@?$_List_nod@UAttachmentPatch@@V?$allocator@UAttachmentPatch@@@std@@@std@@@std@@QAEXPAU_Node@?$_List_nod@UAttachmentPatch@@V?$allocator@UAttachmentPatch@@@std@@@2@I@Z 1001e580 f i PatchMW2PartialWeaponry.obj
 0001:0001d580       ?deallocate@?$allocator@Unetadr_t@@@std@@QAEXPAUnetadr_t@@I@Z 1001e580 f i PatchMW2Redirect.obj
 0001:0001d580       ?deallocate@?$allocator@U_Node@?$_List_nod@U?$pair@$$CBV?$basic_string@DU?$char_traits@D@std@@V?$allocator@D@2@@std@@_N@std@@V?$allocator@U?$pair@$$CBV?$basic_string@DU?$char_traits@D@std@@V?$allocator@D@2@@std@@_N@std@@@2@@std@@@std@@QAEXPAU_Node@?$_List_nod@U?$pair@$$CBV?$basic_string@DU?$char_traits@D@std@@V?$allocator@D@2@@std@@_N@std@@V?$allocator@U?$pair@$$CBV?$basic_string@DU?$char_traits@D@std@@V?$allocator@D@2@@std@@_N@std@@@2@@2@I@Z 1001e580 f i PatchMW2Experiments.obj
 0001:0001d580       ?deallocate@?$allocator@PAV?$deque@U?$pair@PAEPAE@std@@V?$allocator@U?$pair@PAEPAE@std@@@2@@std@@@std@@QAEXPAPAV?$deque@U?$pair@PAEPAE@std@@V?$allocator@U?$pair@PAEPAE@std@@@2@@2@I@Z 1001e580 f i PatchMW2StringTable.obj
 0001:0001d580       ?deallocate@?$allocator@PAUdownload_s@@@std@@QAEXPAPAUdownload_s@@I@Z 1001e580 f i PatchMW2DownloadCL.obj
 0001:0001d580       ?deallocate@?$allocator@D@std@@QAEXPADI@Z 1001e580 f i Auth.obj
 0001:0001d580       ?deallocate@?$allocator@USteamInterface2_s@@@std@@QAEXPAUSteamInterface2_s@@I@Z 1001e580 f i SteamBase.obj
 0001:0001d580       ?deallocate@?$allocator@U_Container_proxy@std@@@std@@QAEXPAU_Container_proxy@2@I@Z 1001e580 f i PatchMW2DownloadCL.obj
 0001:0001d580       ?deallocate@?$allocator@U_Node@?$_Tree_nod@V?$_Tmap_traits@HPAUnewWeapon@@U?$less@H@std@@V?$allocator@U?$pair@$$CBHPAUnewWeapon@@@std@@@3@$0A@@std@@@std@@@std@@QAEXPAU_Node@?$_Tree_nod@V?$_Tmap_traits@HPAUnewWeapon@@U?$less@H@std@@V?$allocator@U?$pair@$$CBHPAUnewWeapon@@@std@@@3@$0A@@std@@@2@I@Z 1001e580 f i PatchMW2PlayerdataDefinition.obj
 0001:0001d580       ?deallocate@?$allocator@PAU?$pair@PAEPAE@std@@@std@@QAEXPAPAU?$pair@PAEPAE@2@I@Z 1001e580 f i PatchMW2StringTable.obj
 0001:0001d580       ?deallocate@?$allocator@V?$basic_string@DU?$char_traits@D@std@@V?$allocator@D@2@@std@@@std@@QAEXPAV?$basic_string@DU?$char_traits@D@std@@V?$allocator@D@2@@2@I@Z 1001e580 f i MW2.obj
 0001:0001d580       ?deallocate@?$allocator@Ugscr_file_t@@@std@@QAEXPAUgscr_file_t@@I@Z 1001e580 f i Script.obj
 0001:0001d580       ?deallocate@?$allocator@U_Node@?$_List_nod@U?$pair@$$CBKK@std@@V?$allocator@U?$pair@$$CBKK@std@@@2@@std@@@std@@QAEXPAU_Node@?$_List_nod@U?$pair@$$CBKK@std@@V?$allocator@U?$pair@$$CBKK@std@@@2@@2@I@Z 1001e580 f i PatchMW2FilePointers.obj
 0001:0001d580       ?deallocate@?$allocator@U?$pair@PAEPAE@std@@@std@@QAEXPAU?$pair@PAEPAE@2@I@Z 1001e580 f i PatchMW2StringTable.obj
 0001:0001d580       ?deallocate@?$allocator@V?$_List_iterator@V?$_List_val@U?$pair@$$CBHUNPFriend@@@std@@V?$allocator@U?$pair@$$CBHUNPFriend@@@std@@@2@@std@@@std@@@std@@QAEXPAV?$_List_iterator@V?$_List_val@U?$pair@$$CBHUNPFriend@@@std@@V?$allocator@U?$pair@$$CBHUNPFriend@@@std@@@2@@std@@@2@I@Z 1001e580 f i PatchMW2Friends.obj
 0001:0001d580       ?deallocate@?$allocator@U_Node@?$_List_nod@U?$pair@QAXK@std@@V?$allocator@U?$pair@QAXK@std@@@2@@std@@@std@@QAEXPAU_Node@?$_List_nod@U?$pair@QAXK@std@@V?$allocator@U?$pair@QAXK@std@@@2@@2@I@Z 1001e580 f i PatchMW2FilePointers.obj
 0001:0001d580       ?deallocate@?$allocator@V?$_List_iterator@V?$_List_val@U?$pair@$$CBV?$basic_string@DU?$char_traits@D@std@@V?$allocator@D@2@@std@@PAUVehicleDef@@@std@@V?$allocator@U?$pair@$$CBV?$basic_string@DU?$char_traits@D@std@@V?$allocator@D@2@@std@@PAUVehicleDef@@@std@@@2@@std@@@std@@@std@@QAEXPAV?$_List_iterator@V?$_List_val@U?$pair@$$CBV?$basic_string@DU?$char_traits@D@std@@V?$allocator@D@2@@std@@PAUVehicleDef@@@std@@V?$allocator@U?$pair@$$CBV?$basic_string@DU?$char_traits@D@std@@V?$allocator@D@2@@std@@PAUVehicleDef@@@std@@@2@@std@@@2@I@Z 1001e580 f i PatchMW2LoadVehicleDef.obj
 0001:0001d580       ?deallocate@?$allocator@U_Node@?$_List_nod@UAssetRelocation@@V?$allocator@UAssetRelocation@@@std@@@std@@@std@@QAEXPAU_Node@?$_List_nod@UAssetRelocation@@V?$allocator@UAssetRelocation@@@std@@@2@I@Z 1001e580 f i PatchMW2FilePointers.obj
 0001:0001d580       ?deallocate@?$allocator@PAUmenuDef_t@@@std@@QAEXPAPAUmenuDef_t@@I@Z 1001e580 f i PatchMW2UILoading.obj
 0001:0001d580       ?deallocate@?$allocator@U_Node@?$_List_nod@U?$pair@$$CBV?$basic_string@DU?$char_traits@D@std@@V?$allocator@D@2@@std@@P6AXH@Z@std@@V?$allocator@U?$pair@$$CBV?$basic_string@DU?$char_traits@D@std@@V?$allocator@D@2@@std@@P6AXH@Z@std@@@2@@std@@@std@@QAEXPAU_Node@?$_List_nod@U?$pair@$$CBV?$basic_string@DU?$char_traits@D@std@@V?$allocator@D@2@@std@@P6AXH@Z@std@@V?$allocator@U?$pair@$$CBV?$basic_string@DU?$char_traits@D@std@@V?$allocator@D@2@@std@@P6AXH@Z@std@@@2@@2@I@Z 1001e580 f i GameInterface.obj
 0001:0001d580       ?deallocate@?$allocator@V?$_List_iterator@V?$_List_val@U?$pair@$$CBK_N@std@@V?$allocator@U?$pair@$$CBK_N@std@@@2@@std@@@std@@@std@@QAEXPAV?$_List_iterator@V?$_List_val@U?$pair@$$CBK_N@std@@V?$allocator@U?$pair@$$CBK_N@std@@@2@@std@@@2@I@Z 1001e580 f i PatchMW2AssetRestrict.obj
 0001:0001d580       ?deallocate@?$allocator@UUIScript_t@@@std@@QAEXPAUUIScript_t@@I@Z 1001e580 f i PatchMW2UIScripts.obj
 0001:0001d580       ?deallocate@?$allocator@UUIClickHandler_t@@@std@@QAEXPAUUIClickHandler_t@@I@Z 1001e580 f i PatchMW2UIScripts.obj
 0001:0001d580       ?deallocate@?$allocator@U_Node@?$_List_nod@U?$pair@$$CBK_N@std@@V?$allocator@U?$pair@$$CBK_N@std@@@2@@std@@@std@@QAEXPAU_Node@?$_List_nod@U?$pair@$$CBK_N@std@@V?$allocator@U?$pair@$$CBK_N@std@@@2@@2@I@Z 1001e580 f i PatchMW2AssetRestrict.obj
 0001:0001d580       ?deallocate@?$allocator@PAVCCallbackBase@@@std@@QAEXPAPAVCCallbackBase@@I@Z 1001e580 f i SteamBase.obj
 0001:0001d580       ?deallocate@?$allocator@UUIFeeder_t@@@std@@QAEXPAUUIFeeder_t@@I@Z 1001e580 f i PatchMW2Friends.obj
 0001:0001d580       ?deallocate@?$allocator@V?$_List_iterator@V?$_List_val@U?$pair@$$CBKPAX@std@@V?$allocator@U?$pair@$$CBKPAX@std@@@2@@std@@@std@@@std@@QAEXPAV?$_List_iterator@V?$_List_val@U?$pair@$$CBKPAX@std@@V?$allocator@U?$pair@$$CBKPAX@std@@@2@@std@@@2@I@Z 1001e580 f i PatchMW2FilePointers.obj
 0001:0001d580       ?deallocate@?$allocator@U_Node@?$_Tree_nod@V?$_Tmap_traits@_K_JU?$less@_K@std@@V?$allocator@U?$pair@$$CB_K_J@std@@@2@$0A@@std@@@std@@@std@@QAEXPAU_Node@?$_Tree_nod@V?$_Tmap_traits@_K_JU?$less@_K@std@@V?$allocator@U?$pair@$$CB_K_J@std@@@2@$0A@@std@@@2@I@Z 1001e580 f i PatchMW2PreAuthenticate.obj
 0001:0001d580       ?deallocate@?$allocator@U_Node@?$_Tree_nod@V?$_Tmap_traits@V?$basic_string@DU?$char_traits@D@std@@V?$allocator@D@2@@std@@Uscr_funcdef_t@@U?$less@V?$basic_string@DU?$char_traits@D@std@@V?$allocator@D@2@@std@@@2@V?$allocator@U?$pair@$$CBV?$basic_string@DU?$char_traits@D@std@@V?$allocator@D@2@@std@@Uscr_funcdef_t@@@std@@@2@$0A@@std@@@std@@@std@@QAEXPAU_Node@?$_Tree_nod@V?$_Tmap_traits@V?$basic_string@DU?$char_traits@D@std@@V?$allocator@D@2@@std@@Uscr_funcdef_t@@U?$less@V?$basic_string@DU?$char_traits@D@std@@V?$allocator@D@2@@std@@@2@V?$allocator@U?$pair@$$CBV?$basic_string@DU?$char_traits@D@std@@V?$allocator@D@2@@std@@Uscr_funcdef_t@@@std@@@2@$0A@@std@@@2@I@Z 1001e580 f i Script.obj
 0001:0001d580       ?deallocate@?$allocator@PAUMaterial@@@std@@QAEXPAPAUMaterial@@I@Z 1001e580 f i PatchMW2WeaponCamos.obj
 0001:0001d580       ?deallocate@?$allocator@V?$_List_iterator@V?$_List_val@U?$pair@QAXK@std@@V?$allocator@U?$pair@QAXK@std@@@2@@std@@@std@@@std@@QAEXPAV?$_List_iterator@V?$_List_val@U?$pair@QAXK@std@@V?$allocator@U?$pair@QAXK@std@@@2@@std@@@2@I@Z 1001e580 f i PatchMW2FilePointers.obj
 0001:0001d580       ?deallocate@?$allocator@U_Node@?$_List_nod@U?$pair@$$CBV?$basic_string@DU?$char_traits@D@std@@V?$allocator@D@2@@std@@PAUVehicleDef@@@std@@V?$allocator@U?$pair@$$CBV?$basic_string@DU?$char_traits@D@std@@V?$allocator@D@2@@std@@PAUVehicleDef@@@std@@@2@@std@@@std@@QAEXPAU_Node@?$_List_nod@U?$pair@$$CBV?$basic_string@DU?$char_traits@D@std@@V?$allocator@D@2@@std@@PAUVehicleDef@@@std@@V?$allocator@U?$pair@$$CBV?$basic_string@DU?$char_traits@D@std@@V?$allocator@D@2@@std@@PAUVehicleDef@@@std@@@2@@2@I@Z 1001e580 f i PatchMW2LoadVehicleDef.obj
 0001:0001d580       ?deallocate@?$allocator@U_Node@?$_List_nod@U?$pair@$$CBKPAX@std@@V?$allocator@U?$pair@$$CBKPAX@std@@@2@@std@@@std@@QAEXPAU_Node@?$_List_nod@U?$pair@$$CBKPAX@std@@V?$allocator@U?$pair@$$CBKPAX@std@@@2@@2@I@Z 1001e580 f i PatchMW2FilePointers.obj
 0001:0001d580       ?deallocate@?$allocator@V?$_List_iterator@V?$_List_val@U?$pair@$$CB_K_N@std@@V?$allocator@U?$pair@$$CB_K_N@std@@@2@@std@@@std@@@std@@QAEXPAV?$_List_iterator@V?$_List_val@U?$pair@$$CB_K_N@std@@V?$allocator@U?$pair@$$CB_K_N@std@@@2@@std@@@2@I@Z 1001e580 f i SteamBase.obj
 0001:0001d580       ?deallocate@?$allocator@U_Node@?$_List_nod@U?$pair@$$CB_KPAVCCallbackBase@@@std@@V?$allocator@U?$pair@$$CB_KPAVCCallbackBase@@@std@@@2@@std@@@std@@QAEXPAU_Node@?$_List_nod@U?$pair@$$CB_KPAVCCallbackBase@@@std@@V?$allocator@U?$pair@$$CB_KPAVCCallbackBase@@@std@@@2@@2@I@Z 1001e580 f i SteamBase.obj
 0001:0001d580       ?deallocate@?$allocator@H@std@@QAEXPAHI@Z 1001e580 f i Script.obj
 0001:0001d580       ?deallocate@?$allocator@U_Node@?$_List_nod@U?$pair@$$CBHUNPFriend@@@std@@V?$allocator@U?$pair@$$CBHUNPFriend@@@std@@@2@@std@@@std@@QAEXPAU_Node@?$_List_nod@U?$pair@$$CBHUNPFriend@@@std@@V?$allocator@U?$pair@$$CBHUNPFriend@@@std@@@2@@2@I@Z 1001e580 f i PatchMW2Friends.obj
 0001:0001d580       ?deallocate@?$allocator@UServerStorageEntry@@@std@@QAEXPAUServerStorageEntry@@I@Z 1001e580 f i ServerStorage.obj
 0001:0001d580       ?deallocate@?$allocator@V?$_List_iterator@V?$_List_val@U?$pair@$$CBV?$basic_string@DU?$char_traits@D@std@@V?$allocator@D@2@@std@@_N@std@@V?$allocator@U?$pair@$$CBV?$basic_string@DU?$char_traits@D@std@@V?$allocator@D@2@@std@@_N@std@@@2@@std@@@std@@@std@@QAEXPAV?$_List_iterator@V?$_List_val@U?$pair@$$CBV?$basic_string@DU?$char_traits@D@std@@V?$allocator@D@2@@std@@_N@std@@V?$allocator@U?$pair@$$CBV?$basic_string@DU?$char_traits@D@std@@V?$allocator@D@2@@std@@_N@std@@@2@@std@@@2@I@Z 1001e580 f i PatchMW2Experiments.obj
 0001:0001d580       ?deallocate@?$allocator@U_Node@?$_List_nod@U?$pair@$$CB_K_N@std@@V?$allocator@U?$pair@$$CB_K_N@std@@@2@@std@@@std@@QAEXPAU_Node@?$_List_nod@U?$pair@$$CB_K_N@std@@V?$allocator@U?$pair@$$CB_K_N@std@@@2@@2@I@Z 1001e580 f i SteamBase.obj
 0001:0001d580       ?deallocate@?$allocator@PAUchallengeState_t@@@std@@QAEXPAPAUchallengeState_t@@I@Z 1001e580 f i PatchMW2PreAuthenticate.obj
 0001:0001d580       ?deallocate@?$allocator@Udownload_s@@@std@@QAEXPAUdownload_s@@I@Z 1001e580 f i PatchMW2DownloadCL.obj
 0001:0001d580       ?deallocate@?$allocator@UdemoInfo_s@@@std@@QAEXPAUdemoInfo_s@@I@Z 1001e580 f i PatchMW2TheatreMenu.obj
 0001:0001d580       ?deallocate@?$allocator@V?$_List_iterator@V?$_List_val@U?$pair@$$CB_KPAVCCallbackBase@@@std@@V?$allocator@U?$pair@$$CB_KPAVCCallbackBase@@@std@@@2@@std@@@std@@@std@@QAEXPAV?$_List_iterator@V?$_List_val@U?$pair@$$CB_KPAVCCallbackBase@@@std@@V?$allocator@U?$pair@$$CB_KPAVCCallbackBase@@@std@@@2@@std@@@2@I@Z 1001e580 f i SteamBase.obj
 0001:0001d5a0       ??$_Cons_val@V?$allocator@UAttachmentPatch@@@std@@UAttachmentPatch@@ABU3@@std@@YAXAAV?$allocator@UAttachmentPatch@@@0@PAUAttachmentPatch@@ABU2@@Z 1001e5a0 f i PatchMW2PartialWeaponry.obj
 0001:0001d5a0       ??$_Cons_val@V?$allocator@UUIFeeder_t@@@std@@UUIFeeder_t@@ABU3@@std@@YAXAAV?$allocator@UUIFeeder_t@@@0@PAUUIFeeder_t@@ABU2@@Z 1001e5a0 f i PatchMW2Friends.obj
 0001:0001d5c0       ?PatchMW2PhysicPreset@@YAXXZ 1001e5c0 f   PatchMW2PhysicPreset.obj
 0001:0001d5d0       ?LoadPhysicPreset@@YAXPAX@Z 1001e5d0 f   PatchMW2PhysicPreset.obj
 0001:0001d920       ?AddPhysPresetToModel@@YAXPAX@Z 1001e920 f   PatchMW2PhysicPreset.obj
 0001:0001d9a0       ?addWeapon@@YAXPADH@Z      1001e9a0 f   PatchMW2PlayerdataDefinition.obj
 0001:0001d9f0       ?strToLower@@YAPADPAD@Z    1001e9f0 f   PatchMW2PlayerdataDefinition.obj
 0001:0001da70       ?checkAlphabeticalOrder@@YA_NPAD0@Z 1001ea70 f   PatchMW2PlayerdataDefinition.obj
 0001:0001db60       ?patchPlayerData@@YAXPAUstructuredDataDef_t@@@Z 1001eb60 f   PatchMW2PlayerdataDefinition.obj
 0001:0001dd80       ?FindStructuredDataHookFunc@@YAPAUstructuredDataDef_t@@W4assetType_e@@PBD@Z 1001ed80 f   PatchMW2PlayerdataDefinition.obj
 0001:0001ddc0       ?PatchMW2_PlayerdataDefinition@@YAXXZ 1001edc0 f   PatchMW2PlayerdataDefinition.obj
 0001:0001de70       ??A?$map@HPAUnewWeapon@@U?$less@H@std@@V?$allocator@U?$pair@$$CBHPAUnewWeapon@@@std@@@3@@std@@QAEAAPAUnewWeapon@@$$QAH@Z 1001ee70 f i PatchMW2PlayerdataDefinition.obj
 0001:0001df20       ??A?$map@HPAUnewWeapon@@U?$less@H@std@@V?$allocator@U?$pair@$$CBHPAUnewWeapon@@@std@@@3@@std@@QAEAAPAUnewWeapon@@ABH@Z 1001ef20 f i PatchMW2PlayerdataDefinition.obj
 0001:0001dfc0       ?size@?$_Tree@V?$_Tmap_traits@HPAUnewWeapon@@U?$less@H@std@@V?$allocator@U?$pair@$$CBHPAUnewWeapon@@@std@@@3@$0A@@std@@@std@@QBEIXZ 1001efc0 f i PatchMW2PlayerdataDefinition.obj
 0001:0001dfc0       ?GetICallback@CCallbackBase@@QAEHXZ 1001efc0 f i SteamBase.obj
 0001:0001dfc0       ?shrink_threshold@?$sh_hashtable_settings@V?$basic_string@DU?$char_traits@D@std@@V?$allocator@D@2@@std@@V?$hash_compare@V?$basic_string@DU?$char_traits@D@std@@V?$allocator@D@2@@std@@U?$less@V?$basic_string@DU?$char_traits@D@std@@V?$allocator@D@2@@std@@@2@@stdext@@I$03@@QBEIXZ 1001efc0 f i PatchMW2LocalizedStrings.obj
 0001:0001dfc0       ?size@?$_Tree@V?$_Tmap_traits@_K_JU?$less@_K@std@@V?$allocator@U?$pair@$$CB_K_J@std@@@2@$0A@@std@@@std@@QBEIXZ 1001efc0 f i PatchMW2PreAuthenticate.obj
 0001:0001dfc0       ?size@?$_Tree@V?$_Tmap_traits@V?$basic_string@DU?$char_traits@D@std@@V?$allocator@D@2@@std@@Uscr_funcdef_t@@U?$less@V?$basic_string@DU?$char_traits@D@std@@V?$allocator@D@2@@std@@@2@V?$allocator@U?$pair@$$CBV?$basic_string@DU?$char_traits@D@std@@V?$allocator@D@2@@std@@Uscr_funcdef_t@@@std@@@2@$0A@@std@@@std@@QBEIXZ 1001efc0 f i Script.obj
 0001:0001dfc0       ?shrink_threshold@?$sh_hashtable_settings@KV?$hash_compare@KU?$less@K@std@@@stdext@@I$03@@QBEIXZ 1001efc0 f i PatchMW2CModels.obj
 0001:0001dfe0       ?lower_bound@?$_Tree@V?$_Tmap_traits@HPAUnewWeapon@@U?$less@H@std@@V?$allocator@U?$pair@$$CBHPAUnewWeapon@@@std@@@3@$0A@@std@@@std@@QAE?AV?$_Tree_iterator@V?$_Tree_val@V?$_Tmap_traits@HPAUnewWeapon@@U?$less@H@std@@V?$allocator@U?$pair@$$CBHPAUnewWeapon@@@std@@@3@$0A@@std@@@std@@@2@ABH@Z 1001efe0 f i PatchMW2PlayerdataDefinition.obj
 0001:0001e010       ?_Key@?$_Tree_val@V?$_Tmap_traits@V?$basic_string@DU?$char_traits@D@std@@V?$allocator@D@2@@std@@Uscr_funcdef_t@@U?$less@V?$basic_string@DU?$char_traits@D@std@@V?$allocator@D@2@@std@@@2@V?$allocator@U?$pair@$$CBV?$basic_string@DU?$char_traits@D@std@@V?$allocator@D@2@@std@@Uscr_funcdef_t@@@std@@@2@$0A@@std@@@std@@SAAAV?$basic_string@DU?$char_traits@D@std@@V?$allocator@D@2@@2@PAU_Node@?$_Tree_nod@V?$_Tmap_traits@V?$basic_string@DU?$char_traits@D@std@@V?$allocator@D@2@@std@@Uscr_funcdef_t@@U?$less@V?$basic_string@DU?$char_traits@D@std@@V?$allocator@D@2@@std@@@2@V?$allocator@U?$pair@$$CBV?$basic_string@DU?$char_traits@D@std@@V?$allocator@D@2@@std@@Uscr_funcdef_t@@@std@@@2@$0A@@std@@@2@@Z 1001f010 f i Script.obj
 0001:0001e010       ?_Key@?$_Tree_val@V?$_Tmap_traits@HPAUnewWeapon@@U?$less@H@std@@V?$allocator@U?$pair@$$CBHPAUnewWeapon@@@std@@@3@$0A@@std@@@std@@SAAAHPAU_Node@?$_Tree_nod@V?$_Tmap_traits@HPAUnewWeapon@@U?$less@H@std@@V?$allocator@U?$pair@$$CBHPAUnewWeapon@@@std@@@3@$0A@@std@@@2@@Z 1001f010 f i PatchMW2PlayerdataDefinition.obj
 0001:0001e030       ??R?$less@H@std@@QBE_NABH0@Z 1001f030 f i PatchMW2PlayerdataDefinition.obj
 0001:0001e050       ??D?$_Tree_iterator@V?$_Tree_val@V?$_Tmap_traits@V?$basic_string@DU?$char_traits@D@std@@V?$allocator@D@2@@std@@Uscr_funcdef_t@@U?$less@V?$basic_string@DU?$char_traits@D@std@@V?$allocator@D@2@@std@@@2@V?$allocator@U?$pair@$$CBV?$basic_string@DU?$char_traits@D@std@@V?$allocator@D@2@@std@@Uscr_funcdef_t@@@std@@@2@$0A@@std@@@std@@@std@@QBEAAU?$pair@$$CBV?$basic_string@DU?$char_traits@D@std@@V?$allocator@D@2@@std@@Uscr_funcdef_t@@@1@XZ 1001f050 f i Script.obj
 0001:0001e050       ??D?$_Tree_iterator@V?$_Tree_val@V?$_Tmap_traits@HPAUnewWeapon@@U?$less@H@std@@V?$allocator@U?$pair@$$CBHPAUnewWeapon@@@std@@@3@$0A@@std@@@std@@@std@@QBEAAU?$pair@$$CBHPAUnewWeapon@@@1@XZ 1001f050 f i PatchMW2PlayerdataDefinition.obj
 0001:0001e070       ?_Lbound@?$_Tree@V?$_Tmap_traits@HPAUnewWeapon@@U?$less@H@std@@V?$allocator@U?$pair@$$CBHPAUnewWeapon@@@std@@@3@$0A@@std@@@std@@IAEPAU_Node@?$_Tree_nod@V?$_Tmap_traits@HPAUnewWeapon@@U?$less@H@std@@V?$allocator@U?$pair@$$CBHPAUnewWeapon@@@std@@@3@$0A@@std@@@2@ABH@Z 1001f070 f i PatchMW2PlayerdataDefinition.obj
 0001:0001e100       ?_Myval@?$_Tree_val@V?$_Tmap_traits@V?$basic_string@DU?$char_traits@D@std@@V?$allocator@D@2@@std@@Uscr_funcdef_t@@U?$less@V?$basic_string@DU?$char_traits@D@std@@V?$allocator@D@2@@std@@@2@V?$allocator@U?$pair@$$CBV?$basic_string@DU?$char_traits@D@std@@V?$allocator@D@2@@std@@Uscr_funcdef_t@@@std@@@2@$0A@@std@@@std@@SAAAU?$pair@$$CBV?$basic_string@DU?$char_traits@D@std@@V?$allocator@D@2@@std@@Uscr_funcdef_t@@@2@PAU_Node@?$_Tree_nod@V?$_Tmap_traits@V?$basic_string@DU?$char_traits@D@std@@V?$allocator@D@2@@std@@Uscr_funcdef_t@@U?$less@V?$basic_string@DU?$char_traits@D@std@@V?$allocator@D@2@@std@@@2@V?$allocator@U?$pair@$$CBV?$basic_string@DU?$char_traits@D@std@@V?$allocator@D@2@@std@@Uscr_funcdef_t@@@std@@@2@$0A@@std@@@2@@Z 1001f100 f i Script.obj
 0001:0001e100       ?_Myval@?$_Tree_val@V?$_Tmap_traits@HPAUnewWeapon@@U?$less@H@std@@V?$allocator@U?$pair@$$CBHPAUnewWeapon@@@std@@@3@$0A@@std@@@std@@SAAAU?$pair@$$CBHPAUnewWeapon@@@2@PAU_Node@?$_Tree_nod@V?$_Tmap_traits@HPAUnewWeapon@@U?$less@H@std@@V?$allocator@U?$pair@$$CBHPAUnewWeapon@@@std@@@3@$0A@@std@@@2@@Z 1001f100 f i PatchMW2PlayerdataDefinition.obj
 0001:0001e110       ??D?$_Tree_const_iterator@V?$_Tree_val@V?$_Tmap_traits@HPAUnewWeapon@@U?$less@H@std@@V?$allocator@U?$pair@$$CBHPAUnewWeapon@@@std@@@3@$0A@@std@@@std@@@std@@QBEABU?$pair@$$CBHPAUnewWeapon@@@1@XZ 1001f110 f i PatchMW2PlayerdataDefinition.obj
 0001:0001e110       ??D?$_Tree_const_iterator@V?$_Tree_val@V?$_Tmap_traits@V?$basic_string@DU?$char_traits@D@std@@V?$allocator@D@2@@std@@Uscr_funcdef_t@@U?$less@V?$basic_string@DU?$char_traits@D@std@@V?$allocator@D@2@@std@@@2@V?$allocator@U?$pair@$$CBV?$basic_string@DU?$char_traits@D@std@@V?$allocator@D@2@@std@@Uscr_funcdef_t@@@std@@@2@$0A@@std@@@std@@@std@@QBEABU?$pair@$$CBV?$basic_string@DU?$char_traits@D@std@@V?$allocator@D@2@@std@@Uscr_funcdef_t@@@1@XZ 1001f110 f i Script.obj
 0001:0001e130       ?_Isnil@?$_Tree_val@V?$_Tmap_traits@HPAUnewWeapon@@U?$less@H@std@@V?$allocator@U?$pair@$$CBHPAUnewWeapon@@@std@@@3@$0A@@std@@@std@@SAAADPAU_Node@?$_Tree_nod@V?$_Tmap_traits@HPAUnewWeapon@@U?$less@H@std@@V?$allocator@U?$pair@$$CBHPAUnewWeapon@@@std@@@3@$0A@@std@@@2@@Z 1001f130 f i PatchMW2PlayerdataDefinition.obj
 0001:0001e140       ??$insert@U?$pair@HPAUnewWeapon@@@std@@@?$_Tree@V?$_Tmap_traits@HPAUnewWeapon@@U?$less@H@std@@V?$allocator@U?$pair@$$CBHPAUnewWeapon@@@std@@@3@$0A@@std@@@std@@QAE?AV?$_Tree_iterator@V?$_Tree_val@V?$_Tmap_traits@HPAUnewWeapon@@U?$less@H@std@@V?$allocator@U?$pair@$$CBHPAUnewWeapon@@@std@@@3@$0A@@std@@@std@@@1@V?$_Tree_const_iterator@V?$_Tree_val@V?$_Tmap_traits@HPAUnewWeapon@@U?$less@H@std@@V?$allocator@U?$pair@$$CBHPAUnewWeapon@@@std@@@3@$0A@@std@@@std@@@1@$$QAU?$pair@HPAUnewWeapon@@@1@@Z 1001f140 f i PatchMW2PlayerdataDefinition.obj
 0001:0001e140       ??$insert@U?$pair@$$CBHPAUnewWeapon@@@std@@@?$_Tree@V?$_Tmap_traits@HPAUnewWeapon@@U?$less@H@std@@V?$allocator@U?$pair@$$CBHPAUnewWeapon@@@std@@@3@$0A@@std@@@std@@QAE?AV?$_Tree_iterator@V?$_Tree_val@V?$_Tmap_traits@HPAUnewWeapon@@U?$less@H@std@@V?$allocator@U?$pair@$$CBHPAUnewWeapon@@@std@@@3@$0A@@std@@@std@@@1@V?$_Tree_const_iterator@V?$_Tree_val@V?$_Tmap_traits@HPAUnewWeapon@@U?$less@H@std@@V?$allocator@U?$pair@$$CBHPAUnewWeapon@@@std@@@3@$0A@@std@@@std@@@1@$$QAU?$pair@$$CBHPAUnewWeapon@@@1@@Z 1001f140 f i PatchMW2PlayerdataDefinition.obj
 0001:0001e180       ?_Insert@?$_Tree@V?$_Tmap_traits@HPAUnewWeapon@@U?$less@H@std@@V?$allocator@U?$pair@$$CBHPAUnewWeapon@@@std@@@3@$0A@@std@@@std@@QAE?AV?$_Tree_iterator@V?$_Tree_val@V?$_Tmap_traits@HPAUnewWeapon@@U?$less@H@std@@V?$allocator@U?$pair@$$CBHPAUnewWeapon@@@std@@@3@$0A@@std@@@std@@@2@V?$_Tree_const_iterator@V?$_Tree_val@V?$_Tmap_traits@HPAUnewWeapon@@U?$less@H@std@@V?$allocator@U?$pair@$$CBHPAUnewWeapon@@@std@@@3@$0A@@std@@@std@@@2@PAU_Node@?$_Tree_nod@V?$_Tmap_traits@HPAUnewWeapon@@U?$less@H@std@@V?$allocator@U?$pair@$$CBHPAUnewWeapon@@@std@@@3@$0A@@std@@@2@@Z 1001f180 f i PatchMW2PlayerdataDefinition.obj
 0001:0001e780       ?begin@?$_Tree@V?$_Tmap_traits@V?$basic_string@DU?$char_traits@D@std@@V?$allocator@D@2@@std@@Uscr_funcdef_t@@U?$less@V?$basic_string@DU?$char_traits@D@std@@V?$allocator@D@2@@std@@@2@V?$allocator@U?$pair@$$CBV?$basic_string@DU?$char_traits@D@std@@V?$allocator@D@2@@std@@Uscr_funcdef_t@@@std@@@2@$0A@@std@@@std@@QAE?AV?$_Tree_iterator@V?$_Tree_val@V?$_Tmap_traits@V?$basic_string@DU?$char_traits@D@std@@V?$allocator@D@2@@std@@Uscr_funcdef_t@@U?$less@V?$basic_string@DU?$char_traits@D@std@@V?$allocator@D@2@@std@@@2@V?$allocator@U?$pair@$$CBV?$basic_string@DU?$char_traits@D@std@@V?$allocator@D@2@@std@@Uscr_funcdef_t@@@std@@@2@$0A@@std@@@std@@@2@XZ 1001f780 f i Script.obj
 0001:0001e780       ?begin@?$_Tree@V?$_Tmap_traits@HPAUnewWeapon@@U?$less@H@std@@V?$allocator@U?$pair@$$CBHPAUnewWeapon@@@std@@@3@$0A@@std@@@std@@QAE?AV?$_Tree_iterator@V?$_Tree_val@V?$_Tmap_traits@HPAUnewWeapon@@U?$less@H@std@@V?$allocator@U?$pair@$$CBHPAUnewWeapon@@@std@@@3@$0A@@std@@@std@@@2@XZ 1001f780 f i PatchMW2PlayerdataDefinition.obj
 0001:0001e780       ?begin@?$_Tree@V?$_Tmap_traits@_K_JU?$less@_K@std@@V?$allocator@U?$pair@$$CB_K_J@std@@@2@$0A@@std@@@std@@QAE?AV?$_Tree_iterator@V?$_Tree_val@V?$_Tmap_traits@_K_JU?$less@_K@std@@V?$allocator@U?$pair@$$CB_K_J@std@@@2@$0A@@std@@@std@@@2@XZ 1001f780 f i PatchMW2PreAuthenticate.obj
 0001:0001e7b0       ?_Rmost@?$_Tree@V?$_Tmap_traits@HPAUnewWeapon@@U?$less@H@std@@V?$allocator@U?$pair@$$CBHPAUnewWeapon@@@std@@@3@$0A@@std@@@std@@IBEAAPAU_Node@?$_Tree_nod@V?$_Tmap_traits@HPAUnewWeapon@@U?$less@H@std@@V?$allocator@U?$pair@$$CBHPAUnewWeapon@@@std@@@3@$0A@@std@@@2@XZ 1001f7b0 f i PatchMW2PlayerdataDefinition.obj
 0001:0001e7b0       ?_Rmost@?$_Tree@V?$_Tmap_traits@_K_JU?$less@_K@std@@V?$allocator@U?$pair@$$CB_K_J@std@@@2@$0A@@std@@@std@@IBEAAPAU_Node@?$_Tree_nod@V?$_Tmap_traits@_K_JU?$less@_K@std@@V?$allocator@U?$pair@$$CB_K_J@std@@@2@$0A@@std@@@2@XZ 1001f7b0 f i PatchMW2PreAuthenticate.obj
 0001:0001e7b0       ?_Rmost@?$_Tree@V?$_Tmap_traits@V?$basic_string@DU?$char_traits@D@std@@V?$allocator@D@2@@std@@Uscr_funcdef_t@@U?$less@V?$basic_string@DU?$char_traits@D@std@@V?$allocator@D@2@@std@@@2@V?$allocator@U?$pair@$$CBV?$basic_string@DU?$char_traits@D@std@@V?$allocator@D@2@@std@@Uscr_funcdef_t@@@std@@@2@$0A@@std@@@std@@IBEAAPAU_Node@?$_Tree_nod@V?$_Tmap_traits@V?$basic_string@DU?$char_traits@D@std@@V?$allocator@D@2@@std@@Uscr_funcdef_t@@U?$less@V?$basic_string@DU?$char_traits@D@std@@V?$allocator@D@2@@std@@@2@V?$allocator@U?$pair@$$CBV?$basic_string@DU?$char_traits@D@std@@V?$allocator@D@2@@std@@Uscr_funcdef_t@@@std@@@2@$0A@@std@@@2@XZ 1001f7b0 f i Script.obj
 0001:0001e7d0       ??E?$_Tree_const_iterator@V?$_Tree_val@V?$_Tmap_traits@HPAUnewWeapon@@U?$less@H@std@@V?$allocator@U?$pair@$$CBHPAUnewWeapon@@@std@@@3@$0A@@std@@@std@@@std@@QAEAAV01@XZ 1001f7d0 f i PatchMW2PlayerdataDefinition.obj
 0001:0001e7f0       ??E?$_Tree_unchecked_const_iterator@V?$_Tree_val@V?$_Tmap_traits@HPAUnewWeapon@@U?$less@H@std@@V?$allocator@U?$pair@$$CBHPAUnewWeapon@@@std@@@3@$0A@@std@@@std@@U_Iterator_base0@2@@std@@QAEAAV01@XZ 1001f7f0 f i PatchMW2PlayerdataDefinition.obj
 0001:0001e8b0       ?_Min@?$_Tree_val@V?$_Tmap_traits@HPAUnewWeapon@@U?$less@H@std@@V?$allocator@U?$pair@$$CBHPAUnewWeapon@@@std@@@3@$0A@@std@@@std@@SAPAU_Node@?$_Tree_nod@V?$_Tmap_traits@HPAUnewWeapon@@U?$less@H@std@@V?$allocator@U?$pair@$$CBHPAUnewWeapon@@@std@@@3@$0A@@std@@@2@PAU342@@Z 1001f8b0 f i PatchMW2PlayerdataDefinition.obj
 0001:0001e8f0       ?_Linsert@?$_Tree@V?$_Tmap_traits@HPAUnewWeapon@@U?$less@H@std@@V?$allocator@U?$pair@$$CBHPAUnewWeapon@@@std@@@3@$0A@@std@@@std@@QAE?AU?$pair@V?$_Tree_iterator@V?$_Tree_val@V?$_Tmap_traits@HPAUnewWeapon@@U?$less@H@std@@V?$allocator@U?$pair@$$CBHPAUnewWeapon@@@std@@@3@$0A@@std@@@std@@@std@@_N@2@PAU_Node@?$_Tree_nod@V?$_Tmap_traits@HPAUnewWeapon@@U?$less@H@std@@V?$allocator@U?$pair@$$CBHPAUnewWeapon@@@std@@@3@$0A@@std@@@2@_N@Z 1001f8f0 f i PatchMW2PlayerdataDefinition.obj
 0001:0001eb30       ?_Insert@?$_Tree@V?$_Tmap_traits@HPAUnewWeapon@@U?$less@H@std@@V?$allocator@U?$pair@$$CBHPAUnewWeapon@@@std@@@3@$0A@@std@@@std@@IAE?AV?$_Tree_iterator@V?$_Tree_val@V?$_Tmap_traits@HPAUnewWeapon@@U?$less@H@std@@V?$allocator@U?$pair@$$CBHPAUnewWeapon@@@std@@@3@$0A@@std@@@std@@@2@_NPAU_Node@?$_Tree_nod@V?$_Tmap_traits@HPAUnewWeapon@@U?$less@H@std@@V?$allocator@U?$pair@$$CBHPAUnewWeapon@@@std@@@3@$0A@@std@@@2@1@Z 1001fb30 f i PatchMW2PlayerdataDefinition.obj
 0001:0001ef70       ?_Color@?$_Tree_val@V?$_Tmap_traits@HPAUnewWeapon@@U?$less@H@std@@V?$allocator@U?$pair@$$CBHPAUnewWeapon@@@std@@@3@$0A@@std@@@std@@SAAADPAU_Node@?$_Tree_nod@V?$_Tmap_traits@HPAUnewWeapon@@U?$less@H@std@@V?$allocator@U?$pair@$$CBHPAUnewWeapon@@@std@@@3@$0A@@std@@@2@@Z 1001ff70 f i PatchMW2PlayerdataDefinition.obj
 0001:0001ef80       ?_Lrotate@?$_Tree@V?$_Tmap_traits@HPAUnewWeapon@@U?$less@H@std@@V?$allocator@U?$pair@$$CBHPAUnewWeapon@@@std@@@3@$0A@@std@@@std@@IAEXPAU_Node@?$_Tree_nod@V?$_Tmap_traits@HPAUnewWeapon@@U?$less@H@std@@V?$allocator@U?$pair@$$CBHPAUnewWeapon@@@std@@@3@$0A@@std@@@2@@Z 1001ff80 f i PatchMW2PlayerdataDefinition.obj
 0001:0001f0b0       ?_Rrotate@?$_Tree@V?$_Tmap_traits@HPAUnewWeapon@@U?$less@H@std@@V?$allocator@U?$pair@$$CBHPAUnewWeapon@@@std@@@3@$0A@@std@@@std@@IAEXPAU_Node@?$_Tree_nod@V?$_Tmap_traits@HPAUnewWeapon@@U?$less@H@std@@V?$allocator@U?$pair@$$CBHPAUnewWeapon@@@std@@@3@$0A@@std@@@2@@Z 100200b0 f i PatchMW2PlayerdataDefinition.obj
 0001:0001f1e0       ??F?$_Tree_const_iterator@V?$_Tree_val@V?$_Tmap_traits@HPAUnewWeapon@@U?$less@H@std@@V?$allocator@U?$pair@$$CBHPAUnewWeapon@@@std@@@3@$0A@@std@@@std@@@std@@QAEAAV01@XZ 100201e0 f i PatchMW2PlayerdataDefinition.obj
 0001:0001f200       ?max_size@?$_Tree@V?$_Tmap_traits@HPAUnewWeapon@@U?$less@H@std@@V?$allocator@U?$pair@$$CBHPAUnewWeapon@@@std@@@3@$0A@@std@@@std@@QBEIXZ 10020200 f i PatchMW2PlayerdataDefinition.obj
 0001:0001f220       ??F?$_Tree_iterator@V?$_Tree_val@V?$_Tmap_traits@HPAUnewWeapon@@U?$less@H@std@@V?$allocator@U?$pair@$$CBHPAUnewWeapon@@@std@@@3@$0A@@std@@@std@@@std@@QAEAAV01@XZ 10020220 f i PatchMW2PlayerdataDefinition.obj
 0001:0001f240       ??F?$_Tree_unchecked_const_iterator@V?$_Tree_val@V?$_Tmap_traits@HPAUnewWeapon@@U?$less@H@std@@V?$allocator@U?$pair@$$CBHPAUnewWeapon@@@std@@@3@$0A@@std@@@std@@U_Iterator_base0@2@@std@@QAEAAV01@XZ 10020240 f i PatchMW2PlayerdataDefinition.obj
 0001:0001f330       ?_Max@?$_Tree_val@V?$_Tmap_traits@HPAUnewWeapon@@U?$less@H@std@@V?$allocator@U?$pair@$$CBHPAUnewWeapon@@@std@@@3@$0A@@std@@@std@@SAPAU_Node@?$_Tree_nod@V?$_Tmap_traits@HPAUnewWeapon@@U?$less@H@std@@V?$allocator@U?$pair@$$CBHPAUnewWeapon@@@std@@@3@$0A@@std@@@2@PAU342@@Z 10020330 f i PatchMW2PlayerdataDefinition.obj
 0001:0001f370       ??$_Buynode@U?$pair@$$CBHPAUnewWeapon@@@std@@@?$_Tree_val@V?$_Tmap_traits@HPAUnewWeapon@@U?$less@H@std@@V?$allocator@U?$pair@$$CBHPAUnewWeapon@@@std@@@3@$0A@@std@@@std@@QAEPAU_Node@?$_Tree_nod@V?$_Tmap_traits@HPAUnewWeapon@@U?$less@H@std@@V?$allocator@U?$pair@$$CBHPAUnewWeapon@@@std@@@3@$0A@@std@@@1@$$QAU?$pair@$$CBHPAUnewWeapon@@@1@@Z 10020370 f i PatchMW2PlayerdataDefinition.obj
 0001:0001f370       ??$_Buynode@U?$pair@HPAUnewWeapon@@@std@@@?$_Tree_val@V?$_Tmap_traits@HPAUnewWeapon@@U?$less@H@std@@V?$allocator@U?$pair@$$CBHPAUnewWeapon@@@std@@@3@$0A@@std@@@std@@QAEPAU_Node@?$_Tree_nod@V?$_Tmap_traits@HPAUnewWeapon@@U?$less@H@std@@V?$allocator@U?$pair@$$CBHPAUnewWeapon@@@std@@@3@$0A@@std@@@1@$$QAU?$pair@HPAUnewWeapon@@@1@@Z 10020370 f i PatchMW2PlayerdataDefinition.obj
 0001:0001f440       ?_Buynode@?$_Tree_val@V?$_Tmap_traits@HPAUnewWeapon@@U?$less@H@std@@V?$allocator@U?$pair@$$CBHPAUnewWeapon@@@std@@@3@$0A@@std@@@std@@QAEPAU_Node@?$_Tree_nod@V?$_Tmap_traits@HPAUnewWeapon@@U?$less@H@std@@V?$allocator@U?$pair@$$CBHPAUnewWeapon@@@std@@@3@$0A@@std@@@2@XZ 10020440 f i PatchMW2PlayerdataDefinition.obj
 0001:0001f4c0       ??$_Cons_val@V?$allocator@U?$pair@QAXK@std@@@std@@U?$pair@QAXK@2@U32@@std@@YAXAAV?$allocator@U?$pair@QAXK@std@@@0@PAU?$pair@QAXK@0@$$QAU20@@Z 100204c0 f i PatchMW2FilePointers.obj
 0001:0001f4c0       ??$_Cons_val@V?$allocator@U?$pair@$$CBKK@std@@@std@@U?$pair@$$CBKK@2@U32@@std@@YAXAAV?$allocator@U?$pair@$$CBKK@std@@@0@PAU?$pair@$$CBKK@0@$$QAU20@@Z 100204c0 f i PatchMW2FilePointers.obj
 0001:0001f4c0       ??$_Cons_val@V?$allocator@U?$pair@$$CBHPAUnewWeapon@@@std@@@std@@U?$pair@$$CBHPAUnewWeapon@@@2@U32@@std@@YAXAAV?$allocator@U?$pair@$$CBHPAUnewWeapon@@@std@@@0@PAU?$pair@$$CBHPAUnewWeapon@@@0@$$QAU20@@Z 100204c0 f i PatchMW2PlayerdataDefinition.obj
 0001:0001f4c0       ??$_Cons_val@V?$allocator@U?$pair@$$CBHPAUnewWeapon@@@std@@@std@@U?$pair@$$CBHPAUnewWeapon@@@2@U?$pair@HPAUnewWeapon@@@2@@std@@YAXAAV?$allocator@U?$pair@$$CBHPAUnewWeapon@@@std@@@0@PAU?$pair@$$CBHPAUnewWeapon@@@0@$$QAU?$pair@HPAUnewWeapon@@@0@@Z 100204c0 f i PatchMW2PlayerdataDefinition.obj
 0001:0001f4c0       ??$_Cons_val@V?$allocator@U?$pair@$$CBKPAX@std@@@std@@U?$pair@$$CBKPAX@2@U32@@std@@YAXAAV?$allocator@U?$pair@$$CBKPAX@std@@@0@PAU?$pair@$$CBKPAX@0@$$QAU20@@Z 100204c0 f i PatchMW2FilePointers.obj
 0001:0001f4e0       ?construct@?$allocator@U?$pair@$$CBKK@std@@@std@@QAEXPAU?$pair@$$CBKK@2@$$QAU32@@Z 100204e0 f i PatchMW2FilePointers.obj
 0001:0001f4e0       ?construct@?$allocator@U?$pair@$$CBKPAX@std@@@std@@QAEXPAU?$pair@$$CBKPAX@2@$$QAU32@@Z 100204e0 f i PatchMW2FilePointers.obj
 0001:0001f4e0       ?construct@?$allocator@U?$pair@$$CBHPAUnewWeapon@@@std@@@std@@QAEXPAU?$pair@$$CBHPAUnewWeapon@@@2@$$QAU32@@Z 100204e0 f i PatchMW2PlayerdataDefinition.obj
 0001:0001f4e0       ?construct@?$allocator@U?$pair@QAXK@std@@@std@@QAEXPAU?$pair@QAXK@2@$$QAU32@@Z 100204e0 f i PatchMW2FilePointers.obj
 0001:0001f4e0       ??$construct@U?$pair@HPAUnewWeapon@@@std@@@?$allocator@U?$pair@$$CBHPAUnewWeapon@@@std@@@std@@QAEXPAU?$pair@$$CBHPAUnewWeapon@@@1@$$QAU?$pair@HPAUnewWeapon@@@1@@Z 100204e0 f i PatchMW2PlayerdataDefinition.obj
 0001:0001f560       ??$?0HPAUnewWeapon@@@?$pair@$$CBHPAUnewWeapon@@@std@@QAE@$$QAU?$pair@HPAUnewWeapon@@@1@@Z 10020560 f i PatchMW2PlayerdataDefinition.obj
 0001:0001f560       ??$?0QAXK@?$pair@QAXK@std@@QAE@$$QAU01@@Z 10020560 f i PatchMW2FilePointers.obj
 0001:0001f560       ??$?0$$CBKK@?$pair@$$CBKK@std@@QAE@$$QAU01@@Z 10020560 f i PatchMW2FilePointers.obj
 0001:0001f560       ??$?0KPAUCModelAllocData@@@?$pair@$$CBKPAUCModelAllocData@@@std@@QAE@$$QAU?$pair@KPAUCModelAllocData@@@1@@Z 10020560 f i PatchMW2CModels.obj
 0001:0001f560       ??$?0KPAX@?$pair@$$CBKPAX@std@@QAE@$$QAU?$pair@KPAX@1@@Z 10020560 f i PatchMW2CModels.obj
 0001:0001f560       ??$?0$$CBHPAUnewWeapon@@@?$pair@$$CBHPAUnewWeapon@@@std@@QAE@$$QAU01@@Z 10020560 f i PatchMW2PlayerdataDefinition.obj
 0001:0001f560       ??$?0$$CBKPAX@?$pair@$$CBKPAX@std@@QAE@$$QAU01@@Z 10020560 f i PatchMW2FilePointers.obj
 0001:0001f5a0       ??0?$map@HPAUnewWeapon@@U?$less@H@std@@V?$allocator@U?$pair@$$CBHPAUnewWeapon@@@std@@@3@@std@@QAE@XZ 100205a0 f i PatchMW2PlayerdataDefinition.obj
 0001:0001f5d0       ??0?$_Tree@V?$_Tmap_traits@HPAUnewWeapon@@U?$less@H@std@@V?$allocator@U?$pair@$$CBHPAUnewWeapon@@@std@@@3@$0A@@std@@@std@@QAE@ABU?$less@H@1@ABV?$allocator@U?$pair@$$CBHPAUnewWeapon@@@std@@@1@@Z 100205d0 f i PatchMW2PlayerdataDefinition.obj
 0001:0001f600       ??0?$_Tree_val@V?$_Tmap_traits@HPAUnewWeapon@@U?$less@H@std@@V?$allocator@U?$pair@$$CBHPAUnewWeapon@@@std@@@3@$0A@@std@@@std@@QAE@ABU?$less@H@1@V?$allocator@U?$pair@$$CBHPAUnewWeapon@@@std@@@1@@Z 10020600 f i PatchMW2PlayerdataDefinition.obj
 0001:0001f6b0       ??1?$map@HPAUnewWeapon@@U?$less@H@std@@V?$allocator@U?$pair@$$CBHPAUnewWeapon@@@std@@@3@@std@@QAE@XZ 100206b0 f i PatchMW2PlayerdataDefinition.obj
 0001:0001f6d0       ??1?$_Tree@V?$_Tmap_traits@HPAUnewWeapon@@U?$less@H@std@@V?$allocator@U?$pair@$$CBHPAUnewWeapon@@@std@@@3@$0A@@std@@@std@@QAE@XZ 100206d0 f i PatchMW2PlayerdataDefinition.obj
 0001:0001f720       ?_Tidy@?$_Tree@V?$_Tmap_traits@HPAUnewWeapon@@U?$less@H@std@@V?$allocator@U?$pair@$$CBHPAUnewWeapon@@@std@@@3@$0A@@std@@@std@@IAEXXZ 10020720 f i PatchMW2PlayerdataDefinition.obj
 0001:0001f770       ?erase@?$_Tree@V?$_Tmap_traits@HPAUnewWeapon@@U?$less@H@std@@V?$allocator@U?$pair@$$CBHPAUnewWeapon@@@std@@@3@$0A@@std@@@std@@QAE?AV?$_Tree_iterator@V?$_Tree_val@V?$_Tmap_traits@HPAUnewWeapon@@U?$less@H@std@@V?$allocator@U?$pair@$$CBHPAUnewWeapon@@@std@@@3@$0A@@std@@@std@@@2@V?$_Tree_const_iterator@V?$_Tree_val@V?$_Tmap_traits@HPAUnewWeapon@@U?$less@H@std@@V?$allocator@U?$pair@$$CBHPAUnewWeapon@@@std@@@3@$0A@@std@@@std@@@2@0@Z 10020770 f i PatchMW2PlayerdataDefinition.obj
 0001:0001f820       ?erase@?$_Tree@V?$_Tmap_traits@HPAUnewWeapon@@U?$less@H@std@@V?$allocator@U?$pair@$$CBHPAUnewWeapon@@@std@@@3@$0A@@std@@@std@@QAE?AV?$_Tree_iterator@V?$_Tree_val@V?$_Tmap_traits@HPAUnewWeapon@@U?$less@H@std@@V?$allocator@U?$pair@$$CBHPAUnewWeapon@@@std@@@3@$0A@@std@@@std@@@2@V?$_Tree_const_iterator@V?$_Tree_val@V?$_Tmap_traits@HPAUnewWeapon@@U?$less@H@std@@V?$allocator@U?$pair@$$CBHPAUnewWeapon@@@std@@@3@$0A@@std@@@std@@@2@@Z 10020820 f i PatchMW2PlayerdataDefinition.obj
 0001:0001ffb0       ?clear@?$_Tree@V?$_Tmap_traits@HPAUnewWeapon@@U?$less@H@std@@V?$allocator@U?$pair@$$CBHPAUnewWeapon@@@std@@@3@$0A@@std@@@std@@QAEXXZ 10020fb0 f i PatchMW2PlayerdataDefinition.obj
 0001:00020010       ??E?$_Tree_const_iterator@V?$_Tree_val@V?$_Tmap_traits@HPAUnewWeapon@@U?$less@H@std@@V?$allocator@U?$pair@$$CBHPAUnewWeapon@@@std@@@3@$0A@@std@@@std@@@std@@QAE?AV01@H@Z 10021010 f i PatchMW2PlayerdataDefinition.obj
 0001:00020040       ?_Erase@?$_Tree@V?$_Tmap_traits@HPAUnewWeapon@@U?$less@H@std@@V?$allocator@U?$pair@$$CBHPAUnewWeapon@@@std@@@3@$0A@@std@@@std@@IAEXPAU_Node@?$_Tree_nod@V?$_Tmap_traits@HPAUnewWeapon@@U?$less@H@std@@V?$allocator@U?$pair@$$CBHPAUnewWeapon@@@std@@@3@$0A@@std@@@2@@Z 10021040 f i PatchMW2PlayerdataDefinition.obj
 0001:000200d0       ??$swap@D@std@@YAXAAD0@Z   100210d0 f i PatchMW2PlayerdataDefinition.obj
 0001:00020110       ?SV_Demo_WriteDemoMessage@@YAXW4DemoMessageType@@PAXI@Z 10021110 f   PatchMW2RecordingSV.obj
 0001:000201f0       ?SV_Demo_StartRecording@@YAXXZ 100211f0 f   PatchMW2RecordingSV.obj
 0001:00020220       ?SV_Demo_StopRecording@@YAXXZ 10021220 f   PatchMW2RecordingSV.obj
 0001:00020260       ?Scr_IsDemoRecording@@YAXH@Z 10021260 f   PatchMW2RecordingSV.obj
 0001:00020280       ?Scr_StartDemoRecording@@YAXH@Z 10021280 f   PatchMW2RecordingSV.obj
 0001:000202c0       ?Scr_StopDemoRecording@@YAXH@Z 100212c0 f   PatchMW2RecordingSV.obj
 0001:000202f0       ?Scr_AddDemoBookmark@@YAXH@Z 100212f0 f   PatchMW2RecordingSV.obj
 0001:00020300       ?SV_AddDemoClient@@YA_NXZ  10021300 f   PatchMW2RecordingSV.obj
 0001:00020580       ?SV_RemoveDemoClient@@YAXXZ 10021580 f   PatchMW2RecordingSV.obj
 0001:000205b0       ?SV_SendMessageToClientHookFunc@@YAXPAUmsg_t@@PAUclient_s@@@Z 100215b0 f   PatchMW2RecordingSV.obj
 0001:000205e0       ?SV_SendMessageToClientHookStub@@YAXXZ 100215e0 f   PatchMW2RecordingSV.obj
 0001:00020600       ?PatchMW2_RecordingSV@@YAXXZ 10021600 f   PatchMW2RecordingSV.obj
 0001:00020670       ?GamestateWriteHookFunc@@YAXPAUmsg_t@@D@Z 10021670 f   PatchMW2DemoRecording.obj
 0001:000206a0       ?GamestateWriteHookStub@@YAXXZ 100216a0 f   PatchMW2DemoRecording.obj
 0001:000206b0       ?BaselineStoreHookFunc@@YAXXZ 100216b0 f   PatchMW2DemoRecording.obj
 0001:00020700       ?WriteBaseline@@YAXXZ      10021700 f   PatchMW2DemoRecording.obj
 0001:00020850       ?BaselineToFileFunc@@YAXXZ 10021850 f   PatchMW2DemoRecording.obj
 0001:00020870       ?RecordGamestateFunc@@YAXXZ 10021870 f   PatchMW2DemoRecording.obj
 0001:000208b0       ?UISetActiveMenuHookStub@@YAXXZ 100218b0 f   PatchMW2DemoRecording.obj
 0001:000208d0       ?CL_AdjustTimeDeltaHookStub@@YAXXZ 100218d0 f   PatchMW2DemoRecording.obj
 0001:000208f0       ?ServerTimedOutHookStub@@YAXXZ 100218f0 f   PatchMW2DemoRecording.obj
 0001:00020910       ?PatchMW2_DemoRecording@@YAXXZ 10021910 f   PatchMW2DemoRecording.obj
 0001:00020a40       ?FS_SV_FileExists@@YA_NPBD@Z 10021a40 f   PatchMW2DownloadCL.obj
 0001:00020ad0       ?FS_FilenameCompare@@YAHPBD0@Z 10021ad0 f   PatchMW2DownloadCL.obj
 0001:00020b70       ?FS_iwIwd@@YA_NPAD0@Z      10021b70 f   PatchMW2DownloadCL.obj
 0001:00020bd0       ?FS_CompareWithServerFiles@@YAHPADH_N@Z 10021bd0 f   PatchMW2DownloadCL.obj
 0001:00020e90       ?DL_ProgressString@@YAPBDXZ 10021e90 f   PatchMW2DownloadCL.obj
 0001:00020f00       ?CL_StartDownloads@@YAXH@Z 10021f00 f   PatchMW2DownloadCL.obj
 0001:00020f30       ?CL_InitDownloads@@YAXH@Z  10021f30 f   PatchMW2DownloadCL.obj
 0001:00020fe0       ?FS_SearchPaths_f@@YAXXZ   10021fe0 f   PatchMW2DownloadCL.obj
 0001:00021060       ?CL_InitDownloadQueue@@YAXXZ 10022060 f   PatchMW2DownloadCL.obj
 0001:00021110       ?CL_QueueDownload@@YAXPBD0H@Z 10022110 f   PatchMW2DownloadCL.obj
 0001:00021190       ?DL_Initialize@@YAXXZ      10022190 f   PatchMW2DownloadCL.obj
 0001:000211c0       ?DL_Shutdown@@YAXXZ        100221c0 f   PatchMW2DownloadCL.obj
 0001:000211e0       ?DL_DequeueDownload@@YAXXZ 100221e0 f   PatchMW2DownloadCL.obj
 0001:00021240       ?DL_WriteToFile@@YAIPAXIIPAU_iobuf@@@Z 10022240 f   PatchMW2DownloadCL.obj
 0001:000212c0       ?DL_ProcessDownload@@YAXXZ 100222c0 f   PatchMW2DownloadCL.obj
 0001:000215e0       ?DL_Process@@YAXXZ         100225e0 f   PatchMW2DownloadCL.obj
 0001:00021680       ?CL_ParseDownload@@YAXHPAUmsg_t@@@Z 10022680 f   PatchMW2DownloadCL.obj
 0001:00021810       ?CL_ParseServerMessageHookStub@@YAXXZ 10022810 f   PatchMW2DownloadCL.obj
 0001:00021840       ?GetFS_Game@@YAXXZ         10022840 f   PatchMW2DownloadCL.obj
 0001:000218c0       ?clParseGamestateHookStub@@YAXXZ 100228c0 f   PatchMW2DownloadCL.obj
 0001:000218e0       ?NUI_Frame@@YAXXZ          100228e0 f   PatchMW2DownloadCL.obj
 0001:00021900       ?CL_FrameHookStub@@YAXXZ   10022900 f   PatchMW2DownloadCL.obj
 0001:00021920       ?DisplayConnectionStatusHookStub@@YAXXZ 10022920 f   PatchMW2DownloadCL.obj
 0001:00021940       ?PatchMW2_DownloadClient@@YAXXZ 10022940 f   PatchMW2DownloadCL.obj
 0001:00021c50       ?strstr@@YAPADPADPBD@Z     10022c50 f i PatchMW2DownloadCL.obj
 0001:00021c70       ??1?$queue@Udownload_s@@V?$deque@Udownload_s@@V?$allocator@Udownload_s@@@std@@@std@@@std@@QAE@XZ 10022c70 f i PatchMW2DownloadCL.obj
 0001:00021c90       ?NextSiblingElement@TiXmlNode@@QAEPAVTiXmlElement@@XZ 10022c90 f i PatchMW2DownloadCL.obj
 0001:00021cb0       ?FirstChildElement@TiXmlNode@@QAEPAVTiXmlElement@@PBD@Z 10022cb0 f i PatchMW2DownloadCL.obj
 0001:00021cd0       ??1TiXmlDocument@@UAE@XZ   10022cd0 f i PatchMW2DownloadCL.obj
 0001:00021d30       ??1TiXmlString@@QAE@XZ     10022d30 f i PatchMW2DownloadCL.obj
 0001:00021d50       ?quit@TiXmlString@@AAEXXZ  10022d50 f i PatchMW2DownloadCL.obj
 0001:00021d80       ?ToDeclaration@TiXmlNode@@UAEPAVTiXmlDeclaration@@XZ 10022d80 f i PatchMW2DownloadCL.obj
 0001:00021d80       ?sync@?$basic_streambuf@DU?$char_traits@D@std@@@std@@MAEHXZ 10022d80 f i Auth.obj
 0001:00021d80       ?ToComment@TiXmlNode@@UBEPBVTiXmlComment@@XZ 10022d80 f i PatchMW2DownloadCL.obj
 0001:00021d80       ?ToUnknown@TiXmlNode@@UBEPBVTiXmlUnknown@@XZ 10022d80 f i PatchMW2DownloadCL.obj
 0001:00021d80       ?ToElement@TiXmlNode@@UBEPBVTiXmlElement@@XZ 10022d80 f i PatchMW2DownloadCL.obj
 0001:00021d80       ?ToUnknown@TiXmlNode@@UAEPAVTiXmlUnknown@@XZ 10022d80 f i PatchMW2DownloadCL.obj
 0001:00021d80       ?ToComment@TiXmlNode@@UAEPAVTiXmlComment@@XZ 10022d80 f i PatchMW2DownloadCL.obj
 0001:00021d80       ?ToText@TiXmlNode@@UAEPAVTiXmlText@@XZ 10022d80 f i PatchMW2DownloadCL.obj
 0001:00021d80       ?ToDeclaration@TiXmlNode@@UBEPBVTiXmlDeclaration@@XZ 10022d80 f i PatchMW2DownloadCL.obj
 0001:00021d80       ?ToText@TiXmlNode@@UBEPBVTiXmlText@@XZ 10022d80 f i PatchMW2DownloadCL.obj
 0001:00021d80       ?ToElement@TiXmlNode@@UAEPAVTiXmlElement@@XZ 10022d80 f i PatchMW2DownloadCL.obj
 0001:00021d90       ??_ETiXmlDocument@@UAEPAXI@Z 10022d90 f i PatchMW2DownloadCL.obj
 0001:00021d90       ??_GTiXmlDocument@@UAEPAXI@Z 10022d90 f i PatchMW2DownloadCL.obj
 0001:00021dc0       ?ToElement@TiXmlHandle@@QBEPAVTiXmlElement@@XZ 10022dc0 f i PatchMW2DownloadCL.obj
 0001:00021e10       ??0?$queue@Udownload_s@@V?$deque@Udownload_s@@V?$allocator@Udownload_s@@@std@@@std@@@std@@QAE@XZ 10022e10 f i PatchMW2DownloadCL.obj
 0001:00021e30       ?front@?$queue@Udownload_s@@V?$deque@Udownload_s@@V?$allocator@Udownload_s@@@std@@@std@@@std@@QAEAAUdownload_s@@XZ 10022e30 f i PatchMW2DownloadCL.obj
 0001:00021e50       ?push@?$queue@Udownload_s@@V?$deque@Udownload_s@@V?$allocator@Udownload_s@@@std@@@std@@@std@@QAEXABUdownload_s@@@Z 10022e50 f i PatchMW2DownloadCL.obj
 0001:00021e70       ?pop@?$queue@Udownload_s@@V?$deque@Udownload_s@@V?$allocator@Udownload_s@@@std@@@std@@@std@@QAEXXZ 10022e70 f i PatchMW2DownloadCL.obj
 0001:00021e90       ??1?$deque@Udownload_s@@V?$allocator@Udownload_s@@@std@@@std@@QAE@XZ 10022e90 f i PatchMW2DownloadCL.obj
 0001:00021ee0       ?front@?$deque@Udownload_s@@V?$allocator@Udownload_s@@@std@@@std@@QAEAAUdownload_s@@XZ 10022ee0 f i PatchMW2DownloadCL.obj
 0001:00021f50       ?pop_front@?$deque@Udownload_s@@V?$allocator@Udownload_s@@@std@@@std@@QAEXXZ 10022f50 f i PatchMW2DownloadCL.obj
 0001:00022000       ?push_back@?$deque@Udownload_s@@V?$allocator@Udownload_s@@@std@@@std@@QAEXABUdownload_s@@@Z 10023000 f i PatchMW2DownloadCL.obj
 0001:000220f0       ?_Tidy@?$deque@Udownload_s@@V?$allocator@Udownload_s@@@std@@@std@@IAEXXZ 100230f0 f i PatchMW2DownloadCL.obj
 0001:000221b0       ??1?$_Deque_val@U?$pair@PAEPAE@std@@V?$allocator@U?$pair@PAEPAE@std@@@2@@std@@QAE@XZ 100231b0 f i PatchMW2StringTable.obj
 0001:000221b0       ??1?$_Deque_val@Udownload_s@@V?$allocator@Udownload_s@@@std@@@std@@QAE@XZ 100231b0 f i PatchMW2DownloadCL.obj
 0001:000221b0       ??1?$_Deque_val@V?$deque@U?$pair@PAEPAE@std@@V?$allocator@U?$pair@PAEPAE@std@@@2@@std@@V?$allocator@V?$deque@U?$pair@PAEPAE@std@@V?$allocator@U?$pair@PAEPAE@std@@@2@@std@@@2@@std@@QAE@XZ 100231b0 f i PatchMW2StringTable.obj
 0001:00022240       ?begin@?$deque@U?$pair@PAEPAE@std@@V?$allocator@U?$pair@PAEPAE@std@@@2@@std@@QAE?AV?$_Deque_iterator@U?$pair@PAEPAE@std@@V?$allocator@U?$pair@PAEPAE@std@@@2@@2@XZ 10023240 f i PatchMW2StringTable.obj
 0001:00022240       ?begin@?$deque@Udownload_s@@V?$allocator@Udownload_s@@@std@@@std@@QAE?AV?$_Deque_iterator@Udownload_s@@V?$allocator@Udownload_s@@@std@@@2@XZ 10023240 f i PatchMW2DownloadCL.obj
 0001:00022280       ?pop_back@?$deque@Udownload_s@@V?$allocator@Udownload_s@@@std@@@std@@QAEXXZ 10023280 f i PatchMW2DownloadCL.obj
 0001:00022330       ?_Growmap@?$deque@Udownload_s@@V?$allocator@Udownload_s@@@std@@@std@@IAEXI@Z 10023330 f i PatchMW2DownloadCL.obj
 0001:00022540       ?allocate@?$allocator@Udownload_s@@@std@@QAEPAUdownload_s@@I@Z 10023540 f i PatchMW2DownloadCL.obj
 0001:00022560       ??D?$_Deque_iterator@Udownload_s@@V?$allocator@Udownload_s@@@std@@@std@@QBEAAUdownload_s@@XZ 10023560 f i PatchMW2DownloadCL.obj
 0001:00022580       ?max_size@?$deque@Udownload_s@@V?$allocator@Udownload_s@@@std@@@std@@QBEIXZ 10023580 f i PatchMW2DownloadCL.obj
 0001:000225a0       ??D?$_Deque_const_iterator@Udownload_s@@V?$allocator@Udownload_s@@@std@@@std@@QBEABUdownload_s@@XZ 100235a0 f i PatchMW2DownloadCL.obj
 0001:00022600       ?_Getcont@_Iterator_base12@std@@QBEPBU_Container_base12@2@XZ 10023600 f i PatchMW2DownloadCL.obj
 0001:00022630       ?max_size@?$allocator@Udownload_s@@@std@@QBEIXZ 10023630 f i PatchMW2DownloadCL.obj
 0001:00022660       ?_Setcont@?$_Deque_const_iterator@Udownload_s@@V?$allocator@Udownload_s@@@std@@@std@@QAEXPBV?$deque@Udownload_s@@V?$allocator@Udownload_s@@@std@@@2@@Z 10023660 f i PatchMW2DownloadCL.obj
 0001:00022660       ?_Setcont@?$_Deque_const_iterator@U?$pair@PAEPAE@std@@V?$allocator@U?$pair@PAEPAE@std@@@2@@std@@QAEXPBV?$deque@U?$pair@PAEPAE@std@@V?$allocator@U?$pair@PAEPAE@std@@@2@@2@@Z 10023660 f i PatchMW2StringTable.obj
 0001:00022660       ?_Setcont@?$_Deque_const_iterator@V?$deque@U?$pair@PAEPAE@std@@V?$allocator@U?$pair@PAEPAE@std@@@2@@std@@V?$allocator@V?$deque@U?$pair@PAEPAE@std@@V?$allocator@U?$pair@PAEPAE@std@@@2@@std@@@2@@std@@QAEXPBV?$deque@V?$deque@U?$pair@PAEPAE@std@@V?$allocator@U?$pair@PAEPAE@std@@@2@@std@@V?$allocator@V?$deque@U?$pair@PAEPAE@std@@V?$allocator@U?$pair@PAEPAE@std@@@2@@std@@@2@@2@@Z 10023660 f i PatchMW2StringTable.obj
 0001:00022680       ?_Adopt@_Iterator_base12@std@@QAEXPBU_Container_base12@2@@Z 10023680 f i PatchMW2DownloadCL.obj
 0001:000226b0       ??$swap@Udownload_s@@V?$deque@Udownload_s@@V?$allocator@Udownload_s@@@std@@@std@@@std@@YAXAAV?$queue@Udownload_s@@V?$deque@Udownload_s@@V?$allocator@Udownload_s@@@std@@@std@@@0@0@Z 100236b0 f i PatchMW2DownloadCL.obj
 0001:000226d0       ??$_Cons_val@V?$allocator@Udownload_s@@@std@@Udownload_s@@ABU3@@std@@YAXAAV?$allocator@Udownload_s@@@0@PAUdownload_s@@ABU2@@Z 100236d0 f i PatchMW2DownloadCL.obj
 0001:000226f0       ??0?$allocator@V?$_List_iterator@V?$_List_val@U?$pair@$$CBK_N@std@@V?$allocator@U?$pair@$$CBK_N@std@@@2@@std@@@std@@@std@@QAE@ABV01@@Z 100236f0 f i PatchMW2AssetRestrict.obj
 0001:000226f0       ??0?$allocator@V?$_List_iterator@V?$_List_val@U?$pair@$$CBKPAX@std@@V?$allocator@U?$pair@$$CBKPAX@std@@@2@@std@@@std@@@std@@QAE@ABV01@@Z 100236f0 f i PatchMW2FilePointers.obj
 0001:000226f0       ??0?$allocator@V?$_List_iterator@V?$_List_val@U?$pair@$$CBKK@std@@V?$allocator@U?$pair@$$CBKK@std@@@2@@std@@@std@@@std@@QAE@ABV01@@Z 100236f0 f i PatchMW2FilePointers.obj
 0001:000226f0       ??0?$allocator@U?$pair@$$CB_K_J@std@@@std@@QAE@ABV01@@Z 100236f0 f i PatchMW2PreAuthenticate.obj
 0001:000226f0       ??0?$allocator@V?$_List_iterator@V?$_List_val@U?$pair@$$CBV?$basic_string@DU?$char_traits@D@std@@V?$allocator@D@2@@std@@P6AXH@Z@std@@V?$allocator@U?$pair@$$CBV?$basic_string@DU?$char_traits@D@std@@V?$allocator@D@2@@std@@P6AXH@Z@std@@@2@@std@@@std@@@std@@QAE@ABV01@@Z 100236f0 f i GameInterface.obj
 0001:000226f0       ??0?$allocator@V?$basic_string@DU?$char_traits@D@std@@V?$allocator@D@2@@std@@@std@@QAE@ABV01@@Z 100236f0 f i MW2.obj
 0001:000226f0       ??$?0U?$pair@$$CBV?$basic_string@DU?$char_traits@D@std@@V?$allocator@D@2@@std@@_N@std@@@?$allocator@V?$_List_iterator@V?$_List_val@U?$pair@$$CBV?$basic_string@DU?$char_traits@D@std@@V?$allocator@D@2@@std@@_N@std@@V?$allocator@U?$pair@$$CBV?$basic_string@DU?$char_traits@D@std@@V?$allocator@D@2@@std@@_N@std@@@2@@std@@@std@@@std@@QAE@ABV?$allocator@U?$pair@$$CBV?$basic_string@DU?$char_traits@D@std@@V?$allocator@D@2@@std@@_N@std@@@1@@Z 100236f0 f i PatchMW2Experiments.obj
 0001:000226f0       ??0?$libc_allocator_with_realloc@U?$pair@$$CBV?$basic_string@DU?$char_traits@D@std@@V?$allocator@D@2@@std@@V12@@std@@@google@@QAE@ABV01@@Z 100236f0 f i PatchMW2LocalizedStrings.obj
 0001:000226f0       ??0?$allocator@UServerStorageEntry@@@std@@QAE@ABV01@@Z 100236f0 f i ServerStorage.obj
 0001:000226f0       ??0?$allocator@H@std@@QAE@ABV01@@Z 100236f0 f i Script.obj
 0001:000226f0       ??$?0U?$pair@$$CBKPAX@std@@@?$allocator@V?$_List_iterator@V?$_List_val@U?$pair@$$CBKPAX@std@@V?$allocator@U?$pair@$$CBKPAX@std@@@2@@std@@@std@@@std@@QAE@ABV?$allocator@U?$pair@$$CBKPAX@std@@@1@@Z 100236f0 f i PatchMW2FilePointers.obj
 0001:000226f0       ??$?0U?$pair@$$CBV?$basic_string@DU?$char_traits@D@std@@V?$allocator@D@2@@std@@P6AXH@Z@std@@@?$allocator@V?$_List_iterator@V?$_List_val@U?$pair@$$CBV?$basic_string@DU?$char_traits@D@std@@V?$allocator@D@2@@std@@P6AXH@Z@std@@V?$allocator@U?$pair@$$CBV?$basic_string@DU?$char_traits@D@std@@V?$allocator@D@2@@std@@P6AXH@Z@std@@@2@@std@@@std@@@std@@QAE@ABV?$allocator@U?$pair@$$CBV?$basic_string@DU?$char_traits@D@std@@V?$allocator@D@2@@std@@P6AXH@Z@std@@@1@@Z 100236f0 f i GameInterface.obj
 0001:000226f0       ??0?$allocator@U?$pair@$$CBV?$basic_string@DU?$char_traits@D@std@@V?$allocator@D@2@@std@@_N@std@@@std@@QAE@ABV01@@Z 100236f0 f i PatchMW2Experiments.obj
 0001:000226f0       ??0?$allocator@UUIClickHandler_t@@@std@@QAE@ABV01@@Z 100236f0 f i PatchMW2UIScripts.obj
 0001:000226f0       ??0?$allocator@UdemoInfo_s@@@std@@QAE@ABV01@@Z 100236f0 f i PatchMW2TheatreMenu.obj
 0001:000226f0       ??$?0V?$deque@U?$pair@PAEPAE@std@@V?$allocator@U?$pair@PAEPAE@std@@@2@@std@@@?$allocator@U_Container_proxy@std@@@std@@QAE@ABV?$allocator@V?$deque@U?$pair@PAEPAE@std@@V?$allocator@U?$pair@PAEPAE@std@@@2@@std@@@1@@Z 100236f0 f i PatchMW2StringTable.obj
 0001:000226f0       ??0?$allocator@V?$_List_iterator@V?$_List_val@U?$pair@$$CBV?$basic_string@DU?$char_traits@D@std@@V?$allocator@D@2@@std@@PAUVehicleDef@@@std@@V?$allocator@U?$pair@$$CBV?$basic_string@DU?$char_traits@D@std@@V?$allocator@D@2@@std@@PAUVehicleDef@@@std@@@2@@std@@@std@@@std@@QAE@ABV01@@Z 100236f0 f i PatchMW2LoadVehicleDef.obj
 0001:000226f0       ??$?0U?$pair@$$CBK_N@std@@@?$allocator@U_Node@?$_List_nod@U?$pair@$$CBK_N@std@@V?$allocator@U?$pair@$$CBK_N@std@@@2@@std@@@std@@QAE@ABV?$allocator@U?$pair@$$CBK_N@std@@@1@@Z 100236f0 f i PatchMW2AssetRestrict.obj
 0001:000226f0       ??0?$allocator@UAssetRelocation@@@std@@QAE@ABV01@@Z 100236f0 f i PatchMW2FilePointers.obj
 0001:000226f0       ??$?0V?$deque@U?$pair@PAEPAE@std@@V?$allocator@U?$pair@PAEPAE@std@@@2@@std@@@?$allocator@PAV?$deque@U?$pair@PAEPAE@std@@V?$allocator@U?$pair@PAEPAE@std@@@2@@std@@@std@@QAE@ABV?$allocator@V?$deque@U?$pair@PAEPAE@std@@V?$allocator@U?$pair@PAEPAE@std@@@2@@std@@@1@@Z 100236f0 f i PatchMW2StringTable.obj
 0001:000226f0       ??0?$allocator@V?$_List_iterator@V?$_List_val@U?$pair@$$CB_K_N@std@@V?$allocator@U?$pair@$$CB_K_N@std@@@2@@std@@@std@@@std@@QAE@ABV01@@Z 100236f0 f i SteamBase.obj
 0001:000226f0       ??0?$allocator@U?$pair@$$CBKK@std@@@std@@QAE@ABV01@@Z 100236f0 f i PatchMW2FilePointers.obj
 0001:000226f0       ??$?0U?$pair@$$CBK_N@std@@@?$allocator@V?$_List_iterator@V?$_List_val@U?$pair@$$CBK_N@std@@V?$allocator@U?$pair@$$CBK_N@std@@@2@@std@@@std@@@std@@QAE@ABV?$allocator@U?$pair@$$CBK_N@std@@@1@@Z 100236f0 f i PatchMW2AssetRestrict.obj
 0001:000226f0       ??0?$allocator@PAUchallengeState_t@@@std@@QAE@ABV01@@Z 100236f0 f i PatchMW2PreAuthenticate.obj
 0001:000226f0       ??0?$allocator@V?$_List_iterator@V?$_List_val@U?$pair@$$CBV?$basic_string@DU?$char_traits@D@std@@V?$allocator@D@2@@std@@_N@std@@V?$allocator@U?$pair@$$CBV?$basic_string@DU?$char_traits@D@std@@V?$allocator@D@2@@std@@_N@std@@@2@@std@@@std@@@std@@QAE@ABV01@@Z 100236f0 f i PatchMW2Experiments.obj
 0001:000226f0       ??0?$libc_allocator_with_realloc@U?$pair@$$CBV?$basic_string@DU?$char_traits@D@std@@V?$allocator@D@2@@std@@PAUMaterial@@@std@@@google@@QAE@ABV01@@Z 100236f0 f i PatchMW2Materialism.obj
 0001:000226f0       ??0?$allocator@V?$_List_iterator@V?$_List_val@U?$pair@$$CBHUNPFriend@@@std@@V?$allocator@U?$pair@$$CBHUNPFriend@@@std@@@2@@std@@@std@@@std@@QAE@ABV01@@Z 100236f0 f i PatchMW2Friends.obj
 0001:000226f0       ??$?0U?$pair@PAEPAE@std@@@?$allocator@U_Container_proxy@std@@@std@@QAE@ABV?$allocator@U?$pair@PAEPAE@std@@@1@@Z 100236f0 f i PatchMW2StringTable.obj
 0001:000226f0       ??0?$_Tmap_traits@HPAUnewWeapon@@U?$less@H@std@@V?$allocator@U?$pair@$$CBHPAUnewWeapon@@@std@@@3@$0A@@std@@QAE@U?$less@H@1@@Z 100236f0 f i PatchMW2PlayerdataDefinition.obj
 0001:000226f0       ??0?$allocator@V?$deque@U?$pair@PAEPAE@std@@V?$allocator@U?$pair@PAEPAE@std@@@2@@std@@@std@@QAE@ABV01@@Z 100236f0 f i PatchMW2StringTable.obj
 0001:000226f0       ??$?0U?$pair@$$CBV?$basic_string@DU?$char_traits@D@std@@V?$allocator@D@2@@std@@_N@std@@@?$allocator@U_Node@?$_List_nod@U?$pair@$$CBV?$basic_string@DU?$char_traits@D@std@@V?$allocator@D@2@@std@@_N@std@@V?$allocator@U?$pair@$$CBV?$basic_string@DU?$char_traits@D@std@@V?$allocator@D@2@@std@@_N@std@@@2@@std@@@std@@QAE@ABV?$allocator@U?$pair@$$CBV?$basic_string@DU?$char_traits@D@std@@V?$allocator@D@2@@std@@_N@std@@@1@@Z 100236f0 f i PatchMW2Experiments.obj
 0001:000226f0       ??$?0UAssetRelocation@@@?$allocator@U_Node@?$_List_nod@UAssetRelocation@@V?$allocator@UAssetRelocation@@@std@@@std@@@std@@QAE@ABV?$allocator@UAssetRelocation@@@1@@Z 100236f0 f i PatchMW2FilePointers.obj
 0001:000226f0       ??0?$allocator@U?$pair@$$CBHUNPFriend@@@std@@@std@@QAE@ABV01@@Z 100236f0 f i PatchMW2Friends.obj
 0001:000226f0       ??0?$allocator@U?$pair@$$CBV?$basic_string@DU?$char_traits@D@std@@V?$allocator@D@2@@std@@P6AXH@Z@std@@@std@@QAE@ABV01@@Z 100236f0 f i GameInterface.obj
 0001:000226f0       ??0?$allocator@U?$pair@$$CB_KPAVCCallbackBase@@@std@@@std@@QAE@ABV01@@Z 100236f0 f i SteamBase.obj
 0001:000226f0       ??0?$allocator@PAUMaterial@@@std@@QAE@ABV01@@Z 100236f0 f i PatchMW2WeaponCamos.obj
 0001:000226f0       ??0?$allocator@UUIFeeder_t@@@std@@QAE@ABV01@@Z 100236f0 f i PatchMW2UIScripts.obj
 0001:000226f0       ??0?$allocator@U?$pair@$$CBV?$basic_string@DU?$char_traits@D@std@@V?$allocator@D@2@@std@@Uscr_funcdef_t@@@std@@@std@@QAE@ABV01@@Z 100236f0 f i Script.obj
 0001:000226f0       ??$?0U?$pair@$$CB_K_N@std@@@?$allocator@U_Node@?$_List_nod@U?$pair@$$CB_K_N@std@@V?$allocator@U?$pair@$$CB_K_N@std@@@2@@std@@@std@@QAE@ABV?$allocator@U?$pair@$$CB_K_N@std@@@1@@Z 100236f0 f i SteamBase.obj
 0001:000226f0       ??0?$allocator@V?$_List_iterator@V?$_List_val@U?$pair@QAXK@std@@V?$allocator@U?$pair@QAXK@std@@@2@@std@@@std@@@std@@QAE@ABV01@@Z 100236f0 f i PatchMW2FilePointers.obj
 0001:000226f0       ??$?0Udownload_s@@@?$allocator@PAUdownload_s@@@std@@QAE@ABV?$allocator@Udownload_s@@@1@@Z 100236f0 f i PatchMW2DownloadCL.obj
 0001:000226f0       ??0?$allocator@U?$pair@PAEPAE@std@@@std@@QAE@ABV01@@Z 100236f0 f i PatchMW2StringTable.obj
 0001:000226f0       ??$?0U?$pair@$$CBHUNPFriend@@@std@@@?$allocator@U_Node@?$_List_nod@U?$pair@$$CBHUNPFriend@@@std@@V?$allocator@U?$pair@$$CBHUNPFriend@@@std@@@2@@std@@@std@@QAE@ABV?$allocator@U?$pair@$$CBHUNPFriend@@@std@@@1@@Z 100236f0 f i PatchMW2Friends.obj
 0001:000226f0       ??$?0U?$pair@$$CBHUNPFriend@@@std@@@?$allocator@V?$_List_iterator@V?$_List_val@U?$pair@$$CBHUNPFriend@@@std@@V?$allocator@U?$pair@$$CBHUNPFriend@@@std@@@2@@std@@@std@@@std@@QAE@ABV?$allocator@U?$pair@$$CBHUNPFriend@@@std@@@1@@Z 100236f0 f i PatchMW2Friends.obj
 0001:000226f0       ??0?$allocator@V?$_List_iterator@V?$_List_val@U?$pair@$$CB_KPAVCCallbackBase@@@std@@V?$allocator@U?$pair@$$CB_KPAVCCallbackBase@@@std@@@2@@std@@@std@@@std@@QAE@ABV01@@Z 100236f0 f i SteamBase.obj
 0001:000226f0       ??0?$allocator@U?$pair@$$CBKPAX@std@@@std@@QAE@ABV01@@Z 100236f0 f i PatchMW2FilePointers.obj
 0001:000226f0       ??$?0UAttachmentPatch@@@?$allocator@U_Node@?$_List_nod@UAttachmentPatch@@V?$allocator@UAttachmentPatch@@@std@@@std@@@std@@QAE@ABV?$allocator@UAttachmentPatch@@@1@@Z 100236f0 f i PatchMW2PartialWeaponry.obj
 0001:000226f0       ??0?$allocator@U?$pair@$$CB_K_N@std@@@std@@QAE@ABV01@@Z 100236f0 f i SteamBase.obj
 0001:000226f0       ??0?$allocator@Udownload_s@@@std@@QAE@ABV01@@Z 100236f0 f i PatchMW2DownloadCL.obj
 0001:000226f0       ??0?$_Tmap_traits@V?$basic_string@DU?$char_traits@D@std@@V?$allocator@D@2@@std@@Uscr_funcdef_t@@U?$less@V?$basic_string@DU?$char_traits@D@std@@V?$allocator@D@2@@std@@@2@V?$allocator@U?$pair@$$CBV?$basic_string@DU?$char_traits@D@std@@V?$allocator@D@2@@std@@Uscr_funcdef_t@@@std@@@2@$0A@@std@@QAE@U?$less@V?$basic_string@DU?$char_traits@D@std@@V?$allocator@D@2@@std@@@1@@Z 100236f0 f i Script.obj
 0001:000226f0       ??0?$allocator@Ugscr_file_t@@@std@@QAE@ABV01@@Z 100236f0 f i Script.obj
 0001:000226f0       ??$?0U?$pair@$$CBV?$basic_string@DU?$char_traits@D@std@@V?$allocator@D@2@@std@@PAUVehicleDef@@@std@@@?$allocator@U_Node@?$_List_nod@U?$pair@$$CBV?$basic_string@DU?$char_traits@D@std@@V?$allocator@D@2@@std@@PAUVehicleDef@@@std@@V?$allocator@U?$pair@$$CBV?$basic_string@DU?$char_traits@D@std@@V?$allocator@D@2@@std@@PAUVehicleDef@@@std@@@2@@std@@@std@@QAE@ABV?$allocator@U?$pair@$$CBV?$basic_string@DU?$char_traits@D@std@@V?$allocator@D@2@@std@@PAUVehicleDef@@@std@@@1@@Z 100236f0 f i PatchMW2LoadVehicleDef.obj
 0001:000226f0       ??0?$allocator@USteamInterface2_s@@@std@@QAE@ABV01@@Z 100236f0 f i SteamBase.obj
 0001:000226f0       ??$?0U?$pair@QAXK@std@@@?$allocator@U_Node@?$_List_nod@U?$pair@QAXK@std@@V?$allocator@U?$pair@QAXK@std@@@2@@std@@@std@@QAE@ABV?$allocator@U?$pair@QAXK@std@@@1@@Z 100236f0 f i PatchMW2FilePointers.obj
 0001:000226f0       ??0?$allocator@PAUmenuDef_t@@@std@@QAE@ABV01@@Z 100236f0 f i PatchMW2UILoading.obj
 0001:000226f0       ??$?0U?$pair@$$CB_KPAVCCallbackBase@@@std@@@?$allocator@V?$_List_iterator@V?$_List_val@U?$pair@$$CB_KPAVCCallbackBase@@@std@@V?$allocator@U?$pair@$$CB_KPAVCCallbackBase@@@std@@@2@@std@@@std@@@std@@QAE@ABV?$allocator@U?$pair@$$CB_KPAVCCallbackBase@@@std@@@1@@Z 100236f0 f i SteamBase.obj
 0001:000226f0       ??$?0Udownload_s@@@?$allocator@U_Container_proxy@std@@@std@@QAE@ABV?$allocator@Udownload_s@@@1@@Z 100236f0 f i PatchMW2DownloadCL.obj
 0001:000226f0       ??0?$allocator@D@std@@QAE@ABV01@@Z 100236f0 f i Auth.obj
 0001:000226f0       ??$?0U?$pair@$$CBV?$basic_string@DU?$char_traits@D@std@@V?$allocator@D@2@@std@@PAUVehicleDef@@@std@@@?$allocator@V?$_List_iterator@V?$_List_val@U?$pair@$$CBV?$basic_string@DU?$char_traits@D@std@@V?$allocator@D@2@@std@@PAUVehicleDef@@@std@@V?$allocator@U?$pair@$$CBV?$basic_string@DU?$char_traits@D@std@@V?$allocator@D@2@@std@@PAUVehicleDef@@@std@@@2@@std@@@std@@@std@@QAE@ABV?$allocator@U?$pair@$$CBV?$basic_string@DU?$char_traits@D@std@@V?$allocator@D@2@@std@@PAUVehicleDef@@@std@@@1@@Z 100236f0 f i PatchMW2LoadVehicleDef.obj
 0001:000226f0       ??$?0U?$pair@PAEPAE@std@@@?$allocator@PAU?$pair@PAEPAE@std@@@std@@QAE@ABV?$allocator@U?$pair@PAEPAE@std@@@1@@Z 100236f0 f i PatchMW2StringTable.obj
 0001:000226f0       ??0?$allocator@U?$pair@QAXK@std@@@std@@QAE@ABV01@@Z 100236f0 f i PatchMW2FilePointers.obj
 0001:000226f0       ??$?0U?$pair@$$CBHPAUnewWeapon@@@std@@@?$allocator@U_Node@?$_Tree_nod@V?$_Tmap_traits@HPAUnewWeapon@@U?$less@H@std@@V?$allocator@U?$pair@$$CBHPAUnewWeapon@@@std@@@3@$0A@@std@@@std@@@std@@QAE@ABV?$allocator@U?$pair@$$CBHPAUnewWeapon@@@std@@@1@@Z 100236f0 f i PatchMW2PlayerdataDefinition.obj
 0001:000226f0       ??$?0U?$pair@$$CBKK@std@@@?$allocator@U_Node@?$_List_nod@U?$pair@$$CBKK@std@@V?$allocator@U?$pair@$$CBKK@std@@@2@@std@@@std@@QAE@ABV?$allocator@U?$pair@$$CBKK@std@@@1@@Z 100236f0 f i PatchMW2FilePointers.obj
 0001:000226f0       ??$?0U?$pair@QAXK@std@@@?$allocator@V?$_List_iterator@V?$_List_val@U?$pair@QAXK@std@@V?$allocator@U?$pair@QAXK@std@@@2@@std@@@std@@@std@@QAE@ABV?$allocator@U?$pair@QAXK@std@@@1@@Z 100236f0 f i PatchMW2FilePointers.obj
 0001:000226f0       ??0?$allocator@UAttachmentPatch@@@std@@QAE@ABV01@@Z 100236f0 f i PatchMW2PartialWeaponry.obj
 0001:000226f0       ??0?$libc_allocator_with_realloc@U?$pair@$$CBKPAX@std@@@google@@QAE@ABV01@@Z 100236f0 f i PatchMW2CModels.obj
 0001:000226f0       ??0?$allocator@U?$pair@$$CBHPAUnewWeapon@@@std@@@std@@QAE@ABV01@@Z 100236f0 f i PatchMW2PlayerdataDefinition.obj
 0001:000226f0       ??$?0U?$pair@$$CB_KPAVCCallbackBase@@@std@@@?$allocator@U_Node@?$_List_nod@U?$pair@$$CB_KPAVCCallbackBase@@@std@@V?$allocator@U?$pair@$$CB_KPAVCCallbackBase@@@std@@@2@@std@@@std@@QAE@ABV?$allocator@U?$pair@$$CB_KPAVCCallbackBase@@@std@@@1@@Z 100236f0 f i SteamBase.obj
 0001:000226f0       ??0?$allocator@Unetadr_t@@@std@@QAE@ABV01@@Z 100236f0 f i PatchMW2Redirect.obj
 0001:000226f0       ??$?0U?$pair@$$CB_K_J@std@@@?$allocator@U_Node@?$_Tree_nod@V?$_Tmap_traits@_K_JU?$less@_K@std@@V?$allocator@U?$pair@$$CB_K_J@std@@@2@$0A@@std@@@std@@@std@@QAE@ABV?$allocator@U?$pair@$$CB_K_J@std@@@1@@Z 100236f0 f i PatchMW2PreAuthenticate.obj
 0001:000226f0       ??$?0U?$pair@$$CBKPAX@std@@@?$allocator@U_Node@?$_List_nod@U?$pair@$$CBKPAX@std@@V?$allocator@U?$pair@$$CBKPAX@std@@@2@@std@@@std@@QAE@ABV?$allocator@U?$pair@$$CBKPAX@std@@@1@@Z 100236f0 f i PatchMW2FilePointers.obj
 0001:000226f0       ??$?0U?$pair@$$CBKK@std@@@?$allocator@V?$_List_iterator@V?$_List_val@U?$pair@$$CBKK@std@@V?$allocator@U?$pair@$$CBKK@std@@@2@@std@@@std@@@std@@QAE@ABV?$allocator@U?$pair@$$CBKK@std@@@1@@Z 100236f0 f i PatchMW2FilePointers.obj
 0001:000226f0       ??0?$libc_allocator_with_realloc@U?$pair@$$CBV?$basic_string@DU?$char_traits@D@std@@V?$allocator@D@2@@std@@PAUXModel@@@std@@@google@@QAE@ABV01@@Z 100236f0 f i PatchMW2WeaponCamos.obj
 0001:000226f0       ??0?$allocator@USteamAPIResult_s@@@std@@QAE@ABV01@@Z 100236f0 f i SteamBase.obj
 0001:000226f0       ??$?0U?$pair@$$CBV?$basic_string@DU?$char_traits@D@std@@V?$allocator@D@2@@std@@P6AXH@Z@std@@@?$allocator@U_Node@?$_List_nod@U?$pair@$$CBV?$basic_string@DU?$char_traits@D@std@@V?$allocator@D@2@@std@@P6AXH@Z@std@@V?$allocator@U?$pair@$$CBV?$basic_string@DU?$char_traits@D@std@@V?$allocator@D@2@@std@@P6AXH@Z@std@@@2@@std@@@std@@QAE@ABV?$allocator@U?$pair@$$CBV?$basic_string@DU?$char_traits@D@std@@V?$allocator@D@2@@std@@P6AXH@Z@std@@@1@@Z 100236f0 f i GameInterface.obj
 0001:000226f0       ??0?$allocator@U?$pair@$$CBK_N@std@@@std@@QAE@ABV01@@Z 100236f0 f i PatchMW2AssetRestrict.obj
 0001:000226f0       ??0?$_Tmap_traits@_K_JU?$less@_K@std@@V?$allocator@U?$pair@$$CB_K_J@std@@@2@$0A@@std@@QAE@U?$less@_K@1@@Z 100236f0 f i PatchMW2PreAuthenticate.obj
 0001:000226f0       ??0?$libc_allocator_with_realloc@U?$pair@$$CBV?$basic_string@DU?$char_traits@D@std@@V?$allocator@D@2@@std@@G@std@@@google@@QAE@ABV01@@Z 100236f0 f i PatchMW2StringList.obj
 0001:000226f0       ??$?0U?$pair@$$CB_K_N@std@@@?$allocator@V?$_List_iterator@V?$_List_val@U?$pair@$$CB_K_N@std@@V?$allocator@U?$pair@$$CB_K_N@std@@@2@@std@@@std@@@std@@QAE@ABV?$allocator@U?$pair@$$CB_K_N@std@@@1@@Z 100236f0 f i SteamBase.obj
 0001:000226f0       ??0?$allocator@UUIScript_t@@@std@@QAE@ABV01@@Z 100236f0 f i PatchMW2UIScripts.obj
 0001:000226f0       ??0?$libc_allocator_with_realloc@U?$pair@$$CBV?$basic_string@DU?$char_traits@D@std@@V?$allocator@D@2@@std@@PAUstringTable_s@@@std@@@google@@QAE@ABV01@@Z 100236f0 f i PatchMW2StringTable.obj
 0001:000226f0       ??0?$allocator@U?$pair@$$CBV?$basic_string@DU?$char_traits@D@std@@V?$allocator@D@2@@std@@PAUVehicleDef@@@std@@@std@@QAE@ABV01@@Z 100236f0 f i PatchMW2LoadVehicleDef.obj
 0001:000226f0       ??$?0U?$pair@$$CBV?$basic_string@DU?$char_traits@D@std@@V?$allocator@D@2@@std@@Uscr_funcdef_t@@@std@@@?$allocator@U_Node@?$_Tree_nod@V?$_Tmap_traits@V?$basic_string@DU?$char_traits@D@std@@V?$allocator@D@2@@std@@Uscr_funcdef_t@@U?$less@V?$basic_string@DU?$char_traits@D@std@@V?$allocator@D@2@@std@@@2@V?$allocator@U?$pair@$$CBV?$basic_string@DU?$char_traits@D@std@@V?$allocator@D@2@@std@@Uscr_funcdef_t@@@std@@@2@$0A@@std@@@std@@@std@@QAE@ABV?$allocator@U?$pair@$$CBV?$basic_string@DU?$char_traits@D@std@@V?$allocator@D@2@@std@@Uscr_funcdef_t@@@std@@@1@@Z 100236f0 f i Script.obj
 0001:000226f0       ??0?$libc_allocator_with_realloc@U?$pair@$$CBKPAUCModelAllocData@@@std@@@google@@QAE@ABV01@@Z 100236f0 f i PatchMW2CModels.obj
 0001:000226f0       ??0?$allocator@PAVCCallbackBase@@@std@@QAE@ABV01@@Z 100236f0 f i SteamBase.obj
 0001:00022700       ??$_Allocate@Udownload_s@@@std@@YAPAUdownload_s@@IPAU1@@Z 10023700 f i PatchMW2DownloadCL.obj
 0001:00022760       ?swap@?$queue@Udownload_s@@V?$deque@Udownload_s@@V?$allocator@Udownload_s@@@std@@@std@@@std@@QAEXAAV12@@Z 10023760 f i PatchMW2DownloadCL.obj
 0001:00022780       ?construct@?$allocator@Udownload_s@@@std@@QAEXPAUdownload_s@@ABU3@@Z 10023780 f i PatchMW2DownloadCL.obj
 0001:000227a0       ?swap@?$deque@Udownload_s@@V?$allocator@Udownload_s@@@std@@@std@@QAEXAAV12@@Z 100237a0 f i PatchMW2DownloadCL.obj
 0001:000228c0       ?_Swap_all@_Container_base12@std@@QAEXAAU12@@Z 100238c0 f i PatchMW2DownloadCL.obj
 0001:00022910       ??0?$deque@Udownload_s@@V?$allocator@Udownload_s@@@std@@@std@@QAE@$$QAV01@@Z 10023910 f i PatchMW2DownloadCL.obj
 0001:00022980       ??4?$deque@Udownload_s@@V?$allocator@Udownload_s@@@std@@@std@@QAEAAV01@$$QAV01@@Z 10023980 f i PatchMW2DownloadCL.obj
 0001:000229b0       ?_Assign_rv@?$deque@Udownload_s@@V?$allocator@Udownload_s@@@std@@@std@@QAEX$$QAV12@@Z 100239b0 f i PatchMW2DownloadCL.obj
 0001:00022b20       ?push_back@?$deque@Udownload_s@@V?$allocator@Udownload_s@@@std@@@std@@QAEX$$QAUdownload_s@@@Z 10023b20 f i PatchMW2DownloadCL.obj
 0001:00022c10       ?get_allocator@?$deque@Udownload_s@@V?$allocator@Udownload_s@@@std@@@std@@QBE?AV?$allocator@Udownload_s@@@2@XZ 10023c10 f i PatchMW2DownloadCL.obj
 0001:00022c30       ?clear@?$deque@Udownload_s@@V?$allocator@Udownload_s@@@std@@@std@@QAEXXZ 10023c30 f i PatchMW2DownloadCL.obj
 0001:00022c50       ??$_Val_type@PAUSteamAPIResult_s@@@std@@YAPAUSteamAPIResult_s@@PAU1@@Z 10023c50 f i SteamBase.obj
 0001:00022c50       ??$_Val_type@PAPAUmenuDef_t@@@std@@YAPAPAUmenuDef_t@@PAPAU1@@Z 10023c50 f i PatchMW2UILoading.obj
 0001:00022c50       ??$_Val_type@PAV?$_List_iterator@V?$_List_val@U?$pair@$$CBV?$basic_string@DU?$char_traits@D@std@@V?$allocator@D@2@@std@@PAUVehicleDef@@@std@@V?$allocator@U?$pair@$$CBV?$basic_string@DU?$char_traits@D@std@@V?$allocator@D@2@@std@@PAUVehicleDef@@@std@@@2@@std@@@std@@@std@@YAPAV?$_List_iterator@V?$_List_val@U?$pair@$$CBV?$basic_string@DU?$char_traits@D@std@@V?$allocator@D@2@@std@@PAUVehicleDef@@@std@@V?$allocator@U?$pair@$$CBV?$basic_string@DU?$char_traits@D@std@@V?$allocator@D@2@@std@@PAUVehicleDef@@@std@@@2@@std@@@0@PAV10@@Z 10023c50 f i PatchMW2LoadVehicleDef.obj
 0001:00022c50       ??$_Val_type@PAUdemoInfo_s@@@std@@YAPAUdemoInfo_s@@PAU1@@Z 10023c50 f i PatchMW2TheatreMenu.obj
 0001:00022c50       ??$_Val_type@PAV?$_List_iterator@V?$_List_val@U?$pair@$$CBK_N@std@@V?$allocator@U?$pair@$$CBK_N@std@@@2@@std@@@std@@@std@@YAPAV?$_List_iterator@V?$_List_val@U?$pair@$$CBK_N@std@@V?$allocator@U?$pair@$$CBK_N@std@@@2@@std@@@0@PAV10@@Z 10023c50 f i PatchMW2AssetRestrict.obj
 0001:00022c50       ??$_Val_type@PAPAUdownload_s@@@std@@YAPAPAUdownload_s@@PAPAU1@@Z 10023c50 f i PatchMW2DownloadCL.obj
 0001:00022c50       ??$_Val_type@PAPAUchallengeState_t@@@std@@YAPAPAUchallengeState_t@@PAPAU1@@Z 10023c50 f i PatchMW2PreAuthenticate.obj
 0001:00022c50       ??$_Val_type@PAV?$_List_iterator@V?$_List_val@U?$pair@$$CBV?$basic_string@DU?$char_traits@D@std@@V?$allocator@D@2@@std@@P6AXH@Z@std@@V?$allocator@U?$pair@$$CBV?$basic_string@DU?$char_traits@D@std@@V?$allocator@D@2@@std@@P6AXH@Z@std@@@2@@std@@@std@@@std@@YAPAV?$_List_iterator@V?$_List_val@U?$pair@$$CBV?$basic_string@DU?$char_traits@D@std@@V?$allocator@D@2@@std@@P6AXH@Z@std@@V?$allocator@U?$pair@$$CBV?$basic_string@DU?$char_traits@D@std@@V?$allocator@D@2@@std@@P6AXH@Z@std@@@2@@std@@@0@PAV10@@Z 10023c50 f i GameInterface.obj
 0001:00022c50       ??$_Val_type@PAV?$_List_iterator@V?$_List_val@U?$pair@$$CBHUNPFriend@@@std@@V?$allocator@U?$pair@$$CBHUNPFriend@@@std@@@2@@std@@@std@@@std@@YAPAV?$_List_iterator@V?$_List_val@U?$pair@$$CBHUNPFriend@@@std@@V?$allocator@U?$pair@$$CBHUNPFriend@@@std@@@2@@std@@@0@PAV10@@Z 10023c50 f i PatchMW2Friends.obj
 0001:00022c50       ??$_Val_type@PAUnetadr_t@@@std@@YAPAUnetadr_t@@PAU1@@Z 10023c50 f i PatchMW2Redirect.obj
 0001:00022c50       ??$_Val_type@PAV?$_List_iterator@V?$_List_val@U?$pair@$$CBKK@std@@V?$allocator@U?$pair@$$CBKK@std@@@2@@std@@@std@@@std@@YAPAV?$_List_iterator@V?$_List_val@U?$pair@$$CBKK@std@@V?$allocator@U?$pair@$$CBKK@std@@@2@@std@@@0@PAV10@@Z 10023c50 f i PatchMW2FilePointers.obj
 0001:00022c50       ??$_Val_type@PAV?$_List_iterator@V?$_List_val@U?$pair@$$CBKPAX@std@@V?$allocator@U?$pair@$$CBKPAX@std@@@2@@std@@@std@@@std@@YAPAV?$_List_iterator@V?$_List_val@U?$pair@$$CBKPAX@std@@V?$allocator@U?$pair@$$CBKPAX@std@@@2@@std@@@0@PAV10@@Z 10023c50 f i PatchMW2FilePointers.obj
 0001:00022c50       ??$_Val_type@PAV?$_List_iterator@V?$_List_val@U?$pair@$$CBV?$basic_string@DU?$char_traits@D@std@@V?$allocator@D@2@@std@@_N@std@@V?$allocator@U?$pair@$$CBV?$basic_string@DU?$char_traits@D@std@@V?$allocator@D@2@@std@@_N@std@@@2@@std@@@std@@@std@@YAPAV?$_List_iterator@V?$_List_val@U?$pair@$$CBV?$basic_string@DU?$char_traits@D@std@@V?$allocator@D@2@@std@@_N@std@@V?$allocator@U?$pair@$$CBV?$basic_string@DU?$char_traits@D@std@@V?$allocator@D@2@@std@@_N@std@@@2@@std@@@0@PAV10@@Z 10023c50 f i PatchMW2Experiments.obj
 0001:00022c50       ??$_Val_type@PAPAV?$deque@U?$pair@PAEPAE@std@@V?$allocator@U?$pair@PAEPAE@std@@@2@@std@@@std@@YAPAPAV?$deque@U?$pair@PAEPAE@std@@V?$allocator@U?$pair@PAEPAE@std@@@2@@0@PAPAV10@@Z 10023c50 f i PatchMW2StringTable.obj
 0001:00022c50       ??$_Val_type@PAUServerStorageEntry@@@std@@YAPAUServerStorageEntry@@PAU1@@Z 10023c50 f i ServerStorage.obj
 0001:00022c50       ??$_Val_type@PAPAU?$pair@PAEPAE@std@@@std@@YAPAPAU?$pair@PAEPAE@0@PAPAU10@@Z 10023c50 f i PatchMW2StringTable.obj
 0001:00022c50       ??$_Val_type@PAH@std@@YAPAHPAH@Z 10023c50 f i Script.obj
 0001:00022c50       ??$_Val_type@PAUUIFeeder_t@@@std@@YAPAUUIFeeder_t@@PAU1@@Z 10023c50 f i PatchMW2Friends.obj
 0001:00022c50       ??$_Val_type@PAUgscr_file_t@@@std@@YAPAUgscr_file_t@@PAU1@@Z 10023c50 f i Script.obj
 0001:00022c50       ??$_Val_type@PAUSteamInterface2_s@@@std@@YAPAUSteamInterface2_s@@PAU1@@Z 10023c50 f i SteamBase.obj
 0001:00022c50       ??$_Val_type@PAPAVCCallbackBase@@@std@@YAPAPAVCCallbackBase@@PAPAV1@@Z 10023c50 f i SteamBase.obj
 0001:00022c50       ?min@?$numeric_limits@I@std@@SAIXZ 10023c50 f i PatchMW2StringTable.obj
 0001:00022c50       ??$_Val_type@PAUUIClickHandler_t@@@std@@YAPAUUIClickHandler_t@@PAU1@@Z 10023c50 f i PatchMW2UIScripts.obj
 0001:00022c50       ??$_Val_type@PAPAUMaterial@@@std@@YAPAPAUMaterial@@PAPAU1@@Z 10023c50 f i PatchMW2WeaponCamos.obj
 0001:00022c50       ??$_Val_type@PAV?$_List_iterator@V?$_List_val@U?$pair@$$CB_KPAVCCallbackBase@@@std@@V?$allocator@U?$pair@$$CB_KPAVCCallbackBase@@@std@@@2@@std@@@std@@@std@@YAPAV?$_List_iterator@V?$_List_val@U?$pair@$$CB_KPAVCCallbackBase@@@std@@V?$allocator@U?$pair@$$CB_KPAVCCallbackBase@@@std@@@2@@std@@@0@PAV10@@Z 10023c50 f i SteamBase.obj
 0001:00022c50       ??$_Val_type@V?$_Deque_unchecked_iterator@U?$pair@PAEPAE@std@@V?$allocator@U?$pair@PAEPAE@std@@@2@@std@@@std@@YAPAU?$pair@PAEPAE@0@V?$_Deque_unchecked_iterator@U?$pair@PAEPAE@std@@V?$allocator@U?$pair@PAEPAE@std@@@2@@0@@Z 10023c50 f i PatchMW2StringTable.obj
 0001:00022c50       ??$_Dist_type@V?$_Deque_unchecked_iterator@U?$pair@PAEPAE@std@@V?$allocator@U?$pair@PAEPAE@std@@@2@@std@@@std@@YAPAHV?$_Deque_unchecked_iterator@U?$pair@PAEPAE@std@@V?$allocator@U?$pair@PAEPAE@std@@@2@@0@@Z 10023c50 f i PatchMW2StringTable.obj
 0001:00022c50       ??$_Val_type@PAV?$basic_string@DU?$char_traits@D@std@@V?$allocator@D@2@@std@@@std@@YAPAV?$basic_string@DU?$char_traits@D@std@@V?$allocator@D@2@@0@PAV10@@Z 10023c50 f i MW2.obj
 0001:00022c50       ??$_Val_type@PAV?$_List_iterator@V?$_List_val@U?$pair@QAXK@std@@V?$allocator@U?$pair@QAXK@std@@@2@@std@@@std@@@std@@YAPAV?$_List_iterator@V?$_List_val@U?$pair@QAXK@std@@V?$allocator@U?$pair@QAXK@std@@@2@@std@@@0@PAV10@@Z 10023c50 f i PatchMW2FilePointers.obj
 0001:00022c50       ??$_Val_type@PAV?$_List_iterator@V?$_List_val@U?$pair@$$CB_K_N@std@@V?$allocator@U?$pair@$$CB_K_N@std@@@2@@std@@@std@@@std@@YAPAV?$_List_iterator@V?$_List_val@U?$pair@$$CB_K_N@std@@V?$allocator@U?$pair@$$CB_K_N@std@@@2@@std@@@0@PAV10@@Z 10023c50 f i SteamBase.obj
 0001:00022c50       ??$_Val_type@PAUUIScript_t@@@std@@YAPAUUIScript_t@@PAU1@@Z 10023c50 f i PatchMW2UIScripts.obj
 0001:00022c60       ??$_Construct@Udownload_s@@ABU1@@std@@YAXPAUdownload_s@@ABU1@@Z 10023c60 f i PatchMW2DownloadCL.obj
 0001:00022cf0       ??$?9Udownload_s@@U0@@std@@YA_NABV?$allocator@Udownload_s@@@0@0@Z 10023cf0 f i PatchMW2DownloadCL.obj
 0001:00022cf0       ??$?9V?$basic_string@DU?$char_traits@D@std@@V?$allocator@D@2@@std@@V01@@std@@YA_NABV?$allocator@V?$basic_string@DU?$char_traits@D@std@@V?$allocator@D@2@@std@@@0@0@Z 10023cf0 f i PatchMW2UIScriptsFix.obj
 0001:00022cf0       ??$?9DD@std@@YA_NABV?$allocator@D@0@0@Z 10023cf0 f i Auth.obj
 0001:00022cf0       ??$?9PAUmenuDef_t@@PAU0@@std@@YA_NABV?$allocator@PAUmenuDef_t@@@0@0@Z 10023cf0 f i PatchMW2UILoading.obj
 0001:00022d10       ??$_Cons_val@V?$allocator@Udownload_s@@@std@@Udownload_s@@U3@@std@@YAXAAV?$allocator@Udownload_s@@@0@PAUdownload_s@@$$QAU2@@Z 10023d10 f i PatchMW2DownloadCL.obj
 0001:00022d30       ?construct@?$allocator@Udownload_s@@@std@@QAEXPAUdownload_s@@$$QAU3@@Z 10023d30 f i PatchMW2DownloadCL.obj
 0001:00022dc0       ?StringCbCatA@@YGJPADIPBD@Z 10023dc0 f i PatchMW2DownloadCL.obj
 0001:00022e20       ??0dlState@@QAE@XZ         10023e20 f i PatchMW2DownloadCL.obj
 0001:00022e40       ??1dlState@@QAE@XZ         10023e40 f i PatchMW2DownloadCL.obj
 0001:00022e60       ?SV_SendDownloads_f@@YAXPAX@Z 10023e60 f   PatchMW2DownloadSV.obj
 0001:00022ed0       ?SV_WriteDownloadToClient@@YAXPAXPAUmsg_t@@@Z 10023ed0 f   PatchMW2DownloadSV.obj
 0001:00023220       ?FS_GetFileForDownload@@YA_NPBDPADI@Z 10024220 f   PatchMW2DownloadSV.obj
 0001:00023420       ?EndClientSnapshotHookStub@@YAXXZ 10024420 f   PatchMW2DownloadSV.obj
 0001:00023430       ?PatchMW2_DownloadServer@@YAXXZ 10024430 f   PatchMW2DownloadSV.obj
 0001:00023620       ??0TiXmlPrinter@@QAE@XZ    10024620 f i PatchMW2DownloadSV.obj
 0001:000236b0       ??0TiXmlString@@QAE@XZ     100246b0 f i PatchMW2DownloadSV.obj
 0001:000236d0       ??0TiXmlString@@QAE@PBD@Z  100246d0 f i PatchMW2DownloadSV.obj
 0001:00023720       ?length@TiXmlString@@QBEIXZ 10024720 f i PatchMW2DownloadSV.obj
 0001:00023740       ?init@TiXmlString@@AAEXI@Z 10024740 f i PatchMW2DownloadSV.obj
 0001:00023760       ?init@TiXmlString@@AAEXII@Z 10024760 f i PatchMW2DownloadSV.obj
 0001:000237e0       ??1TiXmlVisitor@@UAE@XZ    100247e0 f i PatchMW2DownloadSV.obj
 0001:00023800       ?VisitEnter@TiXmlVisitor@@UAE_NABVTiXmlElement@@PBVTiXmlAttribute@@@Z 10024800 f i PatchMW2DownloadSV.obj
 0001:00023810       ?VisitEnter@TiXmlVisitor@@UAE_NABVTiXmlDocument@@@Z 10024810 f i PatchMW2DownloadSV.obj
 0001:00023810       ?Visit@TiXmlVisitor@@UAE_NABVTiXmlComment@@@Z 10024810 f i PatchMW2DownloadSV.obj
 0001:00023810       ?Visit@TiXmlVisitor@@UAE_NABVTiXmlText@@@Z 10024810 f i PatchMW2DownloadSV.obj
 0001:00023810       ?VisitExit@TiXmlVisitor@@UAE_NABVTiXmlElement@@@Z 10024810 f i PatchMW2DownloadSV.obj
 0001:00023810       ?VisitExit@TiXmlVisitor@@UAE_NABVTiXmlDocument@@@Z 10024810 f i PatchMW2DownloadSV.obj
 0001:00023810       ?Visit@TiXmlVisitor@@UAE_NABVTiXmlUnknown@@@Z 10024810 f i PatchMW2DownloadSV.obj
 0001:00023810       ?Visit@TiXmlVisitor@@UAE_NABVTiXmlDeclaration@@@Z 10024810 f i PatchMW2DownloadSV.obj
 0001:00023820       ??_GTiXmlVisitor@@UAEPAXI@Z 10024820 f i PatchMW2DownloadSV.obj
 0001:00023820       ??_ETiXmlVisitor@@UAEPAXI@Z 10024820 f i PatchMW2DownloadSV.obj
 0001:00023850       ?SetStreamPrinting@TiXmlPrinter@@QAEXXZ 10024850 f i PatchMW2DownloadSV.obj
 0001:00023880       ??4TiXmlString@@QAEAAV0@PBD@Z 10024880 f i PatchMW2DownloadSV.obj
 0001:000238b0       ?CStr@TiXmlPrinter@@QAEPBDXZ 100248b0 f i PatchMW2DownloadSV.obj
 0001:000238d0       ?c_str@TiXmlString@@QBEPBDXZ 100248d0 f i PatchMW2DownloadSV.obj
 0001:000238d0       ?start@TiXmlString@@ABEPADXZ 100248d0 f i PatchMW2DownloadSV.obj
 0001:000238f0       ??_GTiXmlPrinter@@UAEPAXI@Z 100248f0 f i PatchMW2DownloadSV.obj
 0001:000238f0       ??_ETiXmlPrinter@@UAEPAXI@Z 100248f0 f i PatchMW2DownloadSV.obj
 0001:00023920       ??0TiXmlVisitor@@QAE@XZ    10024920 f i PatchMW2DownloadSV.obj
 0001:00023940       ??1TiXmlPrinter@@UAE@XZ    10024940 f i PatchMW2DownloadSV.obj
 0001:000239b0       ?TransformTexCoord@@YAXKPAM@Z 100249b0 f   PatchMW2DumpModel.obj
 0001:00023a60       ?DumpXModel_f@@YAXXZ       10024a60 f   PatchMW2DumpModel.obj
 0001:000240b0       ?PatchMW2_DumpModel@@YAXXZ 100250b0 f   PatchMW2DumpModel.obj
 0001:000240d0       ??Bs10e5@@QBEMXZ           100250d0 f i PatchMW2DumpModel.obj
 0001:00024190       ?setBits@s10e5@@QAEXG@Z    10025190 f i PatchMW2DumpModel.obj
 0001:000241b0       ?DvarSetVariantHookFunc@@YAHXZ 100251b0 f   PatchMW2Dvars.obj
 0001:00024220       ?DvarSetVariantHookStub@@YAXXZ 10025220 f   PatchMW2Dvars.obj
 0001:00024250       ?DvarSetVariantHook2Func@@YAHXZ 10025250 f   PatchMW2Dvars.obj
 0001:00024270       ?DvarSetVariantHook2Stub@@YAXXZ 10025270 f   PatchMW2Dvars.obj
 0001:00024290       ?ServerCommand_SetClientDvarHook@@YAXPAD0@Z 10025290 f   PatchMW2Dvars.obj
 0001:000242f0       ?PatchMW2_Dvars@@YAXXZ     100252f0 f   PatchMW2Dvars.obj
 0001:00024410       ?AddEntryNameHookFunc@@YAXHPBD@Z 10025410 f   PatchMW2Experiments.obj
